 Frodo

 Timestamp is 58f0d7ca (Fri Apr 14 16:08:10 2017)

 Preferred load address is 0000000180000000

 Start         Length     Name                   Class
 0001:00000000 000ad028H .textbss                DATA
 0002:00000000 00004d10H .text$di                CODE
 0002:00004d10 00155c00H .text$mn                CODE
 0002:0015a910 00001020H .text$mn$00             CODE
 0002:0015b930 00006e90H .text$x                 CODE
 0002:001627c0 00001624H .text$yd                CODE
 0003:00000000 00000110H .CRT$XCA                DATA
 0003:00000110 000001f8H .CRT$XCU                DATA
 0003:00000308 00000110H .CRT$XCZ                DATA
 0003:00000418 00000110H .CRT$XIA                DATA
 0003:00000528 00000110H .CRT$XIZ                DATA
 0003:00000638 00000110H .CRT$XPA                DATA
 0003:00000748 00000110H .CRT$XPZ                DATA
 0003:00000858 00000110H .CRT$XTA                DATA
 0003:00000968 00000118H .CRT$XTZ                DATA
 0003:00000a80 00051698H .rdata                  DATA
 0003:00052118 00001490H .rdata$r                DATA
 0003:000535a8 00000188H .rdata$zzzdbg           DATA
 0003:00053730 00000110H .rtc$IAA                DATA
 0003:00053840 00000620H .rtc$IMZ                DATA
 0003:00053e60 00000110H .rtc$IZZ                DATA
 0003:00053f70 00000110H .rtc$TAA                DATA
 0003:00054080 00000620H .rtc$TMZ                DATA
 0003:000546a0 00000110H .rtc$TZZ                DATA
 0003:000547b0 00014cd0H .xdata                  DATA
 0003:00069480 00000210H .xdata$x                DATA
 0003:00069690 0000cb26H .edata                  DATA
 0004:00000000 00001080H .data                   DATA
 0004:00001080 00000760H .data$r                 DATA
 0004:000017e0 0003a6b9H .bss                    DATA
 0005:00000000 0000c744H .pdata                  DATA
 0006:00000000 000007f8H .idata$5                DATA
 0006:000007f8 000000b4H .idata$2                DATA
 0006:000008ac 00000014H .idata$3                DATA
 0006:000008c0 000007f8H .idata$4                DATA
 0006:000010b8 00000baaH .idata$6                DATA
 0007:00000000 00000156H .gfids$y                DATA
 0008:00000000 0000011bH .00cfg                  DATA
 0009:00000000 00000170H .rsrc$01                DATA
 0009:00000170 000002ccH .rsrc$02                DATA

  Address         Publics by Value              Rva+Base               Lib:Object

 0000:00000000       __dynamic_value_reloc_table 0000000000000000     <absolute>
 0000:00000000       ___safe_se_handler_count   0000000000000000     <absolute>
 0000:00000000       __guard_fids_table         0000000000000000     <absolute>
 0000:00000000       __guard_fids_count         0000000000000000     <absolute>
 0000:00000000       ___safe_se_handler_table   0000000000000000     <absolute>
 0000:00000000       __guard_iat_count          0000000000000000     <absolute>
 0000:00000000       __guard_iat_table          0000000000000000     <absolute>
 0000:00000000       __guard_longjmp_count      0000000000000000     <absolute>
 0000:00000000       __guard_longjmp_table      0000000000000000     <absolute>
 0000:00000100       __guard_flags              0000000000000100     <absolute>
 0000:00000000       __ImageBase                0000000180000000     <linker-defined>
 0001:00000000       __enc$textbss$begin        0000000180001000     <linker-defined>
 0001:000ad028       __enc$textbss$end          00000001800ae028     <linker-defined>
 0002:00004d10       ??0?$List@PEAVEventListener@FD@@@FD@@QEAA@XZ 00000001800b3d10 f i eventdispatcher.obj
 0002:00004db0       ??0EventListener@FD@@QEAA@AEBV01@@Z 00000001800b3db0 f i eventdispatcher.obj
 0002:00004e20       ??0EventListener@FD@@QEAA@XZ 00000001800b3e20 f i eventdispatcher.obj
 0002:00004e90       ??1?$List@PEAVEventListener@FD@@@FD@@QEAA@XZ 00000001800b3e90 f i eventdispatcher.obj
 0002:00004f00       ??1EventListener@FD@@QEAA@XZ 00000001800b3f00 f i eventdispatcher.obj
 0002:00004f80       ??4EventDispatcher@FD@@QEAAAEAV01@$$QEAV01@@Z 00000001800b3f80 f i eventdispatcher.obj
 0002:00004fd0       ??4EventDispatcher@FD@@QEAAAEAV01@AEBV01@@Z 00000001800b3fd0 f i eventdispatcher.obj
 0002:00005020       ??4EventListener@FD@@QEAAAEAV01@AEBV01@@Z 00000001800b4020 f i eventdispatcher.obj
 0002:00005070       ??4ivec2@FD@@QEAAAEAV01@$$QEAV01@@Z 00000001800b4070 f i eventdispatcher.obj
 0002:000050f0       ??4ivec2@FD@@QEAAAEAV01@AEBV01@@Z 00000001800b40f0 f i eventdispatcher.obj
 0002:00005160       ??4vec2@FD@@QEAAAEAV01@$$QEAV01@@Z 00000001800b4160 f i eventdispatcher.obj
 0002:000051f0       ??4vec2@FD@@QEAAAEAV01@AEBV01@@Z 00000001800b41f0 f i eventdispatcher.obj
 0002:00005260       ??A?$List@PEAVEventListener@FD@@@FD@@QEAAAEAPEAVEventListener@1@_K@Z 00000001800b4260 f i eventdispatcher.obj
 0002:000052c0       ??Givec2@FD@@QEAA?AV01@XZ  00000001800b42c0 f i eventdispatcher.obj
 0002:00005350       ??Gvec2@FD@@QEAA?AV01@XZ   00000001800b4350 f i eventdispatcher.obj
 0002:000053f0       ??Xivec2@FD@@QEAAXAEBV01@@Z 00000001800b43f0 f i eventdispatcher.obj
 0002:00005450       ??Xivec2@FD@@QEAAXH@Z      00000001800b4450 f i eventdispatcher.obj
 0002:000054b0       ??Xvec2@FD@@QEAAXAEBV01@@Z 00000001800b44b0 f i eventdispatcher.obj
 0002:00005510       ??Xvec2@FD@@QEAAXM@Z       00000001800b4510 f i eventdispatcher.obj
 0002:00005580       ??Yivec2@FD@@QEAAXAEBV01@@Z 00000001800b4580 f i eventdispatcher.obj
 0002:000055e0       ??Yivec2@FD@@QEAAXH@Z      00000001800b45e0 f i eventdispatcher.obj
 0002:00005640       ??Yvec2@FD@@QEAAXAEBV01@@Z 00000001800b4640 f i eventdispatcher.obj
 0002:000056a0       ??Yvec2@FD@@QEAAXM@Z       00000001800b46a0 f i eventdispatcher.obj
 0002:00005710       ??Zivec2@FD@@QEAAXAEBV01@@Z 00000001800b4710 f i eventdispatcher.obj
 0002:00005770       ??Zivec2@FD@@QEAAXH@Z      00000001800b4770 f i eventdispatcher.obj
 0002:000057d0       ??Zvec2@FD@@QEAAXAEBV01@@Z 00000001800b47d0 f i eventdispatcher.obj
 0002:00005830       ??Zvec2@FD@@QEAAXM@Z       00000001800b4830 f i eventdispatcher.obj
 0002:000058a0       ??_0ivec2@FD@@QEAAXAEBV01@@Z 00000001800b48a0 f i eventdispatcher.obj
 0002:00005900       ??_0ivec2@FD@@QEAAXH@Z     00000001800b4900 f i eventdispatcher.obj
 0002:00005960       ??_0vec2@FD@@QEAAXAEBV01@@Z 00000001800b4960 f i eventdispatcher.obj
 0002:000059c0       ??_0vec2@FD@@QEAAXM@Z      00000001800b49c0 f i eventdispatcher.obj
 0002:00005a30       ?AddListener@EventDispatcher@FD@@SAXPEAVEventListener@2@@Z 00000001800b4a30 f   eventdispatcher.obj
 0002:00005a90       ?DispatchEvent@EventDispatcher@FD@@SAXPEBVEvent@2@@Z 00000001800b4a90 f   eventdispatcher.obj
 0002:00006060       ?GetAction@EventKeyboardActionKey@FD@@QEBAIXZ 00000001800b5060 f i eventdispatcher.obj
 0002:000060b0       ?GetAction@EventMouseActionButton@FD@@QEBA?AW4FD_ACTION@12@XZ 00000001800b50b0 f i eventdispatcher.obj
 0002:00006100       ?GetAction@EventWindowState@FD@@QEBA?AW4FD_ACTION@12@XZ 00000001800b5100 f i eventdispatcher.obj
 0002:00006150       ?GetButton@EventMouseActionButton@FD@@QEBAIXZ 00000001800b5150 f i eventdispatcher.obj
 0002:000061a0       ?GetEventType@Event@FD@@QEBA?AW4FD_TYPE@12@XZ 00000001800b51a0 f i eventdispatcher.obj
 0002:000061f0       ?GetKey@EventKeyboardActionKey@FD@@QEBAIXZ 00000001800b51f0 f i eventdispatcher.obj
 0002:00006240       ?GetPosition@EventMouseActionMove@FD@@QEBA?AVivec2@2@XZ 00000001800b5240 f i eventdispatcher.obj
 0002:000062b0       ?GetPosition@EventWindowActionMove@FD@@QEBA?AVivec2@2@XZ 00000001800b52b0 f i eventdispatcher.obj
 0002:00006320       ?GetSize@?$List@PEAVEventListener@FD@@@FD@@QEBA?B_KXZ 00000001800b5320 f i eventdispatcher.obj
 0002:00006370       ?GetSize@EventWindowActionResize@FD@@QEBA?AVivec2@2@XZ 00000001800b5370 f i eventdispatcher.obj
 0002:000063e0       ?GetSizeInBytes@?$List@PEAVEventListener@FD@@@FD@@QEBA?B_KXZ 00000001800b53e0 f i eventdispatcher.obj
 0002:00006440       ?OnEvent@EventListener@FD@@UEAA_NPEBVEvent@2@@Z 00000001800b5440 f i eventdispatcher.obj
 0002:00006490       ?OnEvent@EventListener@FD@@UEAA_NPEBVEventKeyboardActionKey@2@@Z 00000001800b5490 f i eventdispatcher.obj
 0002:000064e0       ?OnEvent@EventListener@FD@@UEAA_NPEBVEventMouseActionButton@2@@Z 00000001800b54e0 f i eventdispatcher.obj
 0002:00006530       ?OnEvent@EventListener@FD@@UEAA_NPEBVEventMouseActionMove@2@@Z 00000001800b5530 f i eventdispatcher.obj
 0002:00006580       ?OnEvent@EventListener@FD@@UEAA_NPEBVEventWindowActionMove@2@@Z 00000001800b5580 f i eventdispatcher.obj
 0002:000065d0       ?OnEvent@EventListener@FD@@UEAA_NPEBVEventWindowActionResize@2@@Z 00000001800b55d0 f i eventdispatcher.obj
 0002:00006620       ?OnEvent@EventListener@FD@@UEAA_NPEBVEventWindowState@2@@Z 00000001800b5620 f i eventdispatcher.obj
 0002:00006670       ?OnKeyboardActionKeyHold@EventListener@FD@@UEAA_NI@Z 00000001800b5670 f i eventdispatcher.obj
 0002:000066c0       ?OnKeyboardActionKeyPressed@EventListener@FD@@UEAA_NI@Z 00000001800b56c0 f i eventdispatcher.obj
 0002:00006710       ?OnKeyboardActionKeyReleased@EventListener@FD@@UEAA_NI@Z 00000001800b5710 f i eventdispatcher.obj
 0002:00006760       ?OnMouseActionButtonHold@EventListener@FD@@UEAA_NI@Z 00000001800b5760 f i eventdispatcher.obj
 0002:000067b0       ?OnMouseActionButtonPressed@EventListener@FD@@UEAA_NI@Z 00000001800b57b0 f i eventdispatcher.obj
 0002:00006800       ?OnMouseActionButtonReleased@EventListener@FD@@UEAA_NI@Z 00000001800b5800 f i eventdispatcher.obj
 0002:00006850       ?OnMouseActionMove@EventListener@FD@@UEAA_NVivec2@2@@Z 00000001800b5850 f i eventdispatcher.obj
 0002:000068a0       ?OnWindowActionMove@EventListener@FD@@UEAA_NVivec2@2@@Z 00000001800b58a0 f i eventdispatcher.obj
 0002:000068f0       ?OnWindowActionResize@EventListener@FD@@UEAA_NVivec2@2@@Z 00000001800b58f0 f i eventdispatcher.obj
 0002:00006940       ?OnWindowStateChanged@EventListener@FD@@UEAA_NW4FD_ACTION@EventWindowState@2@@Z 00000001800b5940 f i eventdispatcher.obj
 0002:00006990       ?Push_back@?$List@PEAVEventListener@FD@@@FD@@QEAAXPEAVEventListener@2@@Z 00000001800b5990 f i eventdispatcher.obj
 0002:00006a70       ?Remove@?$List@PEAVEventListener@FD@@@FD@@QEAAPEAVEventListener@2@PEAV32@@Z 00000001800b5a70 f i eventdispatcher.obj
 0002:00006b30       ?RemoveIndex@?$List@PEAVEventListener@FD@@@FD@@QEAAPEAVEventListener@2@_K@Z 00000001800b5b30 f i eventdispatcher.obj
 0002:00006c40       ?RemoveListener@EventDispatcher@FD@@SAXPEAVEventListener@2@@Z 00000001800b5c40 f   eventdispatcher.obj
 0002:00006ca0       ?Reserve@?$List@PEAVEventListener@FD@@@FD@@QEAAX_K@Z 00000001800b5ca0 f i eventdispatcher.obj
 0002:00006df0       ?__autoclassinit2@?$List@PEAVEventListener@FD@@@FD@@QEAAX_K@Z 00000001800b5df0 f i eventdispatcher.obj
 0002:00006e50       ??$__vcrt_va_start_verify_argument_type@QEB_W@@YAXXZ 00000001800b5e50 f i input.obj
 0002:00006e80       ??0String@FD@@QEAA@XZ      00000001800b5e80 f i input.obj
 0002:00006ef0       ??0Window@FD@@QEAA@AEBV01@@Z 00000001800b5ef0 f i input.obj
 0002:00007070       ??4D3DContext@FD@@QEAAAEAV01@AEBV01@@Z 00000001800b6070 f i input.obj
 0002:000070e0       ??4Input@FD@@QEAAAEAV01@$$QEAV01@@Z 00000001800b60e0 f i input.obj
 0002:00007130       ??4Input@FD@@QEAAAEAV01@AEBV01@@Z 00000001800b6130 f i input.obj
 0002:00007180       ??4Window@FD@@QEAAAEAV01@AEBV01@@Z 00000001800b6180 f i input.obj
 0002:00007300       ??6String@FD@@QEAAAEAV01@AEBV01@@Z 00000001800b6300 f i input.obj
 0002:00007360       ??6String@FD@@QEAAAEAV01@D@Z 00000001800b6360 f i input.obj
 0002:000073c0       ??DString@FD@@QEBAPEADXZ   00000001800b63c0 f i input.obj
 0002:00007410       ??YString@FD@@QEAAXAEBV01@@Z 00000001800b6410 f i input.obj
 0002:00007470       ??YString@FD@@QEAAXD@Z     00000001800b6470 f i input.obj
 0002:000074d0       ?CaptureMouse@Input@FD@@SAXXZ 00000001800b64d0 f i input.obj
 0002:00007520       ?GetAspectRatio@Window@FD@@QEBAMXZ 00000001800b6520 f i input.obj
 0002:00007590       ?GetContext@D3DContext@FD@@SAPEAV12@XZ 00000001800b6590 f i input.obj
 0002:000075d0       ?GetDefaultDepthStencilView@D3DContext@FD@@SAPEAUID3D11DepthStencilView@@XZ 00000001800b65d0 f i input.obj
 0002:00007610       ?GetDefaultRenderTarget@D3DContext@FD@@SAPEAUID3D11RenderTargetView@@XZ 00000001800b6610 f i input.obj
 0002:00007650       ?GetDevice@D3DContext@FD@@SAPEAUID3D11Device@@XZ 00000001800b6650 f i input.obj
 0002:00007690       ?GetDeviceContext@D3DContext@FD@@SAPEAUID3D11DeviceContext@@XZ 00000001800b6690 f i input.obj
 0002:000076d0       ?GetHWND@Window@FD@@QEBAPEAUHWND__@@XZ 00000001800b66d0 f i input.obj
 0002:00007720       ?GetHeight@Window@FD@@QEBAHXZ 00000001800b6720 f i input.obj
 0002:00007770       ?GetMouseX@Input@FD@@SAIXZ 00000001800b6770 f i input.obj
 0002:000077b0       ?GetMouseY@Input@FD@@SAIXZ 00000001800b67b0 f i input.obj
 0002:000077f0       ?GetSwapChain@D3DContext@FD@@SAPEAUIDXGISwapChain@@XZ 00000001800b67f0 f i input.obj
 0002:00007830       ?GetTitle@Window@FD@@QEBAAEBVString@2@XZ 00000001800b6830 f i input.obj
 0002:00007880       ?GetWCHAR@String@FD@@QEBAPEA_WXZ 00000001800b6880 f i input.obj
 0002:00007980       ?GetWidth@Window@FD@@QEBAHXZ 00000001800b6980 f i input.obj
 0002:000079d0       ?GetWindow@D3DContext@FD@@SAPEAVWindow@2@XZ 00000001800b69d0 f i input.obj
 0002:00007a10       ?Init@Input@FD@@SAXPEAVWindow@2@@Z 00000001800b6a10 f   input.obj
 0002:00007aa0       ?IsKeyDown@Input@FD@@SA_NE@Z 00000001800b6aa0 f   input.obj
 0002:00007b00       ?IsKeyDownOnce@Input@FD@@SA_NE@Z 00000001800b6b00 f   input.obj
 0002:00007ba0       ?IsMouseCaptured@Input@FD@@SA_NXZ 00000001800b6ba0 f i input.obj
 0002:00007be0       ?IsNull@String@FD@@QEBA_NXZ 00000001800b6be0 f i input.obj
 0002:00007c70       ?IsOpen@Window@FD@@QEBA_NXZ 00000001800b6c70 f i input.obj
 0002:00007cc0       ?IsVisible@Window@FD@@QEBA_NXZ 00000001800b6cc0 f i input.obj
 0002:00007d10       ?ReleaseMouse@Input@FD@@SAXXZ 00000001800b6d10 f i input.obj
 0002:00007d60       ?SetActiveDeviceContext@D3DContext@FD@@SAXPEAUID3D11DeviceContext@@@Z 00000001800b6d60 f i input.obj
 0002:00007df0       ?SetClearColor@Window@FD@@QEAAXMMM@Z 00000001800b6df0 f i input.obj
 0002:00007ec0       ?SetMousePos@Input@FD@@SAXII@Z 00000001800b6ec0 f   input.obj
 0002:00007f90       ?SetNoDelete@String@FD@@QEAAX_N@Z 00000001800b6f90 f i input.obj
 0002:00007ff0       ?SetVSync@Window@FD@@QEAAXI@Z 00000001800b6ff0 f i input.obj
 0002:00008070       ?Update@Input@FD@@SAXXZ    00000001800b7070 f   input.obj
 0002:000080f0       ?__autoclassinit2@D3DContext@FD@@QEAAX_K@Z 00000001800b70f0 f i input.obj
 0002:00008150       ?__autoclassinit2@String@FD@@QEAAX_K@Z 00000001800b7150 f i input.obj
 0002:000081b0       ?__autoclassinit2@Window@FD@@QEAAX_K@Z 00000001800b71b0 f i input.obj
 0002:00008210       __local_stdio_printf_options 00000001800b7210 f i input.obj
 0002:00008250       _vswprintf_s_l             00000001800b7250 f i input.obj
 0002:00008320       swprintf_s                 00000001800b7320 f i input.obj
 0002:00008410       ??$__vcrt_va_start_verify_argument_type@PEBD@@YAXXZ 00000001800b7410 f i log.obj
 0002:00008440       ??$__vcrt_va_start_verify_argument_type@QEBD@@YAXXZ 00000001800b7440 f i log.obj
 0002:00008470       ?FDLog@FD@@YAXEPEBDZZ      00000001800b7470 f   log.obj
 0002:000086c0       _vfprintf_l                00000001800b76c0 f i log.obj
 0002:00008750       printf                     00000001800b7750 f i log.obj
 0002:00008840       vprintf                    00000001800b7840 f i log.obj
 0002:000088c0       ??$Push@H@BufferLayout@FD@@QEAAXPEBDI@Z 00000001800b78c0 f i uibutton.obj
 0002:00008970       ??$Push@I@BufferLayout@FD@@QEAAXPEBDI@Z 00000001800b7970 f i uibutton.obj
 0002:00008a20       ??$Push@M@BufferLayout@FD@@QEAAXPEBDI@Z 00000001800b7a20 f i uibutton.obj
 0002:00008ad0       ??$Push@Vvec2@FD@@@BufferLayout@FD@@QEAAXPEBDI@Z 00000001800b7ad0 f i uibutton.obj
 0002:00008b80       ??$Push@Vvec3@FD@@@BufferLayout@FD@@QEAAXPEBDI@Z 00000001800b7b80 f i uibutton.obj
 0002:00008c30       ??$Push@Vvec4@FD@@@BufferLayout@FD@@QEAAXPEBDI@Z 00000001800b7c30 f i uibutton.obj
 0002:00008ce0       ??0?$List@I@FD@@QEAA@AEBV01@@Z 00000001800b7ce0 f i uibutton.obj
 0002:00008e00       ??0?$List@PEAUShaderGenBlock@Shader@FD@@@FD@@QEAA@AEBV01@@Z 00000001800b7e00 f i uibutton.obj
 0002:00008f20       ??0?$List@PEAUShaderGenVariable@Shader@FD@@@FD@@QEAA@AEBV01@@Z 00000001800b7f20 f i uibutton.obj
 0002:00009040       ??0?$List@PEAUShaderStructInfo@Shader@FD@@@FD@@QEAA@AEBV01@@Z 00000001800b8040 f i uibutton.obj
 0002:00009160       ??0?$List@PEAUShaderTextureInfo@Shader@FD@@@FD@@QEAA@AEBV01@@Z 00000001800b8160 f i uibutton.obj
 0002:00009280       ??0?$List@PEAVLight@FD@@@FD@@QEAA@AEBV01@@Z 00000001800b8280 f i uibutton.obj
 0002:000093a0       ??0?$List@PEAVLight@FD@@@FD@@QEAA@XZ 00000001800b83a0 f i uibutton.obj
 0002:00009440       ??0?$List@PEAVTexture2D@FD@@@FD@@QEAA@AEBV01@@Z 00000001800b8440 f i uibutton.obj
 0002:00009560       ??0?$List@PEAVTexture@FD@@@FD@@QEAA@AEBV01@@Z 00000001800b8560 f i uibutton.obj
 0002:00009680       ??0?$List@PEAVUIItem@FD@@@FD@@QEAA@AEBV01@@Z 00000001800b8680 f i uibutton.obj
 0002:000097a0       ??0?$List@PEAVUIText@FD@@@FD@@QEAA@AEBV01@@Z 00000001800b87a0 f i uibutton.obj
 0002:000098c0       ??0?$List@PEAVUIText@FD@@@FD@@QEAA@XZ 00000001800b88c0 f i uibutton.obj
 0002:00009960       ??0?$List@UBufferLayoutAttrib@BufferLayout@FD@@@FD@@QEAA@AEBV01@@Z 00000001800b8960 f i uibutton.obj
 0002:00009b30       ??0?$List@UBufferLayoutAttrib@BufferLayout@FD@@@FD@@QEAA@XZ 00000001800b8b30 f i uibutton.obj
 0002:00009bd0       ??0?$List@UFD_GLYPH@Font@FD@@@FD@@QEAA@AEBV01@@Z 00000001800b8bd0 f i uibutton.obj
 0002:00009d60       ??0?$List@URenderCommand@FD@@@FD@@QEAA@AEBV01@@Z 00000001800b8d60 f i uibutton.obj
 0002:00009ef0       ??0?$List@URenderCommand@FD@@@FD@@QEAA@XZ 00000001800b8ef0 f i uibutton.obj
 0002:00009f90       ??0?$Map@IPEAVTexture@FD@@@FD@@QEAA@AEBV01@@Z 00000001800b8f90 f i uibutton.obj
 0002:0000a040       ??0?$Map@IUFD_GLYPH@Font@FD@@@FD@@QEAA@AEBV01@@Z 00000001800b9040 f i uibutton.obj
 0002:0000a0f0       ??0BatchRenderer@FD@@QEAA@AEBV01@@Z 00000001800b90f0 f i uibutton.obj
 0002:0000a300       ??0Buffer@FD@@IEAA@XZ      00000001800b9300 f i uibutton.obj
 0002:0000a370       ??0Buffer@FD@@QEAA@AEBV01@@Z 00000001800b9370 f i uibutton.obj
 0002:0000a410       ??0BufferLayout@FD@@QEAA@AEBV01@@Z 00000001800b9410 f i uibutton.obj
 0002:0000a4a0       ??0BufferLayout@FD@@QEAA@XZ 00000001800b94a0 f i uibutton.obj
 0002:0000a540       ??0BufferLayoutAttrib@BufferLayout@FD@@QEAA@XZ 00000001800b9540 f i uibutton.obj
 0002:0000a5a0       ??0Camera@FD@@QEAA@$$QEAV01@@Z 00000001800b95a0 f i uibutton.obj
 0002:0000a6a0       ??0Camera@FD@@QEAA@AEBV01@@Z 00000001800b96a0 f i uibutton.obj
 0002:0000a7a0       ??0Camera@FD@@QEAA@AEBVvec3@1@0@Z 00000001800b97a0 f i uibutton.obj
 0002:0000a890       ??0ConstantBufferSlot@Shader@FD@@QEAA@AEBU012@@Z 00000001800b9890 f i uibutton.obj
 0002:0000a950       ??0DirectionalLight@FD@@QEAA@AEBVvec3@1@0@Z 00000001800b9950 f i uibutton.obj
 0002:0000aa00       ??0Entity@FD@@QEAA@AEBV01@@Z 00000001800b9a00 f i uibutton.obj
 0002:0000aaf0       ??0Entity@FD@@QEAA@AEBVvec3@1@00@Z 00000001800b9af0 f i uibutton.obj
 0002:0000abe0       ??0Entity@FD@@QEAA@XZ      00000001800b9be0 f i uibutton.obj
 0002:0000aca0       ??0FD_GLYPH@Font@FD@@QEAA@XZ 00000001800b9ca0 f i uibutton.obj
 0002:0000ad50       ??0Font@FD@@QEAA@AEBV01@@Z 00000001800b9d50 f i uibutton.obj
 0002:0000ae80       ??0FontRenderer@FD@@QEAA@AEBV01@@Z 00000001800b9e80 f i uibutton.obj
 0002:0000af00       ??0IndexBuffer@FD@@QEAA@$$QEAV01@@Z 00000001800b9f00 f i uibutton.obj
 0002:0000afb0       ??0IndexBuffer@FD@@QEAA@AEBV01@@Z 00000001800b9fb0 f i uibutton.obj
 0002:0000b060       ??0Light@FD@@IEAA@AEBVvec3@1@@Z 00000001800ba060 f i uibutton.obj
 0002:0000b100       ??0LightStack@FD@@QEAA@AEBV01@@Z 00000001800ba100 f i uibutton.obj
 0002:0000b170       ??0LightStack@FD@@QEAA@XZ  00000001800ba170 f i uibutton.obj
 0002:0000b1d0       ??0Material@FD@@QEAA@AEBV01@@Z 00000001800ba1d0 f i uibutton.obj
 0002:0000b2e0       ??0MaterialInstance@FD@@QEAA@AEBV01@@Z 00000001800ba2e0 f i uibutton.obj
 0002:0000b410       ??0Mesh@FD@@QEAA@PEAVVertexBuffer@1@PEAVIndexBuffer@1@PEAVMaterialInstance@1@@Z 00000001800ba410 f i uibutton.obj
 0002:0000b4b0       ??0PointLight@FD@@QEAA@AEBVvec3@1@00@Z 00000001800ba4b0 f i uibutton.obj
 0002:0000b580       ??0RenderCommand@FD@@QEAA@XZ 00000001800ba580 f i uibutton.obj
 0002:0000b5f0       ??0Renderer@FD@@IEAA@PEAVWindow@1@@Z 00000001800ba5f0 f i uibutton.obj
 0002:0000b6b0       ??0Renderer@FD@@QEAA@AEBV01@@Z 00000001800ba6b0 f i uibutton.obj
 0002:0000b780       ??0Shader@FD@@QEAA@AEBV01@@Z 00000001800ba780 f i uibutton.obj
 0002:0000ba00       ??0SpotLight@FD@@QEAA@AEBVvec3@1@000Vvec2@1@@Z 00000001800baa00 f i uibutton.obj
 0002:0000bb30       ??0Texture2D@FD@@AEAA@XZ   00000001800bab30 f i uibutton.obj
 0002:0000bbd0       ??0Texture2D@FD@@QEAA@AEBV01@@Z 00000001800babd0 f i uibutton.obj
 0002:0000bc70       ??0Texture@FD@@QEAA@AEBV01@@Z 00000001800bac70 f i uibutton.obj
 0002:0000bd20       ??0Texture@FD@@QEAA@XZ     00000001800bad20 f i uibutton.obj
 0002:0000bd90       ??0UIButton@FD@@QEAA@AEBV01@@Z 00000001800bad90 f i uibutton.obj
 0002:0000be10       ??0UIButton@FD@@QEAA@AEBVString@1@Vvec2@1@10@Z 00000001800bae10 f   uibutton.obj
 0002:0000c0f0       ??0UIHandler@FD@@QEAA@AEBV01@@Z 00000001800bb0f0 f i uibutton.obj
 0002:0000c1c0       ??0UIItem@FD@@IEAA@AEBVString@1@Vvec2@1@1@Z 00000001800bb1c0 f i uibutton.obj
 0002:0000c360       ??0UIItem@FD@@QEAA@AEBV01@@Z 00000001800bb360 f i uibutton.obj
 0002:0000c540       ??0UIText@FD@@QEAA@AEBV01@@Z 00000001800bb540 f i uibutton.obj
 0002:0000c6d0       ??0UIText@FD@@QEAA@AEBVString@1@Vvec2@1@PEAVFont@1@0@Z 00000001800bb6d0 f i uibutton.obj
 0002:0000c850       ??0UITextAutoResize@FD@@QEAA@$$QEAV01@@Z 00000001800bb850 f i uibutton.obj
 0002:0000c960       ??0UITextAutoResize@FD@@QEAA@AEBV01@@Z 00000001800bb960 f i uibutton.obj
 0002:0000ca70       ??0UITextHorizontalScroll@FD@@QEAA@$$QEAV01@@Z 00000001800bba70 f i uibutton.obj
 0002:0000cb50       ??0UITextHorizontalScroll@FD@@QEAA@AEBV01@@Z 00000001800bbb50 f i uibutton.obj
 0002:0000cc30       ??0VertexBuffer@FD@@QEAA@$$QEAV01@@Z 00000001800bbc30 f i uibutton.obj
 0002:0000cce0       ??0VertexBuffer@FD@@QEAA@AEBV01@@Z 00000001800bbce0 f i uibutton.obj
 0002:0000cd90       ??1?$List@PEAUShaderGenBlock@Shader@FD@@@FD@@QEAA@XZ 00000001800bbd90 f i uibutton.obj
 0002:0000ce00       ??1?$List@PEAUShaderGenVariable@Shader@FD@@@FD@@QEAA@XZ 00000001800bbe00 f i uibutton.obj
 0002:0000ce70       ??1?$List@PEAUShaderStructInfo@Shader@FD@@@FD@@QEAA@XZ 00000001800bbe70 f i uibutton.obj
 0002:0000cee0       ??1?$List@PEAVLight@FD@@@FD@@QEAA@XZ 00000001800bbee0 f i uibutton.obj
 0002:0000cf50       ??1?$List@PEAVTexture@FD@@@FD@@QEAA@XZ 00000001800bbf50 f i uibutton.obj
 0002:0000cfc0       ??1?$List@PEAVUIText@FD@@@FD@@QEAA@XZ 00000001800bbfc0 f i uibutton.obj
 0002:0000d030       ??1?$List@UBufferLayoutAttrib@BufferLayout@FD@@@FD@@QEAA@XZ 00000001800bc030 f i uibutton.obj
 0002:0000d0e0       ??1?$List@UFD_GLYPH@Font@FD@@@FD@@QEAA@XZ 00000001800bc0e0 f i uibutton.obj
 0002:0000d150       ??1?$List@URenderCommand@FD@@@FD@@QEAA@XZ 00000001800bc150 f i uibutton.obj
 0002:0000d1c0       ??1Buffer@FD@@UEAA@XZ      00000001800bc1c0 f i uibutton.obj
 0002:0000d270       ??1BufferLayoutAttrib@BufferLayout@FD@@QEAA@XZ 00000001800bc270 f i uibutton.obj
 0002:0000d2d0       ??1ConstantBufferSlot@Shader@FD@@QEAA@XZ 00000001800bc2d0 f i uibutton.obj
 0002:0000d330       ??1Entity@FD@@UEAA@XZ      00000001800bc330 f i uibutton.obj
 0002:0000d390       ??1IndexBuffer@FD@@UEAA@XZ 00000001800bc390 f i uibutton.obj
 0002:0000d3e0       ??1LightStack@FD@@QEAA@XZ  00000001800bc3e0 f i uibutton.obj
 0002:0000d460       ??1Mesh@FD@@QEAA@XZ        00000001800bc460 f i uibutton.obj
 0002:0000d510       ??1Renderer@FD@@UEAA@XZ    00000001800bc510 f i uibutton.obj
 0002:0000d590       ??1Texture@FD@@UEAA@XZ     00000001800bc590 f i uibutton.obj
 0002:0000d640       ??1UIButton@FD@@UEAA@XZ    00000001800bc640 f i uibutton.obj
 0002:0000d6b0       ??1UIItem@FD@@UEAA@XZ      00000001800bc6b0 f i uibutton.obj
 0002:0000d740       ??1UIText@FD@@UEAA@XZ      00000001800bc740 f i uibutton.obj
 0002:0000d7d0       ??1UITextAutoResize@FD@@UEAA@XZ 00000001800bc7d0 f i uibutton.obj
 0002:0000d820       ??1UITextHorizontalScroll@FD@@UEAA@XZ 00000001800bc820 f i uibutton.obj
 0002:0000d890       ??1VertexBuffer@FD@@UEAA@XZ 00000001800bc890 f i uibutton.obj
 0002:0000d8e0       ??4?$List@I@FD@@QEAAAEAV01@AEBV01@@Z 00000001800bc8e0 f i uibutton.obj
 0002:0000da20       ??4?$List@PEAUShaderGenBlock@Shader@FD@@@FD@@QEAAAEAV01@AEBV01@@Z 00000001800bca20 f i uibutton.obj
 0002:0000db60       ??4?$List@PEAUShaderGenVariable@Shader@FD@@@FD@@QEAAAEAV01@AEBV01@@Z 00000001800bcb60 f i uibutton.obj
 0002:0000dca0       ??4?$List@PEAUShaderStructInfo@Shader@FD@@@FD@@QEAAAEAV01@AEBV01@@Z 00000001800bcca0 f i uibutton.obj
 0002:0000dde0       ??4?$List@PEAUShaderTextureInfo@Shader@FD@@@FD@@QEAAAEAV01@AEBV01@@Z 00000001800bcde0 f i uibutton.obj
 0002:0000df20       ??4?$List@PEAVLight@FD@@@FD@@QEAAAEAV01@AEBV01@@Z 00000001800bcf20 f i uibutton.obj
 0002:0000e060       ??4?$List@PEAVTexture2D@FD@@@FD@@QEAAAEAV01@AEBV01@@Z 00000001800bd060 f i uibutton.obj
 0002:0000e1a0       ??4?$List@PEAVTexture@FD@@@FD@@QEAAAEAV01@AEBV01@@Z 00000001800bd1a0 f i uibutton.obj
 0002:0000e2e0       ??4?$List@PEAVUIItem@FD@@@FD@@QEAAAEAV01@AEBV01@@Z 00000001800bd2e0 f i uibutton.obj
 0002:0000e420       ??4?$List@PEAVUIText@FD@@@FD@@QEAAAEAV01@AEBV01@@Z 00000001800bd420 f i uibutton.obj
 0002:0000e560       ??4?$List@UBufferLayoutAttrib@BufferLayout@FD@@@FD@@QEAAAEAV01@AEBV01@@Z 00000001800bd560 f i uibutton.obj
 0002:0000e790       ??4?$List@UFD_GLYPH@Font@FD@@@FD@@QEAAAEAV01@AEBV01@@Z 00000001800bd790 f i uibutton.obj
 0002:0000e940       ??4?$List@URenderCommand@FD@@@FD@@QEAAAEAV01@AEBV01@@Z 00000001800bd940 f i uibutton.obj
 0002:0000eaf0       ??4?$Map@IPEAVTexture@FD@@@FD@@QEAAAEAV01@AEBV01@@Z 00000001800bdaf0 f i uibutton.obj
 0002:0000eb90       ??4?$Map@IUFD_GLYPH@Font@FD@@@FD@@QEAAAEAV01@AEBV01@@Z 00000001800bdb90 f i uibutton.obj
 0002:0000ec30       ??4BatchRenderer@FD@@QEAAAEAV01@AEBV01@@Z 00000001800bdc30 f i uibutton.obj
 0002:0000ee70       ??4Buffer@FD@@QEAAAEAV01@AEBV01@@Z 00000001800bde70 f i uibutton.obj
 0002:0000ef00       ??4BufferLayout@FD@@QEAAAEAV01@AEBV01@@Z 00000001800bdf00 f i uibutton.obj
 0002:0000ef90       ??4Camera@FD@@QEAAAEAV01@$$QEAV01@@Z 00000001800bdf90 f i uibutton.obj
 0002:0000f080       ??4Camera@FD@@QEAAAEAV01@AEBV01@@Z 00000001800be080 f i uibutton.obj
 0002:0000f170       ??4ConstantBufferSlot@Shader@FD@@QEAAAEAU012@AEBU012@@Z 00000001800be170 f i uibutton.obj
 0002:0000f230       ??4DirectionalLight@FD@@QEAAAEAV01@$$QEAV01@@Z 00000001800be230 f i uibutton.obj
 0002:0000f2e0       ??4DirectionalLight@FD@@QEAAAEAV01@AEBV01@@Z 00000001800be2e0 f i uibutton.obj
 0002:0000f350       ??4Entity@FD@@QEAAAEAV01@AEBV01@@Z 00000001800be350 f i uibutton.obj
 0002:0000f430       ??4Font@FD@@QEAAAEAV01@AEBV01@@Z 00000001800be430 f i uibutton.obj
 0002:0000f550       ??4FontRenderer@FD@@QEAAAEAV01@AEBV01@@Z 00000001800be550 f i uibutton.obj
 0002:0000f5c0       ??4IndexBuffer@FD@@QEAAAEAV01@$$QEAV01@@Z 00000001800be5c0 f i uibutton.obj
 0002:0000f660       ??4IndexBuffer@FD@@QEAAAEAV01@AEBV01@@Z 00000001800be660 f i uibutton.obj
 0002:0000f700       ??4Light@FD@@QEAAAEAV01@$$QEAV01@@Z 00000001800be700 f i uibutton.obj
 0002:0000f790       ??4Light@FD@@QEAAAEAV01@AEBV01@@Z 00000001800be790 f i uibutton.obj
 0002:0000f800       ??4LightStack@FD@@QEAAAEAV01@AEBV01@@Z 00000001800be800 f i uibutton.obj
 0002:0000f870       ??4Material@FD@@QEAAAEAV01@AEBV01@@Z 00000001800be870 f i uibutton.obj
 0002:0000f960       ??4MaterialInstance@FD@@QEAAAEAV01@AEBV01@@Z 00000001800be960 f i uibutton.obj
 0002:0000fa60       ??4Mesh@FD@@QEAAAEAV01@AEBV01@@Z 00000001800bea60 f i uibutton.obj
 0002:0000fad0       ??4PointLight@FD@@QEAAAEAV01@$$QEAV01@@Z 00000001800bead0 f i uibutton.obj
 0002:0000fbc0       ??4PointLight@FD@@QEAAAEAV01@AEBV01@@Z 00000001800bebc0 f i uibutton.obj
 0002:0000fc30       ??4Renderer@FD@@QEAAAEAV01@AEBV01@@Z 00000001800bec30 f i uibutton.obj
 0002:0000fce0       ??4Shader@FD@@QEAAAEAV01@AEBV01@@Z 00000001800bece0 f i uibutton.obj
 0002:0000ff40       ??4SpotLight@FD@@QEAAAEAV01@$$QEAV01@@Z 00000001800bef40 f i uibutton.obj
 0002:00010030       ??4SpotLight@FD@@QEAAAEAV01@AEBV01@@Z 00000001800bf030 f i uibutton.obj
 0002:000100a0       ??4Texture2D@FD@@QEAAAEAV01@AEBV01@@Z 00000001800bf0a0 f i uibutton.obj
 0002:00010130       ??4Texture@FD@@QEAAAEAV01@AEBV01@@Z 00000001800bf130 f i uibutton.obj
 0002:000101d0       ??4TextureManager@FD@@QEAAAEAV01@$$QEAV01@@Z 00000001800bf1d0 f i uibutton.obj
 0002:00010220       ??4TextureManager@FD@@QEAAAEAV01@AEBV01@@Z 00000001800bf220 f i uibutton.obj
 0002:00010270       ??4UIButton@FD@@QEAAAEAV01@AEBV01@@Z 00000001800bf270 f i uibutton.obj
 0002:000102e0       ??4UIHandler@FD@@QEAAAEAV01@AEBV01@@Z 00000001800bf2e0 f i uibutton.obj
 0002:00010390       ??4UIItem@FD@@QEAAAEAV01@AEBV01@@Z 00000001800bf390 f i uibutton.obj
 0002:00010550       ??4UIText@FD@@QEAAAEAV01@AEBV01@@Z 00000001800bf550 f i uibutton.obj
 0002:000106c0       ??4UITextAutoResize@FD@@QEAAAEAV01@$$QEAV01@@Z 00000001800bf6c0 f i uibutton.obj
 0002:000107b0       ??4UITextAutoResize@FD@@QEAAAEAV01@AEBV01@@Z 00000001800bf7b0 f i uibutton.obj
 0002:000108a0       ??4UITextHorizontalScroll@FD@@QEAAAEAV01@$$QEAV01@@Z 00000001800bf8a0 f i uibutton.obj
 0002:00010960       ??4UITextHorizontalScroll@FD@@QEAAAEAV01@AEBV01@@Z 00000001800bf960 f i uibutton.obj
 0002:00010a20       ??4VertexBuffer@FD@@QEAAAEAV01@$$QEAV01@@Z 00000001800bfa20 f i uibutton.obj
 0002:00010ac0       ??4VertexBuffer@FD@@QEAAAEAV01@AEBV01@@Z 00000001800bfac0 f i uibutton.obj
 0002:00010b60       ??4ivec3@FD@@QEAAAEAV01@$$QEAV01@@Z 00000001800bfb60 f i uibutton.obj
 0002:00010c00       ??4ivec3@FD@@QEAAAEAV01@AEBV01@@Z 00000001800bfc00 f i uibutton.obj
 0002:00010c70       ??4ivec4@FD@@QEAAAEAV01@$$QEAV01@@Z 00000001800bfc70 f i uibutton.obj
 0002:00010d20       ??4ivec4@FD@@QEAAAEAV01@AEBV01@@Z 00000001800bfd20 f i uibutton.obj
 0002:00010d90       ??4mat3@FD@@QEAAAEAV01@$$QEAV01@@Z 00000001800bfd90 f i uibutton.obj
 0002:00010e30       ??4mat3@FD@@QEAAAEAV01@AEBV01@@Z 00000001800bfe30 f i uibutton.obj
 0002:00010ea0       ??4mat4@FD@@QEAAAEAV01@$$QEAV01@@Z 00000001800bfea0 f i uibutton.obj
 0002:00010f40       ??4mat4@FD@@QEAAAEAV01@AEBV01@@Z 00000001800bff40 f i uibutton.obj
 0002:00010fb0       ??4vec3@FD@@QEAAAEAV01@$$QEAV01@@Z 00000001800bffb0 f i uibutton.obj
 0002:00011060       ??4vec3@FD@@QEAAAEAV01@AEBV01@@Z 00000001800c0060 f i uibutton.obj
 0002:000110d0       ??4vec4@FD@@QEAAAEAV01@$$QEAV01@@Z 00000001800c00d0 f i uibutton.obj
 0002:000111a0       ??4vec4@FD@@QEAAAEAV01@AEBV01@@Z 00000001800c01a0 f i uibutton.obj
 0002:00011210       ??AUIHandler@FD@@QEBAPEAVUIItem@1@_K@Z 00000001800c0210 f i uibutton.obj
 0002:00011280       ??DFD@@YA?AVvec2@0@AEBV10@M@Z 00000001800c0280 f i uibutton.obj
 0002:00011320       ??Givec3@FD@@QEAA?AV01@XZ  00000001800c0320 f i uibutton.obj
 0002:000113c0       ??Givec4@FD@@QEAA?AV01@XZ  00000001800c03c0 f i uibutton.obj
 0002:00011480       ??Gvec3@FD@@QEAA?AV01@XZ   00000001800c0480 f i uibutton.obj
 0002:00011550       ??Gvec4@FD@@QEAA?AV01@XZ   00000001800c0550 f i uibutton.obj
 0002:00011630       ??HFD@@YA?AVvec2@0@AEBV10@0@Z 00000001800c0630 f i uibutton.obj
 0002:000116d0       ??Xivec3@FD@@QEAAXAEBV01@@Z 00000001800c06d0 f i uibutton.obj
 0002:00011730       ??Xivec3@FD@@QEAAXH@Z      00000001800c0730 f i uibutton.obj
 0002:00011790       ??Xivec4@FD@@QEAAXAEBV01@@Z 00000001800c0790 f i uibutton.obj
 0002:000117f0       ??Xivec4@FD@@QEAAXH@Z      00000001800c07f0 f i uibutton.obj
 0002:00011850       ??Xvec3@FD@@QEAAXAEBV01@@Z 00000001800c0850 f i uibutton.obj
 0002:000118b0       ??Xvec3@FD@@QEAAXM@Z       00000001800c08b0 f i uibutton.obj
 0002:00011920       ??Xvec4@FD@@QEAAXAEBV01@@Z 00000001800c0920 f i uibutton.obj
 0002:00011980       ??Xvec4@FD@@QEAAXM@Z       00000001800c0980 f i uibutton.obj
 0002:000119f0       ??Yivec3@FD@@QEAAXAEBV01@@Z 00000001800c09f0 f i uibutton.obj
 0002:00011a50       ??Yivec3@FD@@QEAAXH@Z      00000001800c0a50 f i uibutton.obj
 0002:00011ab0       ??Yivec4@FD@@QEAAXAEBV01@@Z 00000001800c0ab0 f i uibutton.obj
 0002:00011b10       ??Yivec4@FD@@QEAAXH@Z      00000001800c0b10 f i uibutton.obj
 0002:00011b70       ??Yvec3@FD@@QEAAXAEBV01@@Z 00000001800c0b70 f i uibutton.obj
 0002:00011bd0       ??Yvec3@FD@@QEAAXM@Z       00000001800c0bd0 f i uibutton.obj
 0002:00011c40       ??Yvec4@FD@@QEAAXAEBV01@@Z 00000001800c0c40 f i uibutton.obj
 0002:00011ca0       ??Yvec4@FD@@QEAAXM@Z       00000001800c0ca0 f i uibutton.obj
 0002:00011d10       ??Zivec3@FD@@QEAAXAEBV01@@Z 00000001800c0d10 f i uibutton.obj
 0002:00011d70       ??Zivec3@FD@@QEAAXH@Z      00000001800c0d70 f i uibutton.obj
 0002:00011dd0       ??Zivec4@FD@@QEAAXAEBV01@@Z 00000001800c0dd0 f i uibutton.obj
 0002:00011e30       ??Zivec4@FD@@QEAAXH@Z      00000001800c0e30 f i uibutton.obj
 0002:00011e90       ??Zvec3@FD@@QEAAXAEBV01@@Z 00000001800c0e90 f i uibutton.obj
 0002:00011ef0       ??Zvec3@FD@@QEAAXM@Z       00000001800c0ef0 f i uibutton.obj
 0002:00011f60       ??Zvec4@FD@@QEAAXAEBV01@@Z 00000001800c0f60 f i uibutton.obj
 0002:00011fc0       ??Zvec4@FD@@QEAAXM@Z       00000001800c0fc0 f i uibutton.obj
 0002:00012030       ??_0ivec3@FD@@QEAAXAEBV01@@Z 00000001800c1030 f i uibutton.obj
 0002:00012090       ??_0ivec3@FD@@QEAAXH@Z     00000001800c1090 f i uibutton.obj
 0002:000120f0       ??_0ivec4@FD@@QEAAXAEBV01@@Z 00000001800c10f0 f i uibutton.obj
 0002:00012150       ??_0ivec4@FD@@QEAAXH@Z     00000001800c1150 f i uibutton.obj
 0002:000121b0       ??_0vec3@FD@@QEAAXAEBV01@@Z 00000001800c11b0 f i uibutton.obj
 0002:00012210       ??_0vec3@FD@@QEAAXM@Z      00000001800c1210 f i uibutton.obj
 0002:00012280       ??_0vec4@FD@@QEAAXAEBV01@@Z 00000001800c1280 f i uibutton.obj
 0002:000122e0       ??_0vec4@FD@@QEAAXM@Z      00000001800c12e0 f i uibutton.obj
 0002:00012350       ??_EBatchRenderer@FD@@UEAAPEAXI@Z 00000001800c1350 f i uibutton.obj
 0002:00012480       ??_EBuffer@FD@@UEAAPEAXI@Z 00000001800c1480 f i uibutton.obj
 0002:000125a0       ??_EBufferLayoutAttrib@BufferLayout@FD@@QEAAPEAXI@Z 00000001800c15a0 f i uibutton.obj
 0002:000126c0       ??_EEntity@FD@@UEAAPEAXI@Z 00000001800c16c0 f i uibutton.obj
 0002:000127e0       ??_EFontRenderer@FD@@UEAAPEAXI@Z 00000001800c17e0 f i uibutton.obj
 0002:00012910       ??_EIndexBuffer@FD@@UEAAPEAXI@Z 00000001800c1910 f i uibutton.obj
 0002:00012a30       ??_EMaterial@FD@@UEAAPEAXI@Z 00000001800c1a30 f i uibutton.obj
 0002:00012b60       ??_EMaterialInstance@FD@@UEAAPEAXI@Z 00000001800c1b60 f i uibutton.obj
 0002:00012c90       ??_ERenderer@FD@@UEAAPEAXI@Z 00000001800c1c90 f i uibutton.obj
 0002:00012db0       ??_ETexture2D@FD@@UEAAPEAXI@Z 00000001800c1db0 f i uibutton.obj
 0002:00012ed0       ??_ETexture@FD@@UEAAPEAXI@Z 00000001800c1ed0 f i uibutton.obj
 0002:00012ff0       ??_EUIButton@FD@@UEAAPEAXI@Z 00000001800c1ff0 f i uibutton.obj
 0002:00013120       ??_EUIItem@FD@@UEAAPEAXI@Z 00000001800c2120 f i uibutton.obj
 0002:00013250       ??_EUIText@FD@@UEAAPEAXI@Z 00000001800c2250 f i uibutton.obj
 0002:00013370       ??_EUITextAutoResize@FD@@UEAAPEAXI@Z 00000001800c2370 f i uibutton.obj
 0002:000134a0       ??_EUITextHorizontalScroll@FD@@UEAAPEAXI@Z 00000001800c24a0 f i uibutton.obj
 0002:000135d0       ??_EVertexBuffer@FD@@UEAAPEAXI@Z 00000001800c25d0 f i uibutton.obj
 0002:000136f0       ??_GBatchRenderer@FD@@UEAAPEAXI@Z 00000001800c26f0 f i uibutton.obj
 0002:00013780       ??_GBuffer@FD@@UEAAPEAXI@Z 00000001800c2780 f i uibutton.obj
 0002:00013810       ??_GEntity@FD@@UEAAPEAXI@Z 00000001800c2810 f i uibutton.obj
 0002:000138a0       ??_GFontRenderer@FD@@UEAAPEAXI@Z 00000001800c28a0 f i uibutton.obj
 0002:00013930       ??_GIndexBuffer@FD@@UEAAPEAXI@Z 00000001800c2930 f i uibutton.obj
 0002:000139c0       ??_GMaterial@FD@@UEAAPEAXI@Z 00000001800c29c0 f i uibutton.obj
 0002:00013a50       ??_GMaterialInstance@FD@@UEAAPEAXI@Z 00000001800c2a50 f i uibutton.obj
 0002:00013ae0       ??_GRenderer@FD@@UEAAPEAXI@Z 00000001800c2ae0 f i uibutton.obj
 0002:00013b70       ??_GTexture2D@FD@@UEAAPEAXI@Z 00000001800c2b70 f i uibutton.obj
 0002:00013c00       ??_GTexture@FD@@UEAAPEAXI@Z 00000001800c2c00 f i uibutton.obj
 0002:00013c90       ??_GUIButton@FD@@UEAAPEAXI@Z 00000001800c2c90 f i uibutton.obj
 0002:00013d20       ??_GUIItem@FD@@UEAAPEAXI@Z 00000001800c2d20 f i uibutton.obj
 0002:00013db0       ??_GUIText@FD@@UEAAPEAXI@Z 00000001800c2db0 f i uibutton.obj
 0002:00013e40       ??_GUITextAutoResize@FD@@UEAAPEAXI@Z 00000001800c2e40 f i uibutton.obj
 0002:00013ed0       ??_GUITextHorizontalScroll@FD@@UEAAPEAXI@Z 00000001800c2ed0 f i uibutton.obj
 0002:00013f60       ??_GVertexBuffer@FD@@UEAAPEAXI@Z 00000001800c2f60 f i uibutton.obj
 0002:00013ff0       ??_H@YAXPEAX_K1P6APEAX0@Z@Z 00000001800c2ff0 f i uibutton.obj
 0002:000140e0       ?Add@LightStack@FD@@QEAAXPEAVLight@2@@Z 00000001800c30e0 f i uibutton.obj
 0002:00014150       ?AddText@UIItem@FD@@QEAAXPEAVUIText@2@@Z 00000001800c3150 f i uibutton.obj
 0002:000141c0       ?Find@?$List@I@FD@@QEBA_KI@Z 00000001800c31c0 f i uibutton.obj
 0002:00014270       ?Free@?$List@PEAVLight@FD@@@FD@@QEAAX_N@Z 00000001800c3270 f i uibutton.obj
 0002:00014390       ?Get@?$List@PEAVUIItem@FD@@@FD@@QEBAPEAVUIItem@2@_K@Z 00000001800c3390 f i uibutton.obj
 0002:000143f0       ?Get@?$List@UFD_GLYPH@Font@FD@@@FD@@QEBA?AUFD_GLYPH@Font@2@_K@Z 00000001800c33f0 f i uibutton.obj
 0002:00014480       ?GetAbsolutePosition@UIItem@FD@@QEBA?AVvec2@2@XZ 00000001800c3480 f i uibutton.obj
 0002:00014560       ?GetAdjustSize@UITextAutoResize@FD@@QEBA?AVvec2@2@XZ 00000001800c3560 f i uibutton.obj
 0002:000145d0       ?GetAttenuation@PointLight@FD@@QEAAAEAVvec3@2@XZ 00000001800c35d0 f i uibutton.obj
 0002:00014620       ?GetBuffer@Buffer@FD@@QEBAPEAUID3D11Buffer@@XZ 00000001800c3620 f i uibutton.obj
 0002:00014670       ?GetColor@Light@FD@@QEAAAEAVvec3@2@XZ 00000001800c3670 f i uibutton.obj
 0002:000146c0       ?GetColor@UIItem@FD@@QEBA?AVvec4@2@XZ 00000001800c36c0 f i uibutton.obj
 0002:00014730       ?GetColor@UIText@FD@@QEBA?AVvec4@2@XZ 00000001800c3730 f i uibutton.obj
 0002:000147a0       ?GetCommandQueue@Renderer@FD@@QEBA?AV?$List@URenderCommand@FD@@@2@XZ 00000001800c37a0 f i uibutton.obj
 0002:00014830       ?GetCount@IndexBuffer@FD@@QEBAIXZ 00000001800c3830 f i uibutton.obj
 0002:00014880       ?GetCursorLocation@UITextHorizontalScroll@FD@@QEBAIXZ 00000001800c3880 f i uibutton.obj
 0002:000148d0       ?GetCutoff@SpotLight@FD@@QEAAAEAMXZ 00000001800c38d0 f i uibutton.obj
 0002:00014920       ?GetCutoffExponent@SpotLight@FD@@QEAAAEAVvec2@2@XZ 00000001800c3920 f i uibutton.obj
 0002:00014970       ?GetData@mat3@FD@@QEBAPEBMXZ 00000001800c3970 f i uibutton.obj
 0002:000149c0       ?GetData@mat4@FD@@QEBAPEBMXZ 00000001800c39c0 f i uibutton.obj
 0002:00014a10       ?GetDefaultFont@Font@FD@@SAPEAV12@XZ 00000001800c3a10 f i uibutton.obj
 0002:00014a50       ?GetDirection@DirectionalLight@FD@@QEAAAEAVvec3@2@XZ 00000001800c3a50 f i uibutton.obj
 0002:00014aa0       ?GetDirection@SpotLight@FD@@QEAAAEAVvec3@2@XZ 00000001800c3aa0 f i uibutton.obj
 0002:00014af0       ?GetExponent@SpotLight@FD@@QEAAAEAMXZ 00000001800c3af0 f i uibutton.obj
 0002:00014b40       ?GetFont@UIText@FD@@QEBAPEAVFont@2@XZ 00000001800c3b40 f i uibutton.obj
 0002:00014b90       ?GetForward@Camera@FD@@QEAA?AVvec3@2@XZ 00000001800c3b90 f i uibutton.obj
 0002:00014cb0       ?GetGlyph@Font@FD@@QEBA?AUFD_GLYPH@12@I@Z 00000001800c3cb0 f i uibutton.obj
 0002:00014d30       ?GetHandler@UIItem@FD@@QEBAPEAVUIHandler@2@XZ 00000001800c3d30 f i uibutton.obj
 0002:00014d80       ?GetHeight@Texture@FD@@QEBAIXZ 00000001800c3d80 f i uibutton.obj
 0002:00014dd0       ?GetIndexBuffer@Mesh@FD@@QEAAPEAVIndexBuffer@2@XZ 00000001800c3dd0 f i uibutton.obj
 0002:00014e20       ?GetInputLayout@Shader@FD@@QEAAPEAUID3D11InputLayout@@XZ 00000001800c3e20 f i uibutton.obj
 0002:00014e70       ?GetItems@UIHandler@FD@@QEBAAEBV?$List@PEAVUIItem@FD@@@2@XZ 00000001800c3e70 f i uibutton.obj
 0002:00014ec0       ?GetLightType@Light@FD@@QEBAIXZ 00000001800c3ec0 f i uibutton.obj
 0002:00014f10       ?GetLights@LightStack@FD@@QEBA?AV?$List@PEAVLight@FD@@@2@XZ 00000001800c3f10 f i uibutton.obj
 0002:00014fa0       ?GetMaterial@MaterialInstance@FD@@QEAAPEAVMaterial@2@XZ 00000001800c3fa0 f i uibutton.obj
 0002:00014ff0       ?GetMaterial@Mesh@FD@@QEAAPEAVMaterialInstance@2@XZ 00000001800c3ff0 f i uibutton.obj
 0002:00015040       ?GetMaxSimultaneousTextures@BatchRenderer@FD@@QEBAIXZ 00000001800c4040 f i uibutton.obj
 0002:00015090       ?GetMesh@Entity@FD@@QEBAPEAVMesh@2@XZ 00000001800c4090 f i uibutton.obj
 0002:000150e0       ?GetName@Font@FD@@QEBAAEBVString@2@XZ 00000001800c40e0 f i uibutton.obj
 0002:00015130       ?GetName@UIItem@FD@@QEBAAEBVString@2@XZ 00000001800c4130 f i uibutton.obj
 0002:00015180       ?GetName@UIText@FD@@QEBAAEBVString@2@XZ 00000001800c4180 f i uibutton.obj
 0002:000151d0       ?GetOffset@UIText@FD@@QEBA?AVvec2@2@XZ 00000001800c41d0 f i uibutton.obj
 0002:00015240       ?GetPCBuffer@Material@FD@@QEBA?AUConstantBufferSlot@Shader@2@XZ 00000001800c4240 f i uibutton.obj
 0002:000152d0       ?GetPCBuffer@MaterialInstance@FD@@QEBA?AUConstantBufferSlot@Shader@2@XZ 00000001800c42d0 f i uibutton.obj
 0002:00015360       ?GetParent@UIItem@FD@@QEBAPEAV12@XZ 00000001800c4360 f i uibutton.obj
 0002:000153b0       ?GetParent@UIText@FD@@QEBAPEAVUIItem@2@XZ 00000001800c43b0 f i uibutton.obj
 0002:00015400       ?GetPosition@Camera@FD@@QEBA?AVvec3@2@XZ 00000001800c4400 f i uibutton.obj
 0002:00015470       ?GetPosition@Entity@FD@@QEAAAEAVvec3@2@XZ 00000001800c4470 f i uibutton.obj
 0002:000154c0       ?GetPosition@PointLight@FD@@QEAAAEAVvec3@2@XZ 00000001800c44c0 f i uibutton.obj
 0002:00015510       ?GetPosition@UIItem@FD@@QEBA?AVvec2@2@XZ 00000001800c4510 f i uibutton.obj
 0002:00015580       ?GetPosition@UIText@FD@@QEBA?AVvec2@2@XZ 00000001800c4580 f i uibutton.obj
 0002:000155f0       ?GetProjectionMatrix@Camera@FD@@QEBAAEBVmat4@2@XZ 00000001800c45f0 f i uibutton.obj
 0002:00015640       ?GetResourceView@Texture@FD@@QEBAPEAUID3D11ShaderResourceView@@XZ 00000001800c4640 f i uibutton.obj
 0002:00015690       ?GetRotation@Camera@FD@@QEBA?AVvec3@2@XZ 00000001800c4690 f i uibutton.obj
 0002:00015700       ?GetRotation@Entity@FD@@QEAAAEAVvec3@2@XZ 00000001800c4700 f i uibutton.obj
 0002:00015750       ?GetScale@Entity@FD@@QEAAAEAVvec3@2@XZ 00000001800c4750 f i uibutton.obj
 0002:000157a0       ?GetScale@UIText@FD@@QEBA?AVvec2@2@XZ 00000001800c47a0 f i uibutton.obj
 0002:00015810       ?GetShader@Material@FD@@QEAAPEAVShader@2@XZ 00000001800c4810 f i uibutton.obj
 0002:00015860       ?GetShader@MaterialInstance@FD@@QEAAPEAVShader@2@XZ 00000001800c4860 f i uibutton.obj
 0002:000158b0       ?GetSize@?$List@PEAVUIItem@FD@@@FD@@QEBA?B_KXZ 00000001800c48b0 f i uibutton.obj
 0002:00015900       ?GetSize@Buffer@FD@@QEBA_KXZ 00000001800c4900 f i uibutton.obj
 0002:00015950       ?GetSize@BufferLayout@FD@@QEBAIXZ 00000001800c4950 f i uibutton.obj
 0002:000159a0       ?GetSize@Font@FD@@QEBAIXZ  00000001800c49a0 f i uibutton.obj
 0002:000159f0       ?GetSize@UIHandler@FD@@QEBA_KXZ 00000001800c49f0 f i uibutton.obj
 0002:00015a50       ?GetSize@UIItem@FD@@QEBA?AVvec2@2@XZ 00000001800c4a50 f i uibutton.obj
 0002:00015ac0       ?GetSizeInBytes@?$List@PEAVLight@FD@@@FD@@QEBA?B_KXZ 00000001800c4ac0 f i uibutton.obj
 0002:00015b20       ?GetSizeInBytes@?$List@PEAVUIText@FD@@@FD@@QEBA?B_KXZ 00000001800c4b20 f i uibutton.obj
 0002:00015b80       ?GetSizeInBytes@?$List@UBufferLayoutAttrib@BufferLayout@FD@@@FD@@QEBA?B_KXZ 00000001800c4b80 f i uibutton.obj
 0002:00015bd0       ?GetText@UIText@FD@@QEBAAEBVString@2@XZ 00000001800c4bd0 f i uibutton.obj
 0002:00015c20       ?GetTextAlignment@UIText@FD@@QEBA?AW4FD_TEXT_ALIGNMENT@2@XZ 00000001800c4c20 f i uibutton.obj
 0002:00015c70       ?GetTexts@UIItem@FD@@QEAAAEAV?$List@PEAVUIText@FD@@@2@XZ 00000001800c4c70 f i uibutton.obj
 0002:00015cc0       ?GetTexture@Font@FD@@QEBAPEAVTexture2D@2@XZ 00000001800c4cc0 f i uibutton.obj
 0002:00015d10       ?GetTexture@UIItem@FD@@QEBAPEAVTexture2D@2@XZ 00000001800c4d10 f i uibutton.obj
 0002:00015d60       ?GetTextures@Material@FD@@QEBAAEBV?$Map@IPEAVTexture@FD@@@2@XZ 00000001800c4d60 f i uibutton.obj
 0002:00015db0       ?GetTextures@MaterialInstance@FD@@QEBAAEBV?$Map@IPEAVTexture@FD@@@2@XZ 00000001800c4db0 f i uibutton.obj
 0002:00015e00       ?GetTransform@Entity@FD@@QEBA?AVmat4@2@XZ 00000001800c4e00 f i uibutton.obj
 0002:00015f10       ?GetVCBuffer@Material@FD@@QEBA?AUConstantBufferSlot@Shader@2@XZ 00000001800c4f10 f i uibutton.obj
 0002:00015fa0       ?GetVCBuffer@MaterialInstance@FD@@QEBA?AUConstantBufferSlot@Shader@2@XZ 00000001800c4fa0 f i uibutton.obj
 0002:00016030       ?GetVSBufferPointer@Shader@FD@@QEBAPEBXXZ 00000001800c5030 f i uibutton.obj
 0002:000160a0       ?GetVSBufferSize@Shader@FD@@QEBA_KXZ 00000001800c50a0 f i uibutton.obj
 0002:00016110       ?GetVertexBuffer@Mesh@FD@@QEAAPEAVVertexBuffer@2@XZ 00000001800c5110 f i uibutton.obj
 0002:00016160       ?GetViewMatrix@Camera@FD@@QEAA?AVmat4@2@XZ 00000001800c5160 f i uibutton.obj
 0002:000161d0       ?GetWidth@Texture@FD@@QEBAIXZ 00000001800c51d0 f i uibutton.obj
 0002:00016220       ?GetWindow@Renderer@FD@@QEBAPEAVWindow@2@XZ 00000001800c5220 f i uibutton.obj
 0002:00016270       ?Identity@mat3@FD@@SA?AV12@XZ 00000001800c5270 f i uibutton.obj
 0002:000162e0       ?Identity@mat4@FD@@SA?AV12@XZ 00000001800c52e0 f i uibutton.obj
 0002:00016350       ?IsInteractable@UIItem@FD@@QEBA_NXZ 00000001800c5350 f i uibutton.obj
 0002:000163a0       ?IsMouseOnTop@UIItem@FD@@QEBA_NXZ 00000001800c53a0 f i uibutton.obj
 0002:000163f0       ?IsPressed@UIItem@FD@@QEBA_NXZ 00000001800c53f0 f i uibutton.obj
 0002:00016440       ?IsVisible@UIItem@FD@@QEBA_NXZ 00000001800c5440 f i uibutton.obj
 0002:00016490       ?OnAdd@UIButton@FD@@UEAAXXZ 00000001800c5490 f   uibutton.obj
 0002:000164d0       ?OnAdd@UIItem@FD@@UEAAXXZ  00000001800c54d0 f i uibutton.obj
 0002:00016510       ?OnClick@UIItem@FD@@UEAAXXZ 00000001800c5510 f i uibutton.obj
 0002:00016550       ?OnDrag@UIItem@FD@@UEAAXVvec2@2@@Z 00000001800c5550 f i uibutton.obj
 0002:000165a0       ?OnEntered@UIButton@FD@@UEAAXXZ 00000001800c55a0 f   uibutton.obj
 0002:00016620       ?OnEntered@UIItem@FD@@UEAAXXZ 00000001800c5620 f i uibutton.obj
 0002:00016660       ?OnHover@UIItem@FD@@UEAAXXZ 00000001800c5660 f i uibutton.obj
 0002:000166a0       ?OnKey@UIItem@FD@@UEAAXI@Z 00000001800c56a0 f i uibutton.obj
 0002:000166f0       ?OnLeft@UIButton@FD@@UEAAXXZ 00000001800c56f0 f   uibutton.obj
 0002:00016770       ?OnLeft@UIItem@FD@@UEAAXXZ 00000001800c5770 f i uibutton.obj
 0002:000167b0       ?OnPressed@UIButton@FD@@UEAAXVvec2@2@@Z 00000001800c57b0 f   uibutton.obj
 0002:00016880       ?OnPressed@UIItem@FD@@UEAAXVvec2@2@@Z 00000001800c5880 f i uibutton.obj
 0002:000168d0       ?OnReleased@UIButton@FD@@UEAAXXZ 00000001800c58d0 f   uibutton.obj
 0002:00016950       ?OnReleased@UIItem@FD@@UEAAXXZ 00000001800c5950 f i uibutton.obj
 0002:00016990       ?Push_back@?$List@PEAVLight@FD@@@FD@@QEAAXPEAVLight@2@@Z 00000001800c5990 f i uibutton.obj
 0002:00016a70       ?Push_back@?$List@PEAVUIText@FD@@@FD@@QEAAXPEAVUIText@2@@Z 00000001800c5a70 f i uibutton.obj
 0002:00016b50       ?Remove@?$List@PEAVLight@FD@@@FD@@QEAAPEAVLight@2@PEAV32@@Z 00000001800c5b50 f i uibutton.obj
 0002:00016c10       ?Remove@LightStack@FD@@QEAAXPEAVLight@2@@Z 00000001800c5c10 f i uibutton.obj
 0002:00016c80       ?RemoveIndex@?$List@PEAVLight@FD@@@FD@@QEAAPEAVLight@2@_K@Z 00000001800c5c80 f i uibutton.obj
 0002:00016d90       ?Reserve@?$List@PEAVLight@FD@@@FD@@QEAAX_K@Z 00000001800c5d90 f i uibutton.obj
 0002:00016ee0       ?Reserve@?$List@PEAVUIText@FD@@@FD@@QEAAX_K@Z 00000001800c5ee0 f i uibutton.obj
 0002:00017030       ?Reserve@?$List@UBufferLayoutAttrib@BufferLayout@FD@@@FD@@QEAAX_K@Z 00000001800c6030 f i uibutton.obj
 0002:00017260       ?Retrieve@?$Map@IUFD_GLYPH@Font@FD@@@FD@@QEBA?AUFD_GLYPH@Font@2@I@Z 00000001800c6260 f i uibutton.obj
 0002:00017340       ?SetColor@UIItem@FD@@QEAAXVvec4@2@@Z 00000001800c6340 f i uibutton.obj
 0002:000173b0       ?SetColor@UIText@FD@@QEAAXAEBVvec4@2@@Z 00000001800c63b0 f i uibutton.obj
 0002:00017420       ?SetCursorLocation@UITextHorizontalScroll@FD@@QEAAXI@Z 00000001800c6420 f i uibutton.obj
 0002:00017480       ?SetDefaultFont@Font@FD@@SAXPEAV12@@Z 00000001800c6480 f i uibutton.obj
 0002:000174d0       ?SetFont@UIText@FD@@QEAAXPEAVFont@2@@Z 00000001800c64d0 f i uibutton.obj
 0002:00017530       ?SetHandler@UIItem@FD@@QEAAXPEAVUIHandler@2@@Z 00000001800c6530 f i uibutton.obj
 0002:00017590       ?SetInputLayout@Shader@FD@@QEAAXPEAUID3D11InputLayout@@@Z 00000001800c6590 f i uibutton.obj
 0002:00017650       ?SetInteractable@UIItem@FD@@QEAAX_N@Z 00000001800c6650 f i uibutton.obj
 0002:000176b0       ?SetMaxSimultaneousTextures@BatchRenderer@FD@@QEAAXI@Z 00000001800c66b0 f i uibutton.obj
 0002:00017710       ?SetMouseOnTop@UIItem@FD@@QEAAX_N@Z 00000001800c6710 f i uibutton.obj
 0002:00017770       ?SetName@UIItem@FD@@QEAAXAEBVString@2@@Z 00000001800c6770 f i uibutton.obj
 0002:000177e0       ?SetName@UIText@FD@@QEAAXAEBVString@2@@Z 00000001800c67e0 f i uibutton.obj
 0002:00017850       ?SetOffset@UIText@FD@@QEAAXAEBVvec2@2@@Z 00000001800c6850 f i uibutton.obj
 0002:000178b0       ?SetParent@UIItem@FD@@QEAAXPEAV12@@Z 00000001800c68b0 f i uibutton.obj
 0002:00017910       ?SetParent@UIText@FD@@QEAAXPEAVUIItem@2@@Z 00000001800c6910 f i uibutton.obj
 0002:00017970       ?SetPosition@Camera@FD@@QEAAXAEBVvec3@2@@Z 00000001800c6970 f i uibutton.obj
 0002:000179f0       ?SetPosition@UIItem@FD@@QEAAXVvec2@2@@Z 00000001800c69f0 f i uibutton.obj
 0002:00017a50       ?SetPosition@UIText@FD@@QEAAXAEBVvec2@2@@Z 00000001800c6a50 f i uibutton.obj
 0002:00017ab0       ?SetPressed@UIItem@FD@@QEAAX_N@Z 00000001800c6ab0 f i uibutton.obj
 0002:00017b10       ?SetProjection@Camera@FD@@QEAAXAEBVmat4@2@@Z 00000001800c6b10 f i uibutton.obj
 0002:00017b80       ?SetRotation@Camera@FD@@QEAAXAEBVvec3@2@@Z 00000001800c6b80 f i uibutton.obj
 0002:00017c00       ?SetScale@UIText@FD@@QEAAXAEBVvec2@2@@Z 00000001800c6c00 f i uibutton.obj
 0002:00017c60       ?SetSize@UIItem@FD@@QEAAXVvec2@2@@Z 00000001800c6c60 f i uibutton.obj
 0002:00017cc0       ?SetText@UIText@FD@@UEAAXAEBVString@2@@Z 00000001800c6cc0 f i uibutton.obj
 0002:00017d30       ?SetTextAlignment@UIText@FD@@UEAAXW4FD_TEXT_ALIGNMENT@2@@Z 00000001800c6d30 f i uibutton.obj
 0002:00017d90       ?SetTexture@UIItem@FD@@QEAAXPEAVTexture2D@2@@Z 00000001800c6d90 f i uibutton.obj
 0002:00017df0       ?SetVisible@UIItem@FD@@QEAAX_N@Z 00000001800c6df0 f i uibutton.obj
 0002:00017e50       ?Submit@BatchRenderer@FD@@UEAAXAEBVLightStack@2@@Z 00000001800c6e50 f i uibutton.obj
 0002:00017ea0       ?Submit@FontRenderer@FD@@UEAAXPEAVEntity@2@@Z 00000001800c6ea0 f i uibutton.obj
 0002:00017ef0       ?SubmitText@FontRenderer@FD@@QEAAXAEBVString@2@PEAVFont@2@Vvec2@2@Vvec4@2@2W4FD_TEXT_ALIGNMENT@2@@Z 00000001800c6ef0 f i uibutton.obj
 0002:000180c0       ?Update@Entity@FD@@UEAAXXZ 00000001800c70c0 f i uibutton.obj
 0002:00018100       ?Update@UIItem@FD@@UEAAXXZ 00000001800c7100 f i uibutton.obj
 0002:00018140       ?__autoclassinit2@BatchRenderer@FD@@QEAAX_K@Z 00000001800c7140 f i uibutton.obj
 0002:000181a0       ?__autoclassinit2@Buffer@FD@@QEAAX_K@Z 00000001800c71a0 f i uibutton.obj
 0002:00018200       ?__autoclassinit2@BufferLayout@FD@@QEAAX_K@Z 00000001800c7200 f i uibutton.obj
 0002:00018260       ?__autoclassinit2@Entity@FD@@QEAAX_K@Z 00000001800c7260 f i uibutton.obj
 0002:000182c0       ?__autoclassinit2@Font@FD@@QEAAX_K@Z 00000001800c72c0 f i uibutton.obj
 0002:00018320       ?__autoclassinit2@FontRenderer@FD@@QEAAX_K@Z 00000001800c7320 f i uibutton.obj
 0002:00018380       ?__autoclassinit2@IndexBuffer@FD@@QEAAX_K@Z 00000001800c7380 f i uibutton.obj
 0002:000183e0       ?__autoclassinit2@LightStack@FD@@QEAAX_K@Z 00000001800c73e0 f i uibutton.obj
 0002:00018440       ?__autoclassinit2@Material@FD@@QEAAX_K@Z 00000001800c7440 f i uibutton.obj
 0002:000184a0       ?__autoclassinit2@MaterialInstance@FD@@QEAAX_K@Z 00000001800c74a0 f i uibutton.obj
 0002:00018500       ?__autoclassinit2@Mesh@FD@@QEAAX_K@Z 00000001800c7500 f i uibutton.obj
 0002:00018560       ?__autoclassinit2@Renderer@FD@@QEAAX_K@Z 00000001800c7560 f i uibutton.obj
 0002:000185c0       ?__autoclassinit2@Shader@FD@@QEAAX_K@Z 00000001800c75c0 f i uibutton.obj
 0002:00018620       ?__autoclassinit2@Texture2D@FD@@QEAAX_K@Z 00000001800c7620 f i uibutton.obj
 0002:00018680       ?__autoclassinit2@Texture@FD@@QEAAX_K@Z 00000001800c7680 f i uibutton.obj
 0002:000186e0       ?__autoclassinit2@UIButton@FD@@QEAAX_K@Z 00000001800c76e0 f i uibutton.obj
 0002:00018740       ?__autoclassinit2@UIHandler@FD@@QEAAX_K@Z 00000001800c7740 f i uibutton.obj
 0002:000187a0       ?__autoclassinit2@UIItem@FD@@QEAAX_K@Z 00000001800c77a0 f i uibutton.obj
 0002:00018800       ?__autoclassinit2@UIText@FD@@QEAAX_K@Z 00000001800c7800 f i uibutton.obj
 0002:00018860       ?__autoclassinit2@UITextAutoResize@FD@@QEAAX_K@Z 00000001800c7860 f i uibutton.obj
 0002:000188c0       ?__autoclassinit2@UITextHorizontalScroll@FD@@QEAAX_K@Z 00000001800c78c0 f i uibutton.obj
 0002:00018920       ?__autoclassinit2@VertexBuffer@FD@@QEAAX_K@Z 00000001800c7920 f i uibutton.obj
 0002:00018980       ??0UIGroup@FD@@QEAA@$$QEAV01@@Z 00000001800c7980 f i uigroup.obj
 0002:00018a00       ??0UIGroup@FD@@QEAA@AEBV01@@Z 00000001800c7a00 f i uigroup.obj
 0002:00018a80       ??0UIGroup@FD@@QEAA@AEBVString@1@Vvec2@1@@Z 00000001800c7a80 f   uigroup.obj
 0002:00018b60       ??1UIGroup@FD@@UEAA@XZ     00000001800c7b60 f i uigroup.obj
 0002:00018bb0       ??4UIGroup@FD@@QEAAAEAV01@$$QEAV01@@Z 00000001800c7bb0 f i uigroup.obj
 0002:00018c20       ??4UIGroup@FD@@QEAAAEAV01@AEBV01@@Z 00000001800c7c20 f i uigroup.obj
 0002:00018c90       ??_EUIGroup@FD@@UEAAPEAXI@Z 00000001800c7c90 f i uigroup.obj
 0002:00018dc0       ??_GUIGroup@FD@@UEAAPEAXI@Z 00000001800c7dc0 f i uigroup.obj
 0002:00018e50       ?Add@UIGroup@FD@@QEAAXPEAVUIItem@2@@Z 00000001800c7e50 f   uigroup.obj
 0002:00018f10       ?__autoclassinit2@UIGroup@FD@@QEAAX_K@Z 00000001800c7f10 f i uigroup.obj
 0002:00018f70       ??0?$List@PEAVUIItem@FD@@@FD@@QEAA@XZ 00000001800c7f70 f i uihandler.obj
 0002:00019010       ??0UIHandler@FD@@QEAA@XZ   00000001800c8010 f   uihandler.obj
 0002:000190c0       ??1?$List@PEAVUIItem@FD@@@FD@@QEAA@XZ 00000001800c80c0 f i uihandler.obj
 0002:00019130       ??1UIHandler@FD@@QEAA@XZ   00000001800c8130 f   uihandler.obj
 0002:000191b0       ??A?$List@PEAVUIItem@FD@@@FD@@QEAAAEAPEAVUIItem@1@_K@Z 00000001800c81b0 f i uihandler.obj
 0002:00019210       ??GFD@@YA?AVvec2@0@AEBV10@0@Z 00000001800c8210 f i uihandler.obj
 0002:000192b0       ?Add@UIHandler@FD@@QEAAXPEAVUIItem@2@@Z 00000001800c82b0 f   uihandler.obj
 0002:00019350       ?GetSizeInBytes@?$List@PEAVUIItem@FD@@@FD@@QEBA?B_KXZ 00000001800c8350 f i uihandler.obj
 0002:000193b0       ?OnKeyboardActionKeyPressed@UIHandler@FD@@UEAA_NI@Z 00000001800c83b0 f   uihandler.obj
 0002:00019440       ?OnMouseActionButtonPressed@UIHandler@FD@@UEAA_NI@Z 00000001800c8440 f   uihandler.obj
 0002:000195f0       ?OnMouseActionButtonReleased@UIHandler@FD@@UEAA_NI@Z 00000001800c85f0 f   uihandler.obj
 0002:000196f0       ?OnMouseActionMove@UIHandler@FD@@UEAA_NVivec2@2@@Z 00000001800c86f0 f   uihandler.obj
 0002:00019960       ?Push_back@?$List@PEAVUIItem@FD@@@FD@@QEAAXPEAVUIItem@2@@Z 00000001800c8960 f i uihandler.obj
 0002:00019a40       ?Reserve@?$List@PEAVUIItem@FD@@@FD@@QEAAX_K@Z 00000001800c8a40 f i uihandler.obj
 0002:00019b90       ?Update@UIHandler@FD@@QEAAXXZ 00000001800c8b90 f   uihandler.obj
 0002:00019db0       ??$Find@AEBVString@FD@@@?$List@PEAVUIText@FD@@@FD@@QEBA_KP6A_NPEAVUIText@1@AEBVString@1@@Z1@Z 00000001800c8db0 f i uiitem.obj
 0002:00019e70       ??$GetText@VUIText@FD@@@UIItem@FD@@QEAAPEAVUIText@1@AEBVString@1@@Z 00000001800c8e70 f i uiitem.obj
 0002:00019f50       ??$GetText@VUITextAutoResize@FD@@@UIItem@FD@@QEAAPEAVUITextAutoResize@1@AEBVString@1@@Z 00000001800c8f50 f i uiitem.obj
 0002:0001a030       ??$GetText@VUITextHorizontalScroll@FD@@@UIItem@FD@@QEAAPEAVUITextHorizontalScroll@1@AEBVString@1@@Z 00000001800c9030 f i uiitem.obj
 0002:0001a110       ??A?$List@PEAVUIText@FD@@@FD@@QEAAAEAPEAVUIText@1@_K@Z 00000001800c9110 f i uiitem.obj
 0002:0001a3b0       ?GetSize@?$List@PEAVUIText@FD@@@FD@@QEBA?B_KXZ 00000001800c93b0 f i uiitem.obj
 0002:0001a400       ?SetFont@UIItem@FD@@QEAAXPEAVFont@2@@Z 00000001800c9400 f   uiitem.obj
 0002:0001a4c0       ?SetFont@UIItem@FD@@QEAAXPEAVFont@2@AEBVString@2@@Z 00000001800c94c0 f   uiitem.obj
 0002:0001a550       ?SetFont@UIItem@FD@@QEAAXPEAVFont@2@_K@Z 00000001800c9550 f   uiitem.obj
 0002:0001a610       ??0UISlider@FD@@QEAA@$$QEAV01@@Z 00000001800c9610 f i uislider.obj
 0002:0001a720       ??0UISlider@FD@@QEAA@AEBV01@@Z 00000001800c9720 f i uislider.obj
 0002:0001a830       ??0UISlider@FD@@QEAA@AEBVString@1@Vvec2@1@1PEAVValueAction@1@@Z 00000001800c9830 f   uislider.obj
 0002:0001abb0       ??1UISlider@FD@@UEAA@XZ    00000001800c9bb0 f i uislider.obj
 0002:0001ac00       ??4UISlider@FD@@QEAAAEAV01@$$QEAV01@@Z 00000001800c9c00 f i uislider.obj
 0002:0001ad00       ??4UISlider@FD@@QEAAAEAV01@AEBV01@@Z 00000001800c9d00 f i uislider.obj
 0002:0001ae00       ??_EUISlider@FD@@UEAAPEAXI@Z 00000001800c9e00 f i uislider.obj
 0002:0001af30       ??_GUISlider@FD@@UEAAPEAXI@Z 00000001800c9f30 f i uislider.obj
 0002:0001afc0       ?OnAdd@UISlider@FD@@UEAAXXZ 00000001800c9fc0 f   uislider.obj
 0002:0001b030       ?OnDrag@UISlider@FD@@UEAAXVvec2@2@@Z 00000001800ca030 f   uislider.obj
 0002:0001b350       ?OnEntered@UISlider@FD@@UEAAXXZ 00000001800ca350 f   uislider.obj
 0002:0001b390       ?OnLeft@UISlider@FD@@UEAAXXZ 00000001800ca390 f   uislider.obj
 0002:0001b3f0       ?OnPressed@UISlider@FD@@UEAAXVvec2@2@@Z 00000001800ca3f0 f   uislider.obj
 0002:0001b560       ?OnReleased@UISlider@FD@@UEAAXXZ 00000001800ca560 f   uislider.obj
 0002:0001b5c0       ?__autoclassinit2@UISlider@FD@@QEAAX_K@Z 00000001800ca5c0 f i uislider.obj
 0002:0001b620       ?__autoclassinit2@UISlider_Handle@UISlider@FD@@QEAAX_K@Z 00000001800ca620 f i uislider.obj
 0002:0001b680       ??0UISlider_Handle@UISlider@FD@@QEAA@Vvec2@2@0@Z 00000001800ca680 f   uislider_handle.obj
 0002:0001b770       ??1UISlider_Handle@UISlider@FD@@UEAA@XZ 00000001800ca770 f i uislider_handle.obj
 0002:0001b7c0       ??_EUISlider_Handle@UISlider@FD@@UEAAPEAXI@Z 00000001800ca7c0 f i uislider_handle.obj
 0002:0001b7c0       ??_GUISlider_Handle@UISlider@FD@@UEAAPEAXI@Z 00000001800ca7c0 f i uislider_handle.obj
 0002:0001b850       ??0UITextBox@FD@@QEAA@$$QEAV01@@Z 00000001800ca850 f i uitextbox.obj
 0002:0001b8f0       ??0UITextBox@FD@@QEAA@AEBV01@@Z 00000001800ca8f0 f i uitextbox.obj
 0002:0001b990       ??0UITextBox@FD@@QEAA@AEBVString@1@Vvec2@1@1@Z 00000001800ca990 f   uitextbox.obj
 0002:0001bd60       ??1UITextBox@FD@@UEAA@XZ   00000001800cad60 f i uitextbox.obj
 0002:0001bdb0       ??4UITextBox@FD@@QEAAAEAV01@$$QEAV01@@Z 00000001800cadb0 f i uitextbox.obj
 0002:0001be40       ??4UITextBox@FD@@QEAAAEAV01@AEBV01@@Z 00000001800cae40 f i uitextbox.obj
 0002:0001bed0       ??_EUITextBox@FD@@UEAAPEAXI@Z 00000001800caed0 f i uitextbox.obj
 0002:0001c000       ??_GUITextBox@FD@@UEAAPEAXI@Z 00000001800cb000 f i uitextbox.obj
 0002:0001c090       ?GetTextContent@UITextBox@FD@@QEBAAEBVString@2@XZ 00000001800cb090 f i uitextbox.obj
 0002:0001c0f0       ?OnKey@UITextBox@FD@@UEAAXI@Z 00000001800cb0f0 f   uitextbox.obj
 0002:0001c160       ?SetText@UITextBox@FD@@QEAAXAEBVString@2@@Z 00000001800cb160 f i uitextbox.obj
 0002:0001c1e0       ?__autoclassinit2@UITextBox@FD@@QEAAX_K@Z 00000001800cb1e0 f i uitextbox.obj
 0002:0001c240       ??0UITextAutoResize@FD@@QEAA@AEBVString@1@Vvec2@1@1PEAVFont@1@0@Z 00000001800cb240 f   uitext_autoresize.obj
 0002:0001c3c0       ??KFD@@YA?AVvec2@0@AEBV10@0@Z 00000001800cb3c0 f i uitext_autoresize.obj
 0002:0001c460       ?RecalculateScale@UITextAutoResize@FD@@IEAAXW4FD_SCALE_MODE@12@@Z 00000001800cb460 f   uitext_autoresize.obj
 0002:0001c8c0       ?SetAdjustSize@UITextAutoResize@FD@@QEAAXAEBVvec2@2@@Z 00000001800cb8c0 f   uitext_autoresize.obj
 0002:0001c940       ?SetMargin@UITextAutoResize@FD@@QEAAXAEBVvec2@2@@Z 00000001800cb940 f   uitext_autoresize.obj
 0002:0001c9c0       ?SetText@UITextAutoResize@FD@@UEAAXAEBVString@2@@Z 00000001800cb9c0 f   uitext_autoresize.obj
 0002:0001ca40       ?SetTextAlignment@UITextAutoResize@FD@@UEAAXW4FD_TEXT_ALIGNMENT@2@@Z 00000001800cba40 f   uitext_autoresize.obj
 0002:0001cab0       ??0UITextHorizontalScroll@FD@@QEAA@AEBVString@1@Vvec2@1@1PEAVFont@1@@Z 00000001800cbab0 f   uitext_horizontal_scroll.obj
 0002:0001cbc0       ?Append@UITextHorizontalScroll@FD@@QEAAXAEBVString@2@@Z 00000001800cbbc0 f   uitext_horizontal_scroll.obj
 0002:0001cc40       ?Append@UITextHorizontalScroll@FD@@QEAAXD@Z 00000001800cbc40 f   uitext_horizontal_scroll.obj
 0002:0001ccc0       ?CalculateString@UITextHorizontalScroll@FD@@AEAAXXZ 00000001800cbcc0 f   uitext_horizontal_scroll.obj
 0002:0001cee0       ?SetText@UITextHorizontalScroll@FD@@UEAAXAEBVString@2@@Z 00000001800cbee0 f   uitext_horizontal_scroll.obj
 0002:0001cf60       ??0UITextHorizontalScroll_Cursor@UITextHorizontalScroll@FD@@QEAA@AEBVString@2@Vvec2@2@1@Z 00000001800cbf60 f   uitext_horizontal_scroll_cursor.obj
 0002:0001d080       ??1UITextHorizontalScroll_Cursor@UITextHorizontalScroll@FD@@UEAA@XZ 00000001800cc080 f i uitext_horizontal_scroll_cursor.obj
 0002:0001d0d0       ??_EUITextHorizontalScroll_Cursor@UITextHorizontalScroll@FD@@UEAAPEAXI@Z 00000001800cc0d0 f i uitext_horizontal_scroll_cursor.obj
 0002:0001d0d0       ??_GUITextHorizontalScroll_Cursor@UITextHorizontalScroll@FD@@UEAAPEAXI@Z 00000001800cc0d0 f i uitext_horizontal_scroll_cursor.obj
 0002:0001d160       ??0?$List@PEAUHWND__@@@FD@@QEAA@XZ 00000001800cc160 f i window.obj
 0002:0001d200       ??0?$List@PEAVWindow@FD@@@FD@@QEAA@XZ 00000001800cc200 f i window.obj
 0002:0001d2a0       ??0?$Map@PEAUHWND__@@PEAVWindow@FD@@@FD@@QEAA@I@Z 00000001800cc2a0 f i window.obj
 0002:0001d370       ??0Event@FD@@QEAA@W4FD_TYPE@01@@Z 00000001800cc370 f i window.obj
 0002:0001d3d0       ??0EventKeyboard@FD@@IEAA@W4FD_TYPE@Event@1@@Z 00000001800cc3d0 f i window.obj
 0002:0001d440       ??0EventKeyboardActionKey@FD@@QEAA@W4FD_ACTION@01@I@Z 00000001800cc440 f i window.obj
 0002:0001d530       ??0EventMouse@FD@@IEAA@W4FD_TYPE@Event@1@@Z 00000001800cc530 f i window.obj
 0002:0001d5a0       ??0EventMouseActionButton@FD@@QEAA@W4FD_ACTION@01@I@Z 00000001800cc5a0 f i window.obj
 0002:0001d670       ??0EventMouseActionMove@FD@@QEAA@Vivec2@1@@Z 00000001800cc670 f i window.obj
 0002:0001d710       ??0EventWindow@FD@@IEAA@W4FD_TYPE@Event@1@@Z 00000001800cc710 f i window.obj
 0002:0001d780       ??0EventWindowActionMove@FD@@QEAA@Vivec2@1@@Z 00000001800cc780 f i window.obj
 0002:0001d820       ??0EventWindowActionResize@FD@@QEAA@Vivec2@1@@Z 00000001800cc820 f i window.obj
 0002:0001d8c0       ??0EventWindowState@FD@@QEAA@W4FD_ACTION@01@@Z 00000001800cc8c0 f i window.obj
 0002:0001d9c0       ??0Window@FD@@QEAA@AEBVString@1@HH@Z 00000001800cc9c0 f   window.obj
 0002:0001de00       ??1?$List@PEAUHWND__@@@FD@@QEAA@XZ 00000001800cce00 f i window.obj
 0002:0001de70       ??1?$List@PEAVWindow@FD@@@FD@@QEAA@XZ 00000001800cce70 f i window.obj
 0002:0001dee0       ??1?$Map@PEAUHWND__@@PEAVWindow@FD@@@FD@@QEAA@XZ 00000001800ccee0 f i window.obj
 0002:0001df50       ??1Window@FD@@QEAA@XZ      00000001800ccf50 f   window.obj
 0002:0001e000       ??6?$List@PEAUHWND__@@@FD@@QEAAXPEAUHWND__@@@Z 00000001800cd000 f i window.obj
 0002:0001e060       ??6?$List@PEAVWindow@FD@@@FD@@QEAAXPEAVWindow@1@@Z 00000001800cd060 f i window.obj
 0002:0001e0c0       ?Add@?$Map@PEAUHWND__@@PEAVWindow@FD@@@FD@@QEAAXPEAVWindow@2@PEAUHWND__@@@Z 00000001800cd0c0 f i window.obj
 0002:0001e150       ?Clear@Window@FD@@QEAAXXZ  00000001800cd150 f   window.obj
 0002:0001e1a0       ?Find@?$List@PEAUHWND__@@@FD@@QEBA_KPEAUHWND__@@@Z 00000001800cd1a0 f i window.obj
 0002:0001e250       ?Get@?$List@PEAVWindow@FD@@@FD@@QEBAPEAVWindow@2@_K@Z 00000001800cd250 f i window.obj
 0002:0001e2b0       ?GetMonitorDpi@Window@FD@@SA?AVivec2@2@XZ 00000001800cd2b0 f   window.obj
 0002:0001e360       ?GetSizeInBytes@?$List@PEAUHWND__@@@FD@@QEBA?B_KXZ 00000001800cd360 f i window.obj
 0002:0001e3c0       ?GetSizeInBytes@?$List@PEAVWindow@FD@@@FD@@QEBA?B_KXZ 00000001800cd3c0 f i window.obj
 0002:0001e420       ?GetWindowDpi@Window@FD@@QEAA?AVivec2@2@XZ 00000001800cd420 f   window.obj
 0002:0001e4f0       ?OnWindowActionResize@Window@FD@@UEAA_NVivec2@2@@Z 00000001800cd4f0 f   window.obj
 0002:0001e560       ?Push_back@?$List@PEAUHWND__@@@FD@@QEAAXPEAUHWND__@@@Z 00000001800cd560 f i window.obj
 0002:0001e640       ?Push_back@?$List@PEAVWindow@FD@@@FD@@QEAAXPEAVWindow@2@@Z 00000001800cd640 f i window.obj
 0002:0001e720       ?Reserve@?$List@PEAUHWND__@@@FD@@QEAAX_K@Z 00000001800cd720 f i window.obj
 0002:0001e870       ?Reserve@?$List@PEAVWindow@FD@@@FD@@QEAAX_K@Z 00000001800cd870 f i window.obj
 0002:0001e9c0       ?Retrieve@?$Map@PEAUHWND__@@PEAVWindow@FD@@@FD@@QEBAPEAVWindow@2@PEAUHWND__@@@Z 00000001800cd9c0 f i window.obj
 0002:0001ea60       ?SetVisible@Window@FD@@QEAAX_N@Z 00000001800cda60 f   window.obj
 0002:0001eb80       ?SwapBuffers@Window@FD@@QEAAXXZ 00000001800cdb80 f   window.obj
 0002:0001ec60       ?WndProc@Window@FD@@CA_JPEAUHWND__@@I_K_J@Z 00000001800cdc60 f   window.obj
 0002:0001fcc0       ?__autoclassinit2@?$Map@PEAUHWND__@@PEAVWindow@FD@@@FD@@QEAAX_K@Z 00000001800cecc0 f i window.obj
 0002:0001fd20       ??$move@AEAV?$List@PEAVAsset@FD@@@FD@@@std@@YA$$QEAV?$List@PEAVAsset@FD@@@FD@@AEAV12@@Z 00000001800ced20 f i frodo.obj
 0002:0001fd70       ??0?$List@PEAVAsset@FD@@@FD@@QEAA@$$QEAV01@@Z 00000001800ced70 f i frodo.obj
 0002:0001fe00       ??0?$List@PEAVAsset@FD@@@FD@@QEAA@AEBV01@@Z 00000001800cee00 f i frodo.obj
 0002:0001ff20       ??0?$List@PEAVAsset@FD@@@FD@@QEAA@XZ 00000001800cef20 f i frodo.obj
 0002:0001ffc0       ??0?$List@VString@FD@@@FD@@QEAA@AEBV01@@Z 00000001800cefc0 f i frodo.obj
 0002:00020190       ??0?$Map@VString@FD@@V12@@FD@@QEAA@AEBV01@@Z 00000001800cf190 f i frodo.obj
 0002:00020240       ??0Asset@FD@@QEAA@AEBV01@@Z 00000001800cf240 f i frodo.obj
 0002:00020360       ??0Asset@FD@@QEAA@XZ       00000001800cf360 f i frodo.obj
 0002:00020430       ??0FDApplication@FD@@QEAA@AEBV01@@Z 00000001800cf430 f i frodo.obj
 0002:000204f0       ??0FDApplication@FD@@QEAA@PEBDII@Z 00000001800cf4f0 f   frodo.obj
 0002:000206d0       ??0Framebuffer2D@FD@@QEAA@AEBV01@@Z 00000001800cf6d0 f i frodo.obj
 0002:000207a0       ??0MenuRenderer@FD@@QEAA@AEBV01@@Z 00000001800cf7a0 f i frodo.obj
 0002:00020840       ??0Package@FD@@QEAA@$$QEAV01@@Z 00000001800cf840 f i frodo.obj
 0002:000208f0       ??0Package@FD@@QEAA@AEBV01@@Z 00000001800cf8f0 f i frodo.obj
 0002:000209a0       ??0Package@FD@@QEAA@XZ     00000001800cf9a0 f i frodo.obj
 0002:00020a30       ??0UserCamera@FD@@QEAA@AEBV01@@Z 00000001800cfa30 f i frodo.obj
 0002:00020ba0       ??0UserCamera@FD@@QEAA@AEBVvec3@1@0@Z 00000001800cfba0 f i frodo.obj
 0002:00020c90       ??0VFS@FD@@QEAA@AEBV01@@Z  00000001800cfc90 f i frodo.obj
 0002:00020d00       ??1?$List@PEAVAsset@FD@@@FD@@QEAA@XZ 00000001800cfd00 f i frodo.obj
 0002:00020d70       ??1?$List@VString@FD@@@FD@@QEAA@XZ 00000001800cfd70 f i frodo.obj
 0002:00020e20       ??1Asset@FD@@QEAA@XZ       00000001800cfe20 f i frodo.obj
 0002:00020ed0       ??1FDApplication@FD@@UEAA@XZ 00000001800cfed0 f   frodo.obj
 0002:00021030       ??1Package@FD@@QEAA@XZ     00000001800d0030 f i frodo.obj
 0002:000210a0       ??1UserCamera@FD@@QEAA@XZ  00000001800d00a0 f i frodo.obj
 0002:00021130       ??4?$List@PEAVAsset@FD@@@FD@@QEAAAEAV01@$$QEAV01@@Z 00000001800d0130 f i frodo.obj
 0002:00021250       ??4?$List@PEAVAsset@FD@@@FD@@QEAAAEAV01@AEBV01@@Z 00000001800d0250 f i frodo.obj
 0002:00021390       ??4?$List@VString@FD@@@FD@@QEAAAEAV01@AEBV01@@Z 00000001800d0390 f i frodo.obj
 0002:000215c0       ??4?$Map@VString@FD@@V12@@FD@@QEAAAEAV01@AEBV01@@Z 00000001800d05c0 f i frodo.obj
 0002:00021660       ??4Asset@FD@@QEAAAEAV01@AEBV01@@Z 00000001800d0660 f i frodo.obj
 0002:00021770       ??4AssetManager@FD@@QEAAAEAV01@$$QEAV01@@Z 00000001800d0770 f i frodo.obj
 0002:000217c0       ??4AssetManager@FD@@QEAAAEAV01@AEBV01@@Z 00000001800d07c0 f i frodo.obj
 0002:00021810       ??4FDApplication@FD@@QEAAAEAV01@AEBV01@@Z 00000001800d0810 f i frodo.obj
 0002:000218c0       ??4Framebuffer2D@FD@@QEAAAEAV01@AEBV01@@Z 00000001800d08c0 f i frodo.obj
 0002:00021980       ??4MenuRenderer@FD@@QEAAAEAV01@AEBV01@@Z 00000001800d0980 f i frodo.obj
 0002:00021a10       ??4MeshFactory@FD@@QEAAAEAV01@$$QEAV01@@Z 00000001800d0a10 f i frodo.obj
 0002:00021a60       ??4MeshFactory@FD@@QEAAAEAV01@AEBV01@@Z 00000001800d0a60 f i frodo.obj
 0002:00021ab0       ??4Package@FD@@QEAAAEAV01@$$QEAV01@@Z 00000001800d0ab0 f i frodo.obj
 0002:00021b50       ??4Package@FD@@QEAAAEAV01@AEBV01@@Z 00000001800d0b50 f i frodo.obj
 0002:00021bf0       ??4ShaderFactory@FD@@QEAAAEAV01@$$QEAV01@@Z 00000001800d0bf0 f i frodo.obj
 0002:00021c40       ??4ShaderFactory@FD@@QEAAAEAV01@AEBV01@@Z 00000001800d0c40 f i frodo.obj
 0002:00021c90       ??4UserCamera@FD@@QEAAAEAV01@AEBV01@@Z 00000001800d0c90 f i frodo.obj
 0002:00021dd0       ??4VFS@FD@@QEAAAEAV01@AEBV01@@Z 00000001800d0dd0 f i frodo.obj
 0002:00021e40       ??_EFDApplication@FD@@UEAAPEAXI@Z 00000001800d0e40 f i frodo.obj
 0002:00021f60       ??_EFramebuffer2D@FD@@UEAAPEAXI@Z 00000001800d0f60 f i frodo.obj
 0002:00022080       ??_EMenuRenderer@FD@@UEAAPEAXI@Z 00000001800d1080 f i frodo.obj
 0002:000221b0       ??_EString@FD@@QEAAPEAXI@Z 00000001800d11b0 f i frodo.obj
 0002:000222d0       ??_GFDApplication@FD@@UEAAPEAXI@Z 00000001800d12d0 f i frodo.obj
 0002:00022360       ??_GFramebuffer2D@FD@@UEAAPEAXI@Z 00000001800d1360 f i frodo.obj
 0002:000223f0       ??_GMenuRenderer@FD@@UEAAPEAXI@Z 00000001800d13f0 f i frodo.obj
 0002:00022480       ??_GVFS@FD@@QEAAPEAXI@Z    00000001800d1480 f i frodo.obj
 0002:00022510       ??_GWindow@FD@@QEAAPEAXI@Z 00000001800d1510 f i frodo.obj
 0002:000225a0       ?CreateCube@MeshFactory@FD@@SAPEAVMesh@2@AEBVvec3@2@PEAVMaterialInstance@2@@Z 00000001800d15a0 f i frodo.obj
 0002:00022630       ?CreatePlane@MeshFactory@FD@@SAPEAVMesh@2@AEBVvec2@2@PEAVMaterialInstance@2@@Z 00000001800d1630 f i frodo.obj
 0002:000226b0       ?Dispose@VFS@FD@@SAXXZ     00000001800d16b0 f i frodo.obj
 0002:00022740       ?Get@VFS@FD@@SAPEAV12@XZ   00000001800d1740 f i frodo.obj
 0002:00022780       ?GetDepthView@Framebuffer2D@FD@@QEBAPEAUID3D11DepthStencilView@@XZ 00000001800d1780 f i frodo.obj
 0002:000227d0       ?GetRenderTargetView@Framebuffer2D@FD@@QEBAPEAUID3D11RenderTargetView@@XZ 00000001800d17d0 f i frodo.obj
 0002:00022820       ?GetResource@Framebuffer2D@FD@@QEBAPEAUID3D11Texture2D@@XZ 00000001800d1820 f i frodo.obj
 0002:00022870       ?Init@VFS@FD@@SAXXZ        00000001800d1870 f i frodo.obj
 0002:00022940       ?OnEvent@UserCamera@FD@@UEAA_NPEBVEvent@2@@Z 00000001800d1940 f i frodo.obj
 0002:00022990       ?OnExit@FDApplication@FD@@MEAAXXZ 00000001800d1990 f   frodo.obj
 0002:000229d0       ?OnInit@FDApplication@FD@@MEAAXXZ 00000001800d19d0 f   frodo.obj
 0002:00022a10       ?OnRender@FDApplication@FD@@MEAAXXZ 00000001800d1a10 f   frodo.obj
 0002:00022a50       ?OnTick@FDApplication@FD@@MEAAXXZ 00000001800d1a50 f   frodo.obj
 0002:00022a90       ?OnUpdate@FDApplication@FD@@MEAAXM@Z 00000001800d1a90 f   frodo.obj
 0002:00022ae0       ?Run@FDApplication@FD@@AEAAXXZ 00000001800d1ae0 f   frodo.obj
 0002:00022ca0       ?SetUPS@FDApplication@FD@@QEAAXM@Z 00000001800d1ca0 f i frodo.obj
 0002:00022d10       ?Start@FDApplication@FD@@QEAAXXZ 00000001800d1d10 f i frodo.obj
 0002:00022d60       ?__autoclassinit2@Asset@FD@@QEAAX_K@Z 00000001800d1d60 f i frodo.obj
 0002:00022dc0       ?__autoclassinit2@FDApplication@FD@@QEAAX_K@Z 00000001800d1dc0 f i frodo.obj
 0002:00022e20       ?__autoclassinit2@Framebuffer2D@FD@@QEAAX_K@Z 00000001800d1e20 f i frodo.obj
 0002:00022e80       ?__autoclassinit2@MenuRenderer@FD@@QEAAX_K@Z 00000001800d1e80 f i frodo.obj
 0002:00022ee0       ?__autoclassinit2@Package@FD@@QEAAX_K@Z 00000001800d1ee0 f i frodo.obj
 0002:00022f40       ?__autoclassinit2@VFS@FD@@QEAAX_K@Z 00000001800d1f40 f i frodo.obj
 0002:00022fa0       ??0BufferLayoutAttrib@BufferLayout@FD@@QEAA@$$QEAU012@@Z 00000001800d1fa0 f i bufferlayout.obj
 0002:00023070       ??0BufferLayoutAttrib@BufferLayout@FD@@QEAA@AEBU012@@Z 00000001800d2070 f i bufferlayout.obj
 0002:00023140       ??1BufferLayout@FD@@QEAA@XZ 00000001800d2140 f   bufferlayout.obj
 0002:000231a0       ??4BufferLayoutAttrib@BufferLayout@FD@@QEAAAEAU012@AEBU012@@Z 00000001800d21a0 f i bufferlayout.obj
 0002:00023270       ??A?$List@UBufferLayoutAttrib@BufferLayout@FD@@@FD@@QEAAAEAUBufferLayoutAttrib@BufferLayout@1@_K@Z 00000001800d2270 f i bufferlayout.obj
 0002:000232d0       ?CreateInputLayout@BufferLayout@FD@@QEAAXPEAVShader@2@@Z 00000001800d22d0 f   bufferlayout.obj
 0002:00023620       ?GetElementOffset@BufferLayout@FD@@QEAAIAEBVString@2@@Z 00000001800d2620 f   bufferlayout.obj
 0002:000237a0       ?GetElementOffset@BufferLayout@FD@@QEAAII@Z 00000001800d27a0 f   bufferlayout.obj
 0002:00023850       ?GetElementSize@BufferLayout@FD@@QEAAIAEBVString@2@@Z 00000001800d2850 f   bufferlayout.obj
 0002:000239d0       ?GetElementSize@BufferLayout@FD@@QEAAII@Z 00000001800d29d0 f   bufferlayout.obj
 0002:00023a80       ?GetSize@?$List@UBufferLayoutAttrib@BufferLayout@FD@@@FD@@QEBA?B_KXZ 00000001800d2a80 f i bufferlayout.obj
 0002:00023ad0       ?Push@BufferLayout@FD@@AEAAXAEBVString@2@W4DXGI_FORMAT@@I@Z 00000001800d2ad0 f   bufferlayout.obj
 0002:00023c80       ?PushElement@BufferLayout@FD@@QEAAXAEBVString@2@I@Z 00000001800d2c80 f   bufferlayout.obj
 0002:00023db0       ?Push_back@?$List@UBufferLayoutAttrib@BufferLayout@FD@@@FD@@QEAAXUBufferLayoutAttrib@BufferLayout@2@@Z 00000001800d2db0 f i bufferlayout.obj
 0002:00024050       ??0IndexBuffer@FD@@QEAA@PEAFI@Z 00000001800d3050 f   indexbuffer.obj
 0002:00024100       ??0IndexBuffer@FD@@QEAA@PEAGI@Z 00000001800d3100 f   indexbuffer.obj
 0002:000241b0       ??0IndexBuffer@FD@@QEAA@PEAHI@Z 00000001800d31b0 f   indexbuffer.obj
 0002:00024260       ??0IndexBuffer@FD@@QEAA@PEAII@Z 00000001800d3260 f   indexbuffer.obj
 0002:00024310       ??0IndexBuffer@FD@@QEAA@PEAX_KW4FD_INDEXBUFFER_FORMAT@1@@Z 00000001800d3310 f   indexbuffer.obj
 0002:00024540       ?Bind@IndexBuffer@FD@@UEAAXXZ 00000001800d3540 f   indexbuffer.obj
 0002:000246f0       ??0VertexBuffer@FD@@QEAA@II@Z 00000001800d36f0 f   vertexbuffer.obj
 0002:00024910       ??0VertexBuffer@FD@@QEAA@PEAX_KI_N@Z 00000001800d3910 f   vertexbuffer.obj
 0002:00024ba0       ?Bind@VertexBuffer@FD@@QEAAXI@Z 00000001800d3ba0 f   vertexbuffer.obj
 0002:00024cb0       ?Bind@VertexBuffer@FD@@UEAAXXZ 00000001800d3cb0 f   vertexbuffer.obj
 0002:00024db0       ?Map@VertexBuffer@FD@@QEAAPEAXW4FD_MAP_FLAG@2@@Z 00000001800d3db0 f   vertexbuffer.obj
 0002:00024f10       ?Unmap@VertexBuffer@FD@@QEAAXXZ 00000001800d3f10 f   vertexbuffer.obj
 0002:00024f90       ??0D3DContext@FD@@AEAA@XZ  00000001800d3f90 f   d3dcontext.obj
 0002:00024fe0       ??1D3DContext@FD@@AEAA@XZ  00000001800d3fe0 f   d3dcontext.obj
 0002:000251a0       ??_GD3DContext@FD@@AEAAPEAXI@Z 00000001800d41a0 f i d3dcontext.obj
 0002:00025230       ?Clear@D3DContext@FD@@SAXG@Z 00000001800d4230 f   d3dcontext.obj
 0002:00025370       ?CreateContext@D3DContext@FD@@SAXPEAVWindow@2@@Z 00000001800d4370 f   d3dcontext.obj
 0002:00025930       ?Dispose@D3DContext@FD@@SAXXZ 00000001800d4930 f   d3dcontext.obj
 0002:000259e0       ?Present@D3DContext@FD@@SAXII@Z 00000001800d49e0 f   d3dcontext.obj
 0002:00025a60       ?SetRenderTarget@D3DContext@FD@@SAXPEAUID3D11RenderTargetView@@@Z 00000001800d4a60 f   d3dcontext.obj
 0002:00025b50       ?SetRenderTargets@D3DContext@FD@@SAXGPEAPEAUID3D11RenderTargetView@@@Z 00000001800d4b50 f   d3dcontext.obj
 0002:00025bc0       ?SetRenderTargets@D3DContext@FD@@SAXGPEAPEAUID3D11RenderTargetView@@PEAUID3D11DepthStencilView@@@Z 00000001800d4bc0 f   d3dcontext.obj
 0002:00025ce0       ?SetTopology@D3DContext@FD@@SAXW4D3D_PRIMITIVE_TOPOLOGY@@@Z 00000001800d4ce0 f   d3dcontext.obj
 0002:00025d60       ?SetViewPort@D3DContext@FD@@SAXMMMM@Z 00000001800d4d60 f   d3dcontext.obj
 0002:00025e80       ??0?$List@I@FD@@QEAA@XZ    00000001800d4e80 f i font.obj
 0002:00025f20       ??0?$List@UFD_GLYPH@Font@FD@@@FD@@QEAA@XZ 00000001800d4f20 f i font.obj
 0002:00025fc0       ??0?$Map@IUFD_GLYPH@Font@FD@@@FD@@QEAA@I@Z 00000001800d4fc0 f i font.obj
 0002:00026090       ??0Font@FD@@QEAA@AEBVString@1@IVivec2@1@@Z 00000001800d5090 f   font.obj
 0002:000262a0       ??0Font@FD@@QEAA@PEAXIIVivec2@1@@Z 00000001800d52a0 f   font.obj
 0002:00026430       ??1?$List@I@FD@@QEAA@XZ    00000001800d5430 f i font.obj
 0002:000264a0       ??1?$Map@IUFD_GLYPH@Font@FD@@@FD@@QEAA@XZ 00000001800d54a0 f i font.obj
 0002:00026510       ??1Font@FD@@QEAA@XZ        00000001800d5510 f   font.obj
 0002:00026610       ??6?$List@I@FD@@QEAAXI@Z   00000001800d5610 f i font.obj
 0002:00026670       ??6?$List@UFD_GLYPH@Font@FD@@@FD@@QEAAXUFD_GLYPH@Font@1@@Z 00000001800d5670 f i font.obj
 0002:000266f0       ??A?$List@UFD_GLYPH@Font@FD@@@FD@@QEAAAEAUFD_GLYPH@Font@1@_K@Z 00000001800d56f0 f i font.obj
 0002:00026750       ??A?$Map@IUFD_GLYPH@Font@FD@@@FD@@QEAAAEAUFD_GLYPH@Font@1@I@Z 00000001800d5750 f i font.obj
 0002:00026800       ?Add@?$Map@IUFD_GLYPH@Font@FD@@@FD@@AEAAAEAUFD_GLYPH@Font@2@I@Z 00000001800d5800 f i font.obj
 0002:000268c0       ?Add@?$Map@IUFD_GLYPH@Font@FD@@@FD@@QEAAXUFD_GLYPH@Font@2@I@Z 00000001800d58c0 f i font.obj
 0002:00026970       ?GetCharFromFont@FD@@YAPEAVTexture2D@1@AEBVString@1@I@Z 00000001800d5970 f   font.obj
 0002:00026bc0       ?GetDistance@?$FD_RANGE@H@Font@FD@@QEBAHXZ 00000001800d5bc0 f i font.obj
 0002:00026c20       ?GetFontMetrics@Font@FD@@QEBA?AVvec2@2@AEBVString@2@V32@@Z 00000001800d5c20 f   font.obj
 0002:00026f40       ?GetKerning@Font@FD@@QEAA?AVivec2@2@II@Z 00000001800d5f40 f   font.obj
 0002:000270a0       ?GetScaleFromSize@Font@FD@@QEBA?AVvec2@2@I@Z 00000001800d60a0 f   font.obj
 0002:00027140       ?GetSize@?$List@I@FD@@QEBA?B_KXZ 00000001800d6140 f i font.obj
 0002:00027190       ?GetSizeInBytes@?$List@I@FD@@QEBA?B_KXZ 00000001800d6190 f i font.obj
 0002:000271f0       ?GetSizeInBytes@?$List@UFD_GLYPH@Font@FD@@@FD@@QEBA?B_KXZ 00000001800d61f0 f i font.obj
 0002:00027240       ?LoadFontFileInternal@Font@FD@@AEAA_NPEAEIIVivec2@2@PEAU?$FD_RANGE@H@12@I@Z 00000001800d6240 f   font.obj
 0002:00027c90       ?Push_back@?$List@I@FD@@QEAAXI@Z 00000001800d6c90 f i font.obj
 0002:00027d70       ?Push_back@?$List@UFD_GLYPH@Font@FD@@@FD@@QEAAXUFD_GLYPH@Font@2@@Z 00000001800d6d70 f i font.obj
 0002:00027e60       ?Reserve@?$List@I@FD@@QEAAX_K@Z 00000001800d6e60 f i font.obj
 0002:00027fb0       ?Reserve@?$List@UFD_GLYPH@Font@FD@@@FD@@QEAAX_K@Z 00000001800d6fb0 f i font.obj
 0002:00028190       ?Resize@?$List@UFD_GLYPH@Font@FD@@@FD@@QEAAX_K@Z 00000001800d7190 f i font.obj
 0002:00028220       ??0?$List@PEAVTexture@FD@@@FD@@QEAA@XZ 00000001800d7220 f i materialinstance.obj
 0002:000282c0       ??0?$Map@IPEAVTexture@FD@@@FD@@QEAA@I@Z 00000001800d72c0 f i materialinstance.obj
 0002:00028390       ??0ConstantBufferSlot@Shader@FD@@QEAA@IIPEAEVBufferLayout@2@@Z 00000001800d7390 f i materialinstance.obj
 0002:00028470       ??0MaterialInstance@FD@@QEAA@PEAVMaterial@1@@Z 00000001800d7470 f   materialinstance.obj
 0002:00028810       ??1?$Map@IPEAVTexture@FD@@@FD@@QEAA@XZ 00000001800d7810 f i materialinstance.obj
 0002:00028880       ??1MaterialInstance@FD@@UEAA@XZ 00000001800d7880 f   materialinstance.obj
 0002:00028980       ??4ConstantBufferSlot@Shader@FD@@QEAAAEAU012@$$QEAU012@@Z 00000001800d7980 f i materialinstance.obj
 0002:00028a40       ??A?$List@I@FD@@QEAAAEAI_K@Z 00000001800d7a40 f i materialinstance.obj
 0002:00028aa0       ??A?$List@PEAVTexture@FD@@@FD@@QEAAAEAPEAVTexture@1@_K@Z 00000001800d7aa0 f i materialinstance.obj
 0002:00028b00       ??A?$Map@IPEAVTexture@FD@@@FD@@QEAAAEAPEAVTexture@1@I@Z 00000001800d7b00 f i materialinstance.obj
 0002:00028bb0       ?Add@?$Map@IPEAVTexture@FD@@@FD@@AEAAAEAPEAVTexture@2@I@Z 00000001800d7bb0 f i materialinstance.obj
 0002:00028c70       ?Bind@MaterialInstance@FD@@UEAAXXZ 00000001800d7c70 f   materialinstance.obj
 0002:00028e90       ?GetKeyList@?$Map@IPEAVTexture@FD@@@FD@@QEBA?AV?$List@I@2@XZ 00000001800d7e90 f i materialinstance.obj
 0002:00028f20       ?GetPair@?$Map@IPEAVTexture@FD@@@FD@@QEAA?AU?$FD_MAP_PAIR@IPEAVTexture@FD@@@2@_K@Z 00000001800d7f20 f i materialinstance.obj
 0002:00028fe0       ?GetSizeInBytes@?$List@PEAVTexture@FD@@@FD@@QEBA?B_KXZ 00000001800d7fe0 f i materialinstance.obj
 0002:00029040       ?Reserve@?$List@PEAVTexture@FD@@@FD@@QEAAX_K@Z 00000001800d8040 f i materialinstance.obj
 0002:00029190       ?Resize@?$List@PEAVTexture@FD@@@FD@@QEAAX_K@Z 00000001800d8190 f i materialinstance.obj
 0002:00029220       ?SetPCBuffer@MaterialInstance@FD@@QEAAXAEBVString@2@PEAX@Z 00000001800d8220 f   materialinstance.obj
 0002:00029440       ?SetPCBufferElement@MaterialInstance@FD@@QEAAXAEBVString@2@PEAX@Z 00000001800d8440 f   materialinstance.obj
 0002:00029510       ?SetPCBufferElement@MaterialInstance@FD@@QEAAXIPEAX@Z 00000001800d8510 f   materialinstance.obj
 0002:000295d0       ?SetTexture@MaterialInstance@FD@@QEAAXAEBVString@2@PEAVTexture@2@@Z 00000001800d85d0 f   materialinstance.obj
 0002:00029670       ?SetVCBuffer@MaterialInstance@FD@@QEAAXAEBVString@2@PEAX@Z 00000001800d8670 f   materialinstance.obj
 0002:00029890       ?SetVCBufferElement@MaterialInstance@FD@@QEAAXAEBVString@2@PEAX@Z 00000001800d8890 f   materialinstance.obj
 0002:00029960       ?SetVCBufferElement@MaterialInstance@FD@@QEAAXIPEAX@Z 00000001800d8960 f   materialinstance.obj
 0002:00029a20       ?Render@Mesh@FD@@QEAAXXZ   00000001800d8a20 f   mesh.obj
 0002:00029b20       ??0?$List@PEAVTexture2D@FD@@@FD@@QEAA@XZ 00000001800d8b20 f i batchrenderer.obj
 0002:00029bc0       ??0BatchRenderer@FD@@IEAA@PEAVWindow@1@I@Z 00000001800d8bc0 f   batchrenderer.obj
 0002:00029c60       ??0BatchRenderer@FD@@IEAA@PEAVWindow@1@II@Z 00000001800d8c60 f   batchrenderer.obj
 0002:00029d60       ??1?$List@PEAVTexture2D@FD@@@FD@@QEAA@XZ 00000001800d8d60 f i batchrenderer.obj
 0002:00029dd0       ??1BatchRenderer@FD@@UEAA@XZ 00000001800d8dd0 f   batchrenderer.obj
 0002:0002a1b0       ??A?$List@PEAVTexture2D@FD@@@FD@@QEAAAEAPEAVTexture2D@1@_K@Z 00000001800d91b0 f i batchrenderer.obj
 0002:0002a210       ??_GShader@FD@@QEAAPEAXI@Z 00000001800d9210 f i batchrenderer.obj
 0002:0002a2a0       ?Begin@BatchRenderer@FD@@UEAAXPEAVCamera@2@@Z 00000001800d92a0 f   batchrenderer.obj
 0002:0002a340       ?Clear@?$List@PEAVTexture2D@FD@@@FD@@QEAAXXZ 00000001800d9340 f i batchrenderer.obj
 0002:0002a3c0       ?CreateBlendStates@BatchRenderer@FD@@MEAAXXZ 00000001800d93c0 f   batchrenderer.obj
 0002:0002a690       ?CreateDepthStates@BatchRenderer@FD@@MEAAXXZ 00000001800d9690 f   batchrenderer.obj
 0002:0002a860       ?End@BatchRenderer@FD@@UEAAXXZ 00000001800d9860 f   batchrenderer.obj
 0002:0002a8d0       ?Find@?$List@PEAVTexture2D@FD@@@FD@@QEBA_KPEAVTexture2D@2@@Z 00000001800d98d0 f i batchrenderer.obj
 0002:0002a980       ?GetSize@?$List@PEAVTexture2D@FD@@@FD@@QEBA?B_KXZ 00000001800d9980 f i batchrenderer.obj
 0002:0002a9d0       ?GetSizeInBytes@?$List@PEAVTexture2D@FD@@@FD@@QEBA?B_KXZ 00000001800d99d0 f i batchrenderer.obj
 0002:0002aa30       ?Present@BatchRenderer@FD@@UEAAXXZ 00000001800d9a30 f   batchrenderer.obj
 0002:0002abd0       ?Push_back@?$List@PEAVTexture2D@FD@@@FD@@QEAAXPEAVTexture2D@2@@Z 00000001800d9bd0 f i batchrenderer.obj
 0002:0002acb0       ?Reserve@?$List@PEAVTexture2D@FD@@@FD@@QEAAX_K@Z 00000001800d9cb0 f i batchrenderer.obj
 0002:0002ae00       ?SetBlendingInternal@BatchRenderer@FD@@IEAAX_N@Z 00000001800d9e00 f   batchrenderer.obj
 0002:0002af50       ?SetDepthInternal@BatchRenderer@FD@@IEAAX_N@Z 00000001800d9f50 f   batchrenderer.obj
 0002:0002b020       ?SubmitTexture@BatchRenderer@FD@@IEAAMPEAVTexture2D@2@@Z 00000001800da020 f   batchrenderer.obj
 0002:0002b200       ?UpdateViewMatrix@Camera@FD@@MEAAXXZ 00000001800da200 f   camera.obj
 0002:0002b2e0       ??DFD@@YA?AVvec3@0@AEBV10@M@Z 00000001800da2e0 f i usercamera.obj
 0002:0002b390       ?OnKeyboardActionKeyPressed@UserCamera@FD@@UEAA_NI@Z 00000001800da390 f   usercamera.obj
 0002:0002b4c0       ?OnKeyboardActionKeyReleased@UserCamera@FD@@UEAA_NI@Z 00000001800da4c0 f   usercamera.obj
 0002:0002b5c0       ?OnMouseActionMove@UserCamera@FD@@UEAA_NVivec2@2@@Z 00000001800da5c0 f   usercamera.obj
 0002:0002b640       ?Update@UserCamera@FD@@UEAAXM@Z 00000001800da640 f   usercamera.obj
 0002:0002b850       ??0FontRenderer@FD@@QEAA@PEAVWindow@1@I@Z 00000001800da850 f   fontrenderer.obj
 0002:0002be30       ??1FontRenderer@FD@@UEAA@XZ 00000001800dae30 f   fontrenderer.obj
 0002:0002bea0       ?SubmitTextAlignCenter@FontRenderer@FD@@QEAAXAEBVString@2@PEAVFont@2@Vvec2@2@Vvec4@2@2@Z 00000001800daea0 f   fontrenderer.obj
 0002:0002c970       ?SubmitTextAlignLeft@FontRenderer@FD@@QEAAXAEBVString@2@PEAVFont@2@Vvec2@2@Vvec4@2@2@Z 00000001800db970 f   fontrenderer.obj
 0002:0002d010       ?SubmitTextAlignRight@FontRenderer@FD@@QEAAXAEBVString@2@PEAVFont@2@Vvec2@2@Vvec4@2@2@Z 00000001800dc010 f   fontrenderer.obj
 0002:0002dad0       ??0Material@FD@@QEAA@PEAVShader@1@@Z 00000001800dcad0 f   material.obj
 0002:0002dc60       ??1Material@FD@@UEAA@XZ    00000001800dcc60 f   material.obj
 0002:0002dd60       ?Bind@Material@FD@@UEAAXXZ 00000001800dcd60 f   material.obj
 0002:0002df80       ?SetPCBuffer@Material@FD@@QEAAXAEBVString@2@PEAX@Z 00000001800dcf80 f   material.obj
 0002:0002e1a0       ?SetPCBufferElement@Material@FD@@QEAAXAEBVString@2@PEAX@Z 00000001800dd1a0 f   material.obj
 0002:0002e270       ?SetPCBufferElement@Material@FD@@QEAAXIPEAX@Z 00000001800dd270 f   material.obj
 0002:0002e330       ?SetTexture@Material@FD@@QEAAXAEBVString@2@PEAVTexture@2@@Z 00000001800dd330 f   material.obj
 0002:0002e3d0       ?SetVCBuffer@Material@FD@@QEAAXAEBVString@2@PEAX@Z 00000001800dd3d0 f   material.obj
 0002:0002e5f0       ?SetVCBufferElement@Material@FD@@QEAAXAEBVString@2@PEAX@Z 00000001800dd5f0 f   material.obj
 0002:0002e6c0       ?SetVCBufferElement@Material@FD@@QEAAXIPEAX@Z 00000001800dd6c0 f   material.obj
 0002:0002e780       ??0?$List@U?$Face@$02@MeshFactory@FD@@@FD@@QEAA@AEBV01@@Z 00000001800dd780 f i meshfactory.obj
 0002:0002e8a0       ??0?$List@U?$Face@$02@MeshFactory@FD@@@FD@@QEAA@XZ 00000001800dd8a0 f i meshfactory.obj
 0002:0002e940       ??0?$List@Vvec2@FD@@@FD@@QEAA@XZ 00000001800dd940 f i meshfactory.obj
 0002:0002e9e0       ??0?$List@Vvec3@FD@@@FD@@QEAA@XZ 00000001800dd9e0 f i meshfactory.obj
 0002:0002ea80       ??0Vertex@FD@@QEAA@XZ      00000001800dda80 f i meshfactory.obj
 0002:0002eb10       ??1?$List@PEAVString@FD@@@FD@@QEAA@XZ 00000001800ddb10 f i meshfactory.obj
 0002:0002eb80       ??1?$List@U?$Face@$02@MeshFactory@FD@@@FD@@QEAA@XZ 00000001800ddb80 f i meshfactory.obj
 0002:0002ebf0       ??1?$List@Vvec2@FD@@@FD@@QEAA@XZ 00000001800ddbf0 f i meshfactory.obj
 0002:0002ec60       ??1?$List@Vvec3@FD@@@FD@@QEAA@XZ 00000001800ddc60 f i meshfactory.obj
 0002:0002ecd0       ??A?$Face@$02@MeshFactory@FD@@QEAAAEAUVertex@012@_K@Z 00000001800ddcd0 f i meshfactory.obj
 0002:0002ed30       ??A?$List@PEAVString@FD@@@FD@@QEAAAEAPEAVString@1@_K@Z 00000001800ddd30 f i meshfactory.obj
 0002:0002ed90       ??A?$List@U?$Face@$02@MeshFactory@FD@@@FD@@QEAAAEAU?$Face@$02@MeshFactory@1@_K@Z 00000001800ddd90 f i meshfactory.obj
 0002:0002edf0       ??A?$List@Vvec2@FD@@@FD@@QEAAAEAVvec2@1@_K@Z 00000001800dddf0 f i meshfactory.obj
 0002:0002ee50       ??A?$List@Vvec3@FD@@@FD@@QEAAAEAVvec3@1@_K@Z 00000001800dde50 f i meshfactory.obj
 0002:0002eeb0       ?CreateCube@MeshFactory@FD@@SAPEAVMesh@2@MMMPEAVMaterialInstance@2@@Z 00000001800ddeb0 f   meshfactory.obj
 0002:0002fed0       ?CreatePlane@MeshFactory@FD@@SAPEAVMesh@2@MMPEAVMaterialInstance@2@@Z 00000001800deed0 f   meshfactory.obj
 0002:00030450       ?GetData@?$List@I@FD@@QEAAPEAIXZ 00000001800df450 f i meshfactory.obj
 0002:000304a0       ?GetSize@?$List@PEAVString@FD@@@FD@@QEBA?B_KXZ 00000001800df4a0 f i meshfactory.obj
 0002:000304f0       ?GetSize@?$List@U?$Face@$02@MeshFactory@FD@@@FD@@QEBA?B_KXZ 00000001800df4f0 f i meshfactory.obj
 0002:00030540       ?GetSize@?$List@Vvec2@FD@@@FD@@QEBA?B_KXZ 00000001800df540 f i meshfactory.obj
 0002:00030590       ?GetSize@?$List@Vvec3@FD@@@FD@@QEBA?B_KXZ 00000001800df590 f i meshfactory.obj
 0002:000305e0       ?GetSizeInBytes@?$List@U?$Face@$02@MeshFactory@FD@@@FD@@QEBA?B_KXZ 00000001800df5e0 f i meshfactory.obj
 0002:00030630       ?GetSizeInBytes@?$List@Vvec2@FD@@@FD@@QEBA?B_KXZ 00000001800df630 f i meshfactory.obj
 0002:00030690       ?GetSizeInBytes@?$List@Vvec3@FD@@@FD@@QEBA?B_KXZ 00000001800df690 f i meshfactory.obj
 0002:000306e0       ?LoadFromFile@MeshFactory@FD@@SAPEAVMesh@2@AEBVString@2@PEAVMaterialInstance@2@@Z 00000001800df6e0 f   meshfactory.obj
 0002:00030e20       ?MakeFacesOBJ@MeshFactory@FD@@CAXAEAV?$List@Vvec3@FD@@@2@0AEAV?$List@Vvec2@FD@@@2@100AEAV?$List@I@2@V?$List@U?$Face@$02@MeshFactory@FD@@@2@@Z 00000001800dfe20 f   meshfactory.obj
 0002:000311a0       ?ParseOBJ@MeshFactory@FD@@CAXVString@2@AEAV?$List@Vvec3@FD@@@2@AEAV?$List@Vvec2@FD@@@2@1AEAV?$List@I@2@@Z 00000001800e01a0 f   meshfactory.obj
 0002:00031b50       ?Push_back@?$List@U?$Face@$02@MeshFactory@FD@@@FD@@QEAAXU?$Face@$02@MeshFactory@2@@Z 00000001800e0b50 f i meshfactory.obj
 0002:00031c40       ?Push_back@?$List@Vvec2@FD@@@FD@@QEAAXVvec2@2@@Z 00000001800e0c40 f i meshfactory.obj
 0002:00031d20       ?Push_back@?$List@Vvec3@FD@@@FD@@QEAAXVvec3@2@@Z 00000001800e0d20 f i meshfactory.obj
 0002:00031e10       ?Reserve@?$List@U?$Face@$02@MeshFactory@FD@@@FD@@QEAAX_K@Z 00000001800e0e10 f i meshfactory.obj
 0002:00031f60       ?Reserve@?$List@Vvec2@FD@@@FD@@QEAAX_K@Z 00000001800e0f60 f i meshfactory.obj
 0002:00032140       ?Reserve@?$List@Vvec3@FD@@@FD@@QEAAX_K@Z 00000001800e1140 f i meshfactory.obj
 0002:00032320       ?Resize@?$List@Vvec2@FD@@@FD@@QEAAX_K@Z 00000001800e1320 f i meshfactory.obj
 0002:000323b0       ?Resize@?$List@Vvec3@FD@@@FD@@QEAAX_K@Z 00000001800e13b0 f i meshfactory.obj
 0002:00032440       ?__autoclassinit2@?$List@I@FD@@QEAAX_K@Z 00000001800e1440 f i meshfactory.obj
 0002:000324a0       ?__autoclassinit2@?$List@PEAVString@FD@@@FD@@QEAAX_K@Z 00000001800e14a0 f i meshfactory.obj
 0002:00032500       ?__autoclassinit2@?$List@U?$Face@$02@MeshFactory@FD@@@FD@@QEAAX_K@Z 00000001800e1500 f i meshfactory.obj
 0002:00032560       ?__autoclassinit2@?$List@Vvec2@FD@@@FD@@QEAAX_K@Z 00000001800e1560 f i meshfactory.obj
 0002:000325c0       ?__autoclassinit2@?$List@Vvec3@FD@@@FD@@QEAAX_K@Z 00000001800e15c0 f i meshfactory.obj
 0002:00032620       __local_stdio_scanf_options 00000001800e1620 f i meshfactory.obj
 0002:00032660       _vsscanf_l                 00000001800e1660 f i meshfactory.obj
 0002:00032700       sscanf                     00000001800e1700 f i meshfactory.obj
 0002:000327e0       ?GetSizeInBytes@?$List@URenderCommand@FD@@@FD@@QEBA?B_KXZ 00000001800e17e0 f i renderer.obj
 0002:00032830       ?Push_back@?$List@URenderCommand@FD@@@FD@@QEAAXURenderCommand@2@@Z 00000001800e1830 f i renderer.obj
 0002:00032920       ?Reserve@?$List@URenderCommand@FD@@@FD@@QEAAX_K@Z 00000001800e1920 f i renderer.obj
 0002:00032b00       ?Submit@Renderer@FD@@UEAAXAEBURenderCommand@2@@Z 00000001800e1b00 f   renderer.obj
 0002:00032b90       ?Submit@Renderer@FD@@UEAAXPEAVEntity@2@@Z 00000001800e1b90 f   renderer.obj
 0002:00032c60       ?Submit@Renderer@FD@@UEAAXPEAVMesh@2@Vmat4@2@@Z 00000001800e1c60 f   renderer.obj
 0002:00032d60       ??0MenuRenderer@FD@@QEAA@PEAVWindow@1@I@Z 00000001800e1d60 f   menurenderer.obj
 0002:00033380       ??1MenuRenderer@FD@@UEAA@XZ 00000001800e2380 f   menurenderer.obj
 0002:00033460       ??DFD@@YA?AVvec2@0@AEBV10@0@Z 00000001800e2460 f i menurenderer.obj
 0002:00033500       ?Begin@MenuRenderer@FD@@UEAAXPEAVCamera@2@@Z 00000001800e2500 f   menurenderer.obj
 0002:00033590       ?End@MenuRenderer@FD@@UEAAXXZ 00000001800e2590 f   menurenderer.obj
 0002:00033610       ?Present@MenuRenderer@FD@@UEAAXXZ 00000001800e2610 f   menurenderer.obj
 0002:00033690       ?Submit@MenuRenderer@FD@@QEAAXPEBVUIHandler@2@@Z 00000001800e2690 f   menurenderer.obj
 0002:00033dc0       ??0?$List@PEAUShaderGenBlock@Shader@FD@@@FD@@QEAA@XZ 00000001800e2dc0 f i shader.obj
 0002:00033e60       ??0?$List@PEAUShaderGenVariable@Shader@FD@@@FD@@QEAA@XZ 00000001800e2e60 f i shader.obj
 0002:00033f00       ??0?$List@PEAUShaderStructInfo@Shader@FD@@@FD@@QEAA@XZ 00000001800e2f00 f i shader.obj
 0002:00033fa0       ??0?$List@PEAUShaderTextureInfo@Shader@FD@@@FD@@QEAA@XZ 00000001800e2fa0 f i shader.obj
 0002:00034040       ??0Shader@FD@@QEAA@AEBVString@1@0_N@Z 00000001800e3040 f   shader.obj
 0002:000343b0       ??0TextureSlot@Shader@FD@@QEAA@II@Z 00000001800e33b0 f i shader.obj
 0002:00034430       ??1?$List@PEAUShaderTextureInfo@Shader@FD@@@FD@@QEAA@XZ 00000001800e3430 f i shader.obj
 0002:000344a0       ??1Shader@FD@@QEAA@XZ      00000001800e34a0 f   shader.obj
 0002:00034820       ??1ShaderGenBlock@Shader@FD@@QEAA@XZ 00000001800e3820 f i shader.obj
 0002:00034890       ??1ShaderGenVariable@Shader@FD@@QEAA@XZ 00000001800e3890 f i shader.obj
 0002:000348f0       ??1ShaderStructInfo@Shader@FD@@QEAA@XZ 00000001800e38f0 f i shader.obj
 0002:000349c0       ??1ShaderTextureInfo@Shader@FD@@QEAA@XZ 00000001800e39c0 f i shader.obj
 0002:00034a20       ??A?$List@PEAUShaderStructInfo@Shader@FD@@@FD@@QEAAAEAPEAUShaderStructInfo@Shader@1@_K@Z 00000001800e3a20 f i shader.obj
 0002:00034a80       ??A?$List@PEAUShaderTextureInfo@Shader@FD@@@FD@@QEAAAEAPEAUShaderTextureInfo@Shader@1@_K@Z 00000001800e3a80 f i shader.obj
 0002:00034ae0       ??_EShaderGenBlock@Shader@FD@@QEAAPEAXI@Z 00000001800e3ae0 f i shader.obj
 0002:00034c00       ??_EShaderGenVariable@Shader@FD@@QEAAPEAXI@Z 00000001800e3c00 f i shader.obj
 0002:00034d20       ??_EShaderStructInfo@Shader@FD@@QEAAPEAXI@Z 00000001800e3d20 f i shader.obj
 0002:00034e40       ??_EShaderTextureInfo@Shader@FD@@QEAAPEAXI@Z 00000001800e3e40 f i shader.obj
 0002:00034f60       ??_GShaderGenBlock@Shader@FD@@QEAAPEAXI@Z 00000001800e3f60 f i shader.obj
 0002:00034ff0       ??_GShaderGenVariable@Shader@FD@@QEAAPEAXI@Z 00000001800e3ff0 f i shader.obj
 0002:00035080       ??_GShaderStructInfo@Shader@FD@@QEAAPEAXI@Z 00000001800e4080 f i shader.obj
 0002:00035110       ??_GShaderTextureInfo@Shader@FD@@QEAAPEAXI@Z 00000001800e4110 f i shader.obj
 0002:000351a0       ?Bind@Shader@FD@@QEAAXXZ   00000001800e41a0 f   shader.obj
 0002:00035430       ?Compile@Shader@FD@@AEAAXVString@2@0@Z 00000001800e4430 f   shader.obj
 0002:00035c50       ?CreateBuffers@Shader@FD@@AEAAXXZ 00000001800e4c50 f   shader.obj
 0002:00035f10       ?Free@?$List@PEAUShaderGenBlock@Shader@FD@@@FD@@QEAAX_N@Z 00000001800e4f10 f i shader.obj
 0002:000360b0       ?Free@?$List@PEAUShaderGenVariable@Shader@FD@@@FD@@QEAAX_N@Z 00000001800e50b0 f i shader.obj
 0002:00036250       ?Free@?$List@PEAUShaderStructInfo@Shader@FD@@@FD@@QEAAX_N@Z 00000001800e5250 f i shader.obj
 0002:000363f0       ?Free@?$List@PEAUShaderTextureInfo@Shader@FD@@@FD@@QEAAX_N@Z 00000001800e53f0 f i shader.obj
 0002:00036590       ?GetFunctionTypeString@Shader@FD@@SA?AVString@2@W4FD_SHADER_GEN_FUNCTION_TYPE@2@@Z 00000001800e5590 f   shader.obj
 0002:000368b0       ?GetPSConstantBufferInfo@Shader@FD@@QEAA?AUConstantBufferSlot@12@AEBVString@2@@Z 00000001800e58b0 f   shader.obj
 0002:00036ad0       ?GetPSConstantBufferSlotByName@Shader@FD@@QEAAIAEBVString@2@@Z 00000001800e5ad0 f   shader.obj
 0002:00036c00       ?GetPSTextureSlotByName@Shader@FD@@QEAAIAEBVString@2@@Z 00000001800e5c00 f   shader.obj
 0002:00036d30       ?GetSize@?$List@PEAUShaderStructInfo@Shader@FD@@@FD@@QEBA?B_KXZ 00000001800e5d30 f i shader.obj
 0002:00036d80       ?GetSize@?$List@PEAUShaderTextureInfo@Shader@FD@@@FD@@QEBA?B_KXZ 00000001800e5d80 f i shader.obj
 0002:00036dd0       ?GetTextureInfo@Shader@FD@@QEAA?AUTextureSlot@12@AEBVString@2@@Z 00000001800e5dd0 f   shader.obj
 0002:00036f30       ?GetVSConstantBufferInfo@Shader@FD@@QEAA?AUConstantBufferSlot@12@AEBVString@2@@Z 00000001800e5f30 f   shader.obj
 0002:00037150       ?GetVSConstantBufferSlotByName@Shader@FD@@QEAAIAEBVString@2@@Z 00000001800e6150 f   shader.obj
 0002:00037280       ?SetPSConstantBuffer@Shader@FD@@QEAAXAEBVString@2@PEAX@Z 00000001800e6280 f   shader.obj
 0002:000373a0       ?SetPSConstantBuffer@Shader@FD@@QEAAXIPEAX@Z 00000001800e63a0 f   shader.obj
 0002:000374b0       ?SetPSConstantBuffer@Shader@FD@@QEAAXUConstantBufferSlot@12@@Z 00000001800e64b0 f   shader.obj
 0002:00037540       ?SetPSConstantBufferSlotInternal@Shader@FD@@AEAAXIPEAX@Z 00000001800e6540 f   shader.obj
 0002:000376b0       ?SetTexture@Shader@FD@@QEAAXIPEBVTexture@2@@Z 00000001800e66b0 f   shader.obj
 0002:000377c0       ?SetVSConstantBuffer@Shader@FD@@QEAAXAEBVString@2@PEAX@Z 00000001800e67c0 f   shader.obj
 0002:000378e0       ?SetVSConstantBuffer@Shader@FD@@QEAAXIPEAX@Z 00000001800e68e0 f   shader.obj
 0002:000379f0       ?SetVSConstantBuffer@Shader@FD@@QEAAXUConstantBufferSlot@12@@Z 00000001800e69f0 f   shader.obj
 0002:00037a80       ?SetVSConstantBufferSlotInternal@Shader@FD@@AEAAXIPEAX@Z 00000001800e6a80 f   shader.obj
 0002:00037bf0       ?GetShader@ShaderFactory@FD@@SAPEAVShader@2@W4FD_SHADERFACTORY_SHADER_TYPE@2@@Z 00000001800e6bf0 f   shaderfactory.obj
 0002:00038910       ??$__vcrt_va_start_verify_argument_type@_K@@YAXXZ 00000001800e7910 f i shadergen.obj
 0002:00038940       ??0?$List@_K@FD@@QEAA@XZ   00000001800e7940 f i shadergen.obj
 0002:000389e0       ??0ShaderGenBlock@Shader@FD@@QEAA@XZ 00000001800e79e0 f i shadergen.obj
 0002:00038a70       ??0ShaderGenVariable@Shader@FD@@QEAA@XZ 00000001800e7a70 f i shadergen.obj
 0002:00038ad0       ??1?$List@_K@FD@@QEAA@XZ   00000001800e7ad0 f i shadergen.obj
 0002:00038b40       ??A?$List@PEAUShaderGenBlock@Shader@FD@@@FD@@QEAAAEAPEAUShaderGenBlock@Shader@1@_K@Z 00000001800e7b40 f i shadergen.obj
 0002:00038ba0       ??A?$List@PEAUShaderGenVariable@Shader@FD@@@FD@@QEAAAEAPEAUShaderGenVariable@Shader@1@_K@Z 00000001800e7ba0 f i shadergen.obj
 0002:00038c00       ??A?$List@_K@FD@@QEAAAEA_K_K@Z 00000001800e7c00 f i shadergen.obj
 0002:00038c60       ?Get@?$List@PEAUShaderGenBlock@Shader@FD@@@FD@@QEBAPEAUShaderGenBlock@Shader@2@_K@Z 00000001800e7c60 f i shadergen.obj
 0002:00038cc0       ?Get@?$List@PEAUShaderGenVariable@Shader@FD@@@FD@@QEBAPEAUShaderGenVariable@Shader@2@_K@Z 00000001800e7cc0 f i shadergen.obj
 0002:00038d20       ?GetSize@?$List@PEAUShaderGenBlock@Shader@FD@@@FD@@QEBA?B_KXZ 00000001800e7d20 f i shadergen.obj
 0002:00038d70       ?GetSize@?$List@PEAUShaderGenVariable@Shader@FD@@@FD@@QEBA?B_KXZ 00000001800e7d70 f i shadergen.obj
 0002:00038dc0       ?GetSize@?$List@_K@FD@@QEBA?B_KXZ 00000001800e7dc0 f i shadergen.obj
 0002:00038e10       ?GetSizeInBytes@?$List@PEAUShaderGenBlock@Shader@FD@@@FD@@QEBA?B_KXZ 00000001800e7e10 f i shadergen.obj
 0002:00038e70       ?GetSizeInBytes@?$List@PEAUShaderGenVariable@Shader@FD@@@FD@@QEBA?B_KXZ 00000001800e7e70 f i shadergen.obj
 0002:00038ed0       ?GetSizeInBytes@?$List@_K@FD@@QEBA?B_KXZ 00000001800e7ed0 f i shadergen.obj
 0002:00039070       ?Push_back@?$List@PEAUShaderGenBlock@Shader@FD@@@FD@@QEAAXPEAUShaderGenBlock@Shader@2@@Z 00000001800e8070 f i shadergen.obj
 0002:00039150       ?Push_back@?$List@PEAUShaderGenVariable@Shader@FD@@@FD@@QEAAXPEAUShaderGenVariable@Shader@2@@Z 00000001800e8150 f i shadergen.obj
 0002:00039230       ?Push_back@?$List@_K@FD@@QEAAX_K@Z 00000001800e8230 f i shadergen.obj
 0002:00039310       ?Remove@?$List@PEAUShaderGenVariable@Shader@FD@@@FD@@QEAAPEAUShaderGenVariable@Shader@2@PEAU342@@Z 00000001800e8310 f i shadergen.obj
 0002:000394a0       ?RemoveIndex@?$List@PEAUShaderGenVariable@Shader@FD@@@FD@@QEAAPEAUShaderGenVariable@Shader@2@_K@Z 00000001800e84a0 f i shadergen.obj
 0002:000395b0       ?Reserve@?$List@PEAUShaderGenBlock@Shader@FD@@@FD@@QEAAX_K@Z 00000001800e85b0 f i shadergen.obj
 0002:00039700       ?Reserve@?$List@PEAUShaderGenVariable@Shader@FD@@@FD@@QEAAX_K@Z 00000001800e8700 f i shadergen.obj
 0002:00039850       ?Reserve@?$List@_K@FD@@QEAAX_K@Z 00000001800e8850 f i shadergen.obj
 0002:000399a0       ?ShaderGenAddVariableData@Shader@FD@@AEAAXAEAVString@2@W4FD_SHADER_TYPE@2@@Z 00000001800e89a0 f   shadergen.obj
 0002:00039d00       ?ShaderGenComplete@Shader@FD@@QEAAXXZ 00000001800e8d00 f   shadergen.obj
 0002:00039ec0       ?ShaderGenGetBlock@Shader@FD@@QEAA?AVString@2@AEBV32@W4FD_SHADER_TYPE@2@@Z 00000001800e8ec0 f   shadergen.obj
 0002:0003a060       ?ShaderGenGetParametersFromFunction@Shader@FD@@AEAAXAEBVString@2@_KZZ 00000001800e9060 f   shadergen.obj
 0002:0003a450       ?ShaderGenGetVariable@Shader@FD@@QEAAMAEBVString@2@W4FD_SHADER_TYPE@2@@Z 00000001800e9450 f   shadergen.obj
 0002:0003a510       ?ShaderGenGetVariableInternal@Shader@FD@@AEAAPEAUShaderGenVariable@12@AEBVString@2@W4FD_SHADER_TYPE@2@@Z 00000001800e9510 f   shadergen.obj
 0002:0003a600       ?ShaderGenIsBlockDefined@Shader@FD@@AEAA_NAEBVString@2@W4FD_SHADER_TYPE@2@@Z 00000001800e9600 f   shadergen.obj
 0002:0003a6f0       ?ShaderGenIsVariableDefined@Shader@FD@@AEAA_NAEBVString@2@W4FD_SHADER_TYPE@2@@Z 00000001800e96f0 f   shadergen.obj
 0002:0003a790       ?ShaderGenParseDefinitions@Shader@FD@@AEAAXAEAVString@2@W4FD_SHADER_TYPE@2@@Z 00000001800e9790 f   shadergen.obj
 0002:0003b500       ?ShaderGenProcessArithmeticOperations@Shader@FD@@AEAAXAEAVString@2@W4FD_SHADER_TYPE@2@@Z 00000001800ea500 f   shadergen.obj
 0002:0003c780       ?ShaderGenProcessConditions@Shader@FD@@AEAAXAEAVString@2@W4FD_SHADER_TYPE@2@@Z 00000001800eb780 f   shadergen.obj
 0002:0003d240       ?ShaderGenProcessFunction@Shader@FD@@AEAA_NVString@2@W4FD_SHADER_TYPE@2@@Z 00000001800ec240 f   shadergen.obj
 0002:0003e5b0       ?ShaderGenProcessGeneration@Shader@FD@@AEAAXAEAVString@2@W4FD_SHADER_TYPE@2@@Z 00000001800ed5b0 f   shadergen.obj
 0002:0003f200       ?ShaderGenSetVariable@Shader@FD@@QEAAXAEBVString@2@W4FD_SHADER_TYPE@2@M@Z 00000001800ee200 f   shadergen.obj
 0002:0003f480       ?ShaderGenUndefVariable@Shader@FD@@QEAAXAEBVString@2@W4FD_SHADER_TYPE@2@@Z 00000001800ee480 f   shadergen.obj
 0002:0003f5a0       ?__autoclassinit2@?$List@_K@FD@@QEAAX_K@Z 00000001800ee5a0 f i shadergen.obj
 0002:0003f600       _vsnprintf_l               00000001800ee600 f i shadergen.obj
 0002:0003f6e0       _vsprintf_l                00000001800ee6e0 f i shadergen.obj
 0002:0003f770       sprintf                    00000001800ee770 f i shadergen.obj
 0002:0003f850       ??0ShaderStructInfo@Shader@FD@@QEAA@XZ 00000001800ee850 f i shaderparser.obj
 0002:0003f8f0       ??0ShaderTextureInfo@Shader@FD@@QEAA@XZ 00000001800ee8f0 f i shaderparser.obj
 0002:0003f950       ?CalcStructSize@Shader@FD@@AEAAXAEAVString@2@_KPEAUShaderStructInfo@12@@Z 00000001800ee950 f   shaderparser.obj
 0002:0003fe70       ?GetSizeInBytes@?$List@PEAUShaderStructInfo@Shader@FD@@@FD@@QEBA?B_KXZ 00000001800eee70 f i shaderparser.obj
 0002:0003fed0       ?GetSizeInBytes@?$List@PEAUShaderTextureInfo@Shader@FD@@@FD@@QEBA?B_KXZ 00000001800eeed0 f i shaderparser.obj
 0002:0003ff30       ?ParseStructs@Shader@FD@@AEAAXVString@2@W4FD_SHADER_TYPE@2@@Z 00000001800eef30 f   shaderparser.obj
 0002:00040330       ?ParseTextures@Shader@FD@@AEAAXVString@2@@Z 00000001800ef330 f   shaderparser.obj
 0002:00040b90       ?Push_back@?$List@PEAUShaderStructInfo@Shader@FD@@@FD@@QEAAXPEAUShaderStructInfo@Shader@2@@Z 00000001800efb90 f i shaderparser.obj
 0002:00040c70       ?Push_back@?$List@PEAUShaderTextureInfo@Shader@FD@@@FD@@QEAAXPEAUShaderTextureInfo@Shader@2@@Z 00000001800efc70 f i shaderparser.obj
 0002:00040d50       ?RemoveComments@Shader@FD@@AEAAXAEAVString@2@@Z 00000001800efd50 f   shaderparser.obj
 0002:00040f60       ?Reserve@?$List@PEAUShaderStructInfo@Shader@FD@@@FD@@QEAAX_K@Z 00000001800eff60 f i shaderparser.obj
 0002:000410b0       ?Reserve@?$List@PEAUShaderTextureInfo@Shader@FD@@@FD@@QEAAX_K@Z 00000001800f00b0 f i shaderparser.obj
 0002:00041560       ??0Framebuffer2D@FD@@QEAA@IIW4FD_TEXTURE_FORMAT@1@_N@Z 00000001800f0560 f   framebuffer2d.obj
 0002:00041cb0       ??1Framebuffer2D@FD@@UEAA@XZ 00000001800f0cb0 f   framebuffer2d.obj
 0002:00041e00       ?Bind@Framebuffer2D@FD@@UEAAXI@Z 00000001800f0e00 f   framebuffer2d.obj
 0002:00041ea0       ?BindAsRenderTarget@Framebuffer2D@FD@@QEAAXXZ 00000001800f0ea0 f   framebuffer2d.obj
 0002:00041f50       ?Load@Texture@FD@@SAPEAEAEBVString@2@PEAI11@Z 00000001800f0f50 f   texture.obj
 0002:00042350       ?Load@Texture@FD@@SAPEAEPEAXPEAI11@Z 00000001800f1350 f   texture.obj
 0002:000426c0       ??0Texture2D@FD@@QEAA@AEBVString@1@@Z 00000001800f16c0 f   texture2d.obj
 0002:00042a80       ??0Texture2D@FD@@QEAA@PEAXIIW4FD_TEXTURE_FORMAT@1@@Z 00000001800f1a80 f   texture2d.obj
 0002:00042ea0       ??1Texture2D@FD@@UEAA@XZ   00000001800f1ea0 f   texture2d.obj
 0002:00042f60       ?Bind@Texture2D@FD@@UEAAXI@Z 00000001800f1f60 f   texture2d.obj
 0002:00043000       ??0?$List@PEAD@FD@@QEAA@AEBV01@@Z 00000001800f2000 f i texturemanager.obj
 0002:00043120       ??0?$List@PEAD@FD@@QEAA@XZ 00000001800f2120 f i texturemanager.obj
 0002:000431c0       ??0?$Map@PEADPEAVTexture@FD@@@FD@@QEAA@I@Z 00000001800f21c0 f i texturemanager.obj
 0002:00043290       ??1?$List@PEAD@FD@@QEAA@XZ 00000001800f2290 f i texturemanager.obj
 0002:00043300       ??1?$Map@PEADPEAVTexture@FD@@@FD@@QEAA@XZ 00000001800f2300 f i texturemanager.obj
 0002:00043370       ??6?$List@PEAD@FD@@QEAAXPEAD@Z 00000001800f2370 f i texturemanager.obj
 0002:000433d0       ??6?$List@PEAVTexture@FD@@@FD@@QEAAXPEAVTexture@1@@Z 00000001800f23d0 f i texturemanager.obj
 0002:00043430       ??A?$List@PEAD@FD@@QEAAAEAPEAD_K@Z 00000001800f2430 f i texturemanager.obj
 0002:00043490       ?Add@?$Map@PEADPEAVTexture@FD@@@FD@@QEAAXPEAVTexture@2@PEAD@Z 00000001800f2490 f i texturemanager.obj
 0002:00043520       ?Add@TextureManager@FD@@SAXAEBVString@2@PEAVTexture@2@@Z 00000001800f2520 f   texturemanager.obj
 0002:00043740       ?Dispose@TextureManager@FD@@SAXXZ 00000001800f2740 f   texturemanager.obj
 0002:000437e0       ?Find@?$List@PEAD@FD@@QEBA_KPEAD@Z 00000001800f27e0 f i texturemanager.obj
 0002:00043890       ?Free@?$List@PEAVTexture@FD@@@FD@@QEAAX_N@Z 00000001800f2890 f i texturemanager.obj
 0002:00043aa0       ?Get@?$List@PEAVTexture@FD@@@FD@@QEBAPEAVTexture@2@_K@Z 00000001800f2aa0 f i texturemanager.obj
 0002:00043b00       ?Get@TextureManager@FD@@SAPEAVTexture@2@AEBVString@2@@Z 00000001800f2b00 f   texturemanager.obj
 0002:00043ca0       ?GetDataList@?$Map@PEADPEAVTexture@FD@@@FD@@QEBA?AV?$List@PEAVTexture@FD@@@2@XZ 00000001800f2ca0 f i texturemanager.obj
 0002:00043d30       ?GetItems@?$Map@PEADPEAVTexture@FD@@@FD@@QEBA_KXZ 00000001800f2d30 f i texturemanager.obj
 0002:00043d90       ?GetKeyList@?$Map@PEADPEAVTexture@FD@@@FD@@QEBA?AV?$List@PEAD@2@XZ 00000001800f2d90 f i texturemanager.obj
 0002:00043e20       ?GetSize@?$List@PEAD@FD@@QEBA?B_KXZ 00000001800f2e20 f i texturemanager.obj
 0002:00043e70       ?GetSizeInBytes@?$List@PEAD@FD@@QEBA?B_KXZ 00000001800f2e70 f i texturemanager.obj
 0002:00043ed0       ?Init@TextureManager@FD@@SAXXZ 00000001800f2ed0 f   texturemanager.obj
 0002:00044130       ?Push_back@?$List@PEAD@FD@@QEAAXPEAD@Z 00000001800f3130 f i texturemanager.obj
 0002:00044210       ?Push_back@?$List@PEAVTexture@FD@@@FD@@QEAAXPEAVTexture@2@@Z 00000001800f3210 f i texturemanager.obj
 0002:000442f0       ?Reserve@?$List@PEAD@FD@@QEAAX_K@Z 00000001800f32f0 f i texturemanager.obj
 0002:00044440       ?Reserve@?$Map@PEADPEAVTexture@FD@@@FD@@QEAAXI@Z 00000001800f3440 f i texturemanager.obj
 0002:000444c0       ?Retrieve@?$Map@PEADPEAVTexture@FD@@@FD@@QEBAPEAVTexture@2@PEAD@Z 00000001800f34c0 f i texturemanager.obj
 0002:00044560       ?__autoclassinit2@?$Map@PEADPEAVTexture@FD@@@FD@@QEAAX_K@Z 00000001800f3560 f i texturemanager.obj
 0002:000445c0       ??0mat3@FD@@QEAA@M@Z       00000001800f35c0 f   mat3.obj
 0002:000446a0       ??0mat3@FD@@QEAA@XZ        00000001800f36a0 f   mat3.obj
 0002:00044710       ??Dmat3@FD@@QEAA?AV01@AEBV01@@Z 00000001800f3710 f   mat3.obj
 0002:00044920       ??Dmat3@FD@@QEAA?AVvec3@1@AEBV21@@Z 00000001800f3920 f   mat3.obj
 0002:00044c00       ?LoadColumns@mat3@FD@@AEBAXPEAT__m128@@@Z 00000001800f3c00 f   mat3.obj
 0002:00044df0       ?LoadRows@mat3@FD@@AEBAXPEAT__m128@@@Z 00000001800f3df0 f   mat3.obj
 0002:00044fe0       ?Rotate@mat3@FD@@SA?AV12@AEBVvec3@2@@Z 00000001800f3fe0 f   mat3.obj
 0002:00045370       ?Scale@mat3@FD@@SA?AV12@AEBVvec3@2@@Z 00000001800f4370 f   mat3.obj
 0002:000454a0       ??0mat4@FD@@QEAA@M@Z       00000001800f44a0 f   mat4.obj
 0002:000455a0       ??0mat4@FD@@QEAA@XZ        00000001800f45a0 f   mat4.obj
 0002:00045610       ??Dmat4@FD@@QEAA?AV01@AEBV01@@Z 00000001800f4610 f   mat4.obj
 0002:00045830       ??Dmat4@FD@@QEAA?AVvec3@1@AEBV21@@Z 00000001800f4830 f   mat4.obj
 0002:00045ac0       ??Dmat4@FD@@QEAA?AVvec4@1@AEBV21@@Z 00000001800f4ac0 f   mat4.obj
 0002:00045d80       ?LoadColumns@mat4@FD@@AEBAXPEAT__m128@@@Z 00000001800f4d80 f   mat4.obj
 0002:00046060       ?LoadRows@mat4@FD@@AEBAXPEAT__m128@@@Z 00000001800f5060 f   mat4.obj
 0002:00046340       ?Orthographic@mat4@FD@@SA?AV12@MMMMMM@Z 00000001800f5340 f   mat4.obj
 0002:000465e0       ?Perspective@mat4@FD@@SA?AV12@MMMM@Z 00000001800f55e0 f   mat4.obj
 0002:00046820       ?Rotate@mat4@FD@@SA?AV12@AEBVvec3@2@@Z 00000001800f5820 f   mat4.obj
 0002:00046bb0       ?Scale@mat4@FD@@SA?AV12@AEBVvec3@2@@Z 00000001800f5bb0 f   mat4.obj
 0002:00046ce0       ?Translate@mat4@FD@@SA?AV12@AEBVvec3@2@@Z 00000001800f5ce0 f   mat4.obj
 0002:00046e10       ?tanh@@YAMM@Z              00000001800f5e10 f i mat4.obj
 0002:00046e60       ??0ivec2@FD@@QEAA@HH@Z     00000001800f5e60 f   vec2.obj
 0002:00046ee0       ??0ivec2@FD@@QEAA@XZ       00000001800f5ee0 f   vec2.obj
 0002:00046f50       ??0vec2@FD@@QEAA@MM@Z      00000001800f5f50 f   vec2.obj
 0002:00046fe0       ??0vec2@FD@@QEAA@XZ        00000001800f5fe0 f   vec2.obj
 0002:00047050       ??8ivec2@FD@@QEBA_NAEBV01@@Z 00000001800f6050 f   vec2.obj
 0002:000470f0       ??8vec2@FD@@QEBA_NAEBV01@@Z 00000001800f60f0 f   vec2.obj
 0002:00047190       ??9ivec2@FD@@QEBA_NAEBV01@@Z 00000001800f6190 f   vec2.obj
 0002:00047230       ??9vec2@FD@@QEBA_NAEBV01@@Z 00000001800f6230 f   vec2.obj
 0002:000472d0       ?Add@ivec2@FD@@QEAAAEAV12@AEBV12@@Z 00000001800f62d0 f   vec2.obj
 0002:00047460       ?Add@ivec2@FD@@QEAAAEAV12@H@Z 00000001800f6460 f   vec2.obj
 0002:000475e0       ?Add@vec2@FD@@QEAAAEAV12@AEBV12@@Z 00000001800f65e0 f   vec2.obj
 0002:00047750       ?Add@vec2@FD@@QEAAAEAV12@M@Z 00000001800f6750 f   vec2.obj
 0002:000478b0       ?Divide@ivec2@FD@@QEAAAEAV12@AEBV12@@Z 00000001800f68b0 f   vec2.obj
 0002:00047950       ?Divide@ivec2@FD@@QEAAAEAV12@H@Z 00000001800f6950 f   vec2.obj
 0002:000479e0       ?Divide@vec2@FD@@QEAAAEAV12@AEBV12@@Z 00000001800f69e0 f   vec2.obj
 0002:00047b50       ?Divide@vec2@FD@@QEAAAEAV12@M@Z 00000001800f6b50 f   vec2.obj
 0002:00047cb0       ?Multiply@ivec2@FD@@QEAAAEAV12@AEBV12@@Z 00000001800f6cb0 f   vec2.obj
 0002:00047e20       ?Multiply@ivec2@FD@@QEAAAEAV12@H@Z 00000001800f6e20 f   vec2.obj
 0002:00047f80       ?Multiply@vec2@FD@@QEAAAEAV12@AEBV12@@Z 00000001800f6f80 f   vec2.obj
 0002:000480f0       ?Multiply@vec2@FD@@QEAAAEAV12@M@Z 00000001800f70f0 f   vec2.obj
 0002:00048250       ?Subtract@ivec2@FD@@QEAAAEAV12@AEBV12@@Z 00000001800f7250 f   vec2.obj
 0002:000483e0       ?Subtract@ivec2@FD@@QEAAAEAV12@H@Z 00000001800f73e0 f   vec2.obj
 0002:00048560       ?Subtract@vec2@FD@@QEAAAEAV12@AEBV12@@Z 00000001800f7560 f   vec2.obj
 0002:000486d0       ?Subtract@vec2@FD@@QEAAAEAV12@M@Z 00000001800f76d0 f   vec2.obj
 0002:00048830       ??0ivec3@FD@@QEAA@AEBVivec2@1@H@Z 00000001800f7830 f   vec3.obj
 0002:000488c0       ??0ivec3@FD@@QEAA@HHH@Z    00000001800f78c0 f   vec3.obj
 0002:00048960       ??0ivec3@FD@@QEAA@XZ       00000001800f7960 f   vec3.obj
 0002:000489e0       ??0vec3@FD@@QEAA@AEBVvec2@1@M@Z 00000001800f79e0 f   vec3.obj
 0002:00048a70       ??0vec3@FD@@QEAA@MMM@Z     00000001800f7a70 f   vec3.obj
 0002:00048b20       ??0vec3@FD@@QEAA@XZ        00000001800f7b20 f   vec3.obj
 0002:00048ba0       ??8ivec3@FD@@QEBA_NAEBV01@@Z 00000001800f7ba0 f   vec3.obj
 0002:00048c60       ??8vec3@FD@@QEBA_NAEBV01@@Z 00000001800f7c60 f   vec3.obj
 0002:00048d20       ??9ivec3@FD@@QEBA_NAEBV01@@Z 00000001800f7d20 f   vec3.obj
 0002:00048de0       ??9vec3@FD@@QEBA_NAEBV01@@Z 00000001800f7de0 f   vec3.obj
 0002:00048ea0       ?Add@ivec3@FD@@QEAAAEAV12@AEBV12@@Z 00000001800f7ea0 f   vec3.obj
 0002:00049040       ?Add@ivec3@FD@@QEAAAEAV12@H@Z 00000001800f8040 f   vec3.obj
 0002:000491c0       ?Add@vec3@FD@@QEAAAEAV12@AEBV12@@Z 00000001800f81c0 f   vec3.obj
 0002:00049340       ?Add@vec3@FD@@QEAAAEAV12@M@Z 00000001800f8340 f   vec3.obj
 0002:000494b0       ?Cross@vec3@FD@@QEAA?AV12@AEBV12@@Z 00000001800f84b0 f   vec3.obj
 0002:00049600       ?Divide@ivec3@FD@@QEAAAEAV12@AEBV12@@Z 00000001800f8600 f   vec3.obj
 0002:000496c0       ?Divide@ivec3@FD@@QEAAAEAV12@H@Z 00000001800f86c0 f   vec3.obj
 0002:00049770       ?Divide@vec3@FD@@QEAAAEAV12@AEBV12@@Z 00000001800f8770 f   vec3.obj
 0002:000498f0       ?Divide@vec3@FD@@QEAAAEAV12@M@Z 00000001800f88f0 f   vec3.obj
 0002:00049a60       ?Dot@vec3@FD@@QEAAMAEBV12@@Z 00000001800f8a60 f   vec3.obj
 0002:00049bd0       ?Multiply@ivec3@FD@@QEAAAEAV12@AEBV12@@Z 00000001800f8bd0 f   vec3.obj
 0002:00049da0       ?Multiply@ivec3@FD@@QEAAAEAV12@H@Z 00000001800f8da0 f   vec3.obj
 0002:00049f40       ?Multiply@vec3@FD@@QEAAAEAV12@AEBV12@@Z 00000001800f8f40 f   vec3.obj
 0002:0004a0c0       ?Multiply@vec3@FD@@QEAAAEAV12@M@Z 00000001800f90c0 f   vec3.obj
 0002:0004a230       ?RotateX@vec3@FD@@QEAAAEAV12@M@Z 00000001800f9230 f   vec3.obj
 0002:0004a3b0       ?RotateY@vec3@FD@@QEAAAEAV12@M@Z 00000001800f93b0 f   vec3.obj
 0002:0004a520       ?RotateZ@vec3@FD@@QEAAAEAV12@M@Z 00000001800f9520 f   vec3.obj
 0002:0004a690       ?Subtract@ivec3@FD@@QEAAAEAV12@AEBV12@@Z 00000001800f9690 f   vec3.obj
 0002:0004a830       ?Subtract@ivec3@FD@@QEAAAEAV12@H@Z 00000001800f9830 f   vec3.obj
 0002:0004a9b0       ?Subtract@vec3@FD@@QEAAAEAV12@AEBV12@@Z 00000001800f99b0 f   vec3.obj
 0002:0004ab30       ?Subtract@vec3@FD@@QEAAAEAV12@M@Z 00000001800f9b30 f   vec3.obj
 0002:0004aca0       ??0ivec4@FD@@QEAA@AEBVivec2@1@HH@Z 00000001800f9ca0 f   vec4.obj
 0002:0004ad60       ??0ivec4@FD@@QEAA@AEBVivec3@1@H@Z 00000001800f9d60 f   vec4.obj
 0002:0004ae10       ??0ivec4@FD@@QEAA@HHHH@Z   00000001800f9e10 f   vec4.obj
 0002:0004aec0       ??0ivec4@FD@@QEAA@XZ       00000001800f9ec0 f   vec4.obj
 0002:0004af30       ??0vec4@FD@@QEAA@AEBVvec2@1@MM@Z 00000001800f9f30 f   vec4.obj
 0002:0004b000       ??0vec4@FD@@QEAA@AEBVvec3@1@M@Z 00000001800fa000 f   vec4.obj
 0002:0004b0d0       ??0vec4@FD@@QEAA@MMMM@Z    00000001800fa0d0 f   vec4.obj
 0002:0004b190       ??0vec4@FD@@QEAA@XZ        00000001800fa190 f   vec4.obj
 0002:0004b200       ??8ivec4@FD@@QEBA_NAEBV01@@Z 00000001800fa200 f   vec4.obj
 0002:0004b2e0       ??8vec4@FD@@QEBA_NAEBV01@@Z 00000001800fa2e0 f   vec4.obj
 0002:0004b3c0       ??9ivec4@FD@@QEBA_NAEBV01@@Z 00000001800fa3c0 f   vec4.obj
 0002:0004b4a0       ??9vec4@FD@@QEBA_NAEBV01@@Z 00000001800fa4a0 f   vec4.obj
 0002:0004b580       ?Add@ivec4@FD@@QEAAAEAV12@AEBV12@@Z 00000001800fa580 f   vec4.obj
 0002:0004b730       ?Add@ivec4@FD@@QEAAAEAV12@H@Z 00000001800fa730 f   vec4.obj
 0002:0004b890       ?Add@vec4@FD@@QEAAAEAV12@AEBV12@@Z 00000001800fa890 f   vec4.obj
 0002:0004ba20       ?Add@vec4@FD@@QEAAAEAV12@M@Z 00000001800faa20 f   vec4.obj
 0002:0004bb70       ?Divide@ivec4@FD@@QEAAAEAV12@AEBV12@@Z 00000001800fab70 f   vec4.obj
 0002:0004bc60       ?Divide@ivec4@FD@@QEAAAEAV12@H@Z 00000001800fac60 f   vec4.obj
 0002:0004bd30       ?Divide@vec4@FD@@QEAAAEAV12@AEBV12@@Z 00000001800fad30 f   vec4.obj
 0002:0004bec0       ?Divide@vec4@FD@@QEAAAEAV12@M@Z 00000001800faec0 f   vec4.obj
 0002:0004c010       ?Multiply@ivec4@FD@@QEAAAEAV12@AEBV12@@Z 00000001800fb010 f   vec4.obj
 0002:0004c220       ?Multiply@ivec4@FD@@QEAAAEAV12@H@Z 00000001800fb220 f   vec4.obj
 0002:0004c3f0       ?Multiply@vec4@FD@@QEAAAEAV12@AEBV12@@Z 00000001800fb3f0 f   vec4.obj
 0002:0004c580       ?Multiply@vec4@FD@@QEAAAEAV12@M@Z 00000001800fb580 f   vec4.obj
 0002:0004c6d0       ?Subtract@ivec4@FD@@QEAAAEAV12@AEBV12@@Z 00000001800fb6d0 f   vec4.obj
 0002:0004c880       ?Subtract@ivec4@FD@@QEAAAEAV12@H@Z 00000001800fb880 f   vec4.obj
 0002:0004c9e0       ?Subtract@vec4@FD@@QEAAAEAV12@AEBV12@@Z 00000001800fb9e0 f   vec4.obj
 0002:0004cb70       ?Subtract@vec4@FD@@QEAAAEAV12@M@Z 00000001800fbb70 f   vec4.obj
 0002:0004ccc0       ??0Asset@FD@@QEAA@PEBV01@@Z 00000001800fbcc0 f   asset.obj
 0002:0004ce70       ?GetFont@Asset@FD@@QEBAPEAVFont@2@IVivec2@2@@Z 00000001800fbe70 f   asset.obj
 0002:0004cfc0       ?GetShader@Asset@FD@@QEBAPEAVShader@2@XZ 00000001800fbfc0 f   asset.obj
 0002:0004d1c0       ?GetString@Asset@FD@@QEBA?AVString@2@XZ 00000001800fc1c0 f   asset.obj
 0002:0004d2c0       ?GetTexture@Asset@FD@@QEBAPEAVTexture@2@XZ 00000001800fc2c0 f   asset.obj
 0002:0004d4e0       ??0PACKAGE_HEADER@AssetManager@FD@@QEAA@XZ 00000001800fc4e0 f i assetmanager.obj
 0002:0004d560       ??A?$List@PEAVAsset@FD@@@FD@@QEAAAEAPEAVAsset@1@_K@Z 00000001800fc560 f i assetmanager.obj
 0002:0004d5c0       ??_GAsset@FD@@QEAAPEAXI@Z  00000001800fc5c0 f i assetmanager.obj
 0002:0004d650       ?ExportPackage@AssetManager@FD@@SA_NAEBVString@2@PEBVPackage@2@@Z 00000001800fc650 f   assetmanager.obj
 0002:0004da30       ?Get@?$List@PEAVAsset@FD@@@FD@@QEBAPEAVAsset@2@_K@Z 00000001800fca30 f i assetmanager.obj
 0002:0004da90       ?GetAsset@AssetManager@FD@@SAPEAVAsset@2@AEBVString@2@@Z 00000001800fca90 f   assetmanager.obj
 0002:0004db70       ?GetAssetsByFolder@AssetManager@FD@@SA?AV?$List@PEAVAsset@FD@@@2@AEBVString@2@@Z 00000001800fcb70 f   assetmanager.obj
 0002:0004dd10       ?GetAssetsByPackage@AssetManager@FD@@SA?AV?$List@PEAVAsset@FD@@@2@AEBVString@2@@Z 00000001800fcd10 f   assetmanager.obj
 0002:0004deb0       ?GetAssetsByType@AssetManager@FD@@SA?AV?$List@PEAVAsset@FD@@@2@W4FD_ASSET_TYPE@2@@Z 00000001800fceb0 f   assetmanager.obj
 0002:0004e040       ?GetSize@?$List@PEAVAsset@FD@@@FD@@QEBA?B_KXZ 00000001800fd040 f i assetmanager.obj
 0002:0004e090       ?GetSizeInBytes@?$List@PEAVAsset@FD@@@FD@@QEBA?B_KXZ 00000001800fd090 f i assetmanager.obj
 0002:0004e0f0       ?LoadPackage@AssetManager@FD@@SAXPEBVPackage@2@@Z 00000001800fd0f0 f   assetmanager.obj
 0002:0004e1b0       ?LoadPackage@AssetManager@FD@@SA_NAEBVString@2@PEAV32@@Z 00000001800fd1b0 f   assetmanager.obj
 0002:0004e6f0       ?MakePackage@AssetManager@FD@@SAPEAVPackage@2@AEBVString@2@@Z 00000001800fd6f0 f   assetmanager.obj
 0002:0004e840       ?Push_back@?$List@PEAVAsset@FD@@@FD@@QEAAXPEAVAsset@2@@Z 00000001800fd840 f i assetmanager.obj
 0002:0004e920       ?Remove@?$List@PEAVAsset@FD@@@FD@@QEAAPEAVAsset@2@PEAV32@@Z 00000001800fd920 f i assetmanager.obj
 0002:0004e9e0       ?RemoveIndex@?$List@PEAVAsset@FD@@@FD@@QEAAPEAVAsset@2@_K@Z 00000001800fd9e0 f i assetmanager.obj
 0002:0004eaf0       ?Reserve@?$List@PEAVAsset@FD@@@FD@@QEAAX_K@Z 00000001800fdaf0 f i assetmanager.obj
 0002:0004ec40       ?UnloadPackage@AssetManager@FD@@SAXAEBVString@2@@Z 00000001800fdc40 f   assetmanager.obj
 0002:0004eed0       ?ValidatePackageHeader@AssetManager@FD@@CA_NPEAUPACKAGE_HEADER@12@AEBVString@2@@Z 00000001800fded0 f   assetmanager.obj
 0002:0004f090       ?__autoclassinit2@?$List@PEAVAsset@FD@@@FD@@QEAAX_K@Z 00000001800fe090 f i assetmanager.obj
 0002:0004f0f0       ?AddAsset@Package@FD@@QEAAXPEAVAsset@2@@Z 00000001800fe0f0 f   package.obj
 0002:0004f210       ?FDReadBinaryFile@FD@@YAPEAEAEBVString@1@PEA_K@Z 00000001800fe210 f   fileutils.obj
 0002:0004f370       ?FDReadTextFile@FD@@YA?AVString@1@AEBV21@@Z 00000001800fe370 f   fileutils.obj
 0002:0004f530       ?FDWriteFile@FD@@YA_KPEAU_iobuf@@PEBX_K2@Z 00000001800fe530 f   fileutils.obj
 0002:0004f5d0       ?FDWriteFile@FD@@YA_KPEAU_iobuf@@PEBX_K@Z 00000001800fe5d0 f   fileutils.obj
 0002:0004f650       ?FDWriteFile@FD@@YA_KPEAU_iobuf@@PEBX_KPEA_K@Z 00000001800fe650 f   fileutils.obj
 0002:0004f710       ??$move@AEAV?$List@PEAVString@FD@@@FD@@@std@@YA$$QEAV?$List@PEAVString@FD@@@FD@@AEAV12@@Z 00000001800fe710 f i string.obj
 0002:0004f760       ??$move@AEAVString@FD@@@std@@YA$$QEAVString@FD@@AEAV12@@Z 00000001800fe760 f i string.obj
 0002:0004f7b0       ??0?$List@PEAVString@FD@@@FD@@QEAA@$$QEAV01@@Z 00000001800fe7b0 f i string.obj
 0002:0004f840       ??0?$List@PEAVString@FD@@@FD@@QEAA@_K0@Z 00000001800fe840 f i string.obj
 0002:0004f920       ??0String@FD@@QEAA@$$QEAV01@@Z 00000001800fe920 f   string.obj
 0002:0004f9d0       ??0String@FD@@QEAA@AEBV01@@Z 00000001800fe9d0 f   string.obj
 0002:0004fad0       ??0String@FD@@QEAA@PEAD_K_N@Z 00000001800fead0 f   string.obj
 0002:0004fc50       ??0String@FD@@QEAA@PEBD@Z  00000001800fec50 f   string.obj
 0002:0004fd90       ??0String@FD@@QEAA@PEBV01@@Z 00000001800fed90 f   string.obj
 0002:0004fe90       ??1String@FD@@QEAA@XZ      00000001800fee90 f   string.obj
 0002:0004ff20       ??4?$List@PEAVString@FD@@@FD@@QEAAAEAV01@$$QEAV01@@Z 00000001800fef20 f i string.obj
 0002:00050040       ??4String@FD@@QEAAAEAV01@$$QEAV01@@Z 00000001800ff040 f   string.obj
 0002:00050130       ??4String@FD@@QEAAAEAV01@AEBV01@@Z 00000001800ff130 f   string.obj
 0002:00050270       ??6?$List@PEAVString@FD@@@FD@@QEAAXPEAVString@1@@Z 00000001800ff270 f i string.obj
 0002:000502d0       ??8String@FD@@QEBA_NAEBV01@@Z 00000001800ff2d0 f   string.obj
 0002:000503b0       ??9String@FD@@QEBA_NAEBV01@@Z 00000001800ff3b0 f   string.obj
 0002:00050490       ??AString@FD@@QEBAD_K@Z    00000001800ff490 f   string.obj
 0002:000504f0       ??HString@FD@@QEBA?AV01@AEBV01@@Z 00000001800ff4f0 f   string.obj
 0002:000505e0       ?Append@String@FD@@QEAAAEAV12@AEBV12@@Z 00000001800ff5e0 f   string.obj
 0002:00050780       ?Append@String@FD@@QEAAAEAV12@D@Z 00000001800ff780 f   string.obj
 0002:00050900       ?Count@String@FD@@QEBA_KAEBV12@_K@Z 00000001800ff900 f   string.obj
 0002:00050a90       ?EndsWith@String@FD@@QEBA_NAEBV12@@Z 00000001800ffa90 f   string.obj
 0002:00050b90       ?Find@String@FD@@QEBA_KAEBV12@_K@Z 00000001800ffb90 f   string.obj
 0002:00050cf0       ?GetSizeInBytes@?$List@PEAVString@FD@@@FD@@QEBA?B_KXZ 00000001800ffcf0 f i string.obj
 0002:00050d50       ?Push_back@?$List@PEAVString@FD@@@FD@@QEAAXPEAVString@2@@Z 00000001800ffd50 f i string.obj
 0002:00050e30       ?Remove@String@FD@@QEAAAEAV12@AEBV12@@Z 00000001800ffe30 f   string.obj
 0002:00050ed0       ?Remove@String@FD@@QEAAAEAV12@_K0@Z 00000001800ffed0 f   string.obj
 0002:00051150       ?RemoveBlankspace@String@FD@@QEAAAEAV12@XZ 0000000180100150 f   string.obj
 0002:00051270       ?Reserve@?$List@PEAVString@FD@@@FD@@QEAAX_K@Z 0000000180100270 f i string.obj
 0002:000513c0       ?Split@String@FD@@QEBA?AV?$List@PEAVString@FD@@@2@D@Z 00000001801003c0 f   string.obj
 0002:000514f0       ?Split@String@FD@@QEBAXDAEAV?$List@PEAVString@FD@@@2@@Z 00000001801004f0 f   string.obj
 0002:00051760       ?StartsWith@String@FD@@QEBA_NAEBV12@@Z 0000000180100760 f   string.obj
 0002:00051840       ?SubString@String@FD@@QEBA?AV12@_K0@Z 0000000180100840 f   string.obj
 0002:00051910       ?__empty_global_delete@@YAXPEAX@Z 0000000180100910 f i string.obj
 0002:00051950       ?__empty_global_delete@@YAXPEAX_K@Z 0000000180100950 f i string.obj
 0002:000519a0       ??0?$List@VString@FD@@@FD@@QEAA@XZ 00000001801009a0 f i vfs.obj
 0002:00051a40       ??0?$Map@VString@FD@@V12@@FD@@QEAA@I@Z 0000000180100a40 f i vfs.obj
 0002:00051b10       ??0VFS@FD@@QEAA@XZ         0000000180100b10 f   vfs.obj
 0002:00051ba0       ??1?$Map@VString@FD@@V12@@FD@@QEAA@XZ 0000000180100ba0 f i vfs.obj
 0002:00051c10       ??1VFS@FD@@QEAA@XZ         0000000180100c10 f   vfs.obj
 0002:00051c70       ??6?$List@VString@FD@@@FD@@QEAAXVString@1@@Z 0000000180100c70 f i vfs.obj
 0002:00051d20       ?Add@?$Map@VString@FD@@V12@@FD@@QEAAXVString@2@0@Z 0000000180100d20 f i vfs.obj
 0002:00051e40       ?Find@?$List@VString@FD@@@FD@@QEBA_KVString@2@@Z 0000000180100e40 f i vfs.obj
 0002:00051f50       ?Get@?$List@VString@FD@@@FD@@QEBA?AVString@2@_K@Z 0000000180100f50 f i vfs.obj
 0002:00051ff0       ?GetSizeInBytes@?$List@VString@FD@@@FD@@QEBA?B_KXZ 0000000180100ff0 f i vfs.obj
 0002:00052040       ?Mount@VFS@FD@@QEAAXAEBVString@2@0@Z 0000000180101040 f   vfs.obj
 0002:00052140       ?Push_back@?$List@VString@FD@@@FD@@QEAAXVString@2@@Z 0000000180101140 f i vfs.obj
 0002:00052250       ?ReadFile@VFS@FD@@QEAAPEAEAEBVString@2@PEA_K@Z 0000000180101250 f   vfs.obj
 0002:000523b0       ?ReadTextFile@VFS@FD@@QEAA?AVString@2@AEBV32@@Z 00000001801013b0 f   vfs.obj
 0002:000524a0       ?Remove@?$Map@VString@FD@@V12@@FD@@QEAAXVString@2@@Z 00000001801014a0 f i vfs.obj
 0002:000525e0       ?RemoveIndex@?$List@VString@FD@@@FD@@QEAA?AVString@2@_K@Z 00000001801015e0 f i vfs.obj
 0002:000527a0       ?Reserve@?$List@VString@FD@@@FD@@QEAAX_K@Z 00000001801017a0 f i vfs.obj
 0002:000529d0       ?Reserve@?$Map@VString@FD@@V12@@FD@@QEAAXI@Z 00000001801019d0 f i vfs.obj
 0002:00052a50       ?ResolvePath@VFS@FD@@AEAA?AVString@2@AEBV32@@Z 0000000180101a50 f   vfs.obj
 0002:00052d70       ?Retrieve@?$Map@VString@FD@@V12@@FD@@QEBA?AVString@2@V32@@Z 0000000180101d70 f i vfs.obj
 0002:00052ec0       ?UnMount@VFS@FD@@QEAAXAEBVString@2@@Z 0000000180101ec0 f   vfs.obj
 0002:00052f54       D3D11CreateDeviceAndSwapChain 0000000180101f54 f   d3d11:d3d11.dll
 0002:00052f5a       D3DCompile                 0000000180101f5a f   d3dcompiler:D3DCOMPILER_47.dll
 0002:00052f60       FreeImage_Unload           0000000180101f60 f   FreeImage:FreeImage.dll
 0002:00052f66       FreeImage_LoadFromMemory   0000000180101f66 f   FreeImage:FreeImage.dll
 0002:00052f6c       FreeImage_GetFIFFromFilename 0000000180101f6c f   FreeImage:FreeImage.dll
 0002:00052f72       FreeImage_FIFSupportsReading 0000000180101f72 f   FreeImage:FreeImage.dll
 0002:00052f78       FreeImage_GetFileTypeFromMemory 0000000180101f78 f   FreeImage:FreeImage.dll
 0002:00052f7e       FreeImage_GetBits          0000000180101f7e f   FreeImage:FreeImage.dll
 0002:00052f84       FreeImage_GetBPP           0000000180101f84 f   FreeImage:FreeImage.dll
 0002:00052f8a       FreeImage_GetWidth         0000000180101f8a f   FreeImage:FreeImage.dll
 0002:00052f90       FreeImage_GetHeight        0000000180101f90 f   FreeImage:FreeImage.dll
 0002:00052f96       GetStdHandle               0000000180101f96 f   kernel32:KERNEL32.dll
 0002:00052f9c       GetConsoleScreenBufferInfo 0000000180101f9c f   kernel32:KERNEL32.dll
 0002:00052fa2       SetConsoleTextAttribute    0000000180101fa2 f   kernel32:KERNEL32.dll
 0002:00052fa8       ShowCursor                 0000000180101fa8 f   user32:USER32.dll
 0002:00052fae       SetCursorPos               0000000180101fae f   user32:USER32.dll
 0002:00052fb4       ClientToScreen             0000000180101fb4 f   user32:USER32.dll
 0002:00052fba       TranslateMessage           0000000180101fba f   user32:USER32.dll
 0002:00052fc0       DispatchMessageA           0000000180101fc0 f   user32:USER32.dll
 0002:00052fc6       PeekMessageA               0000000180101fc6 f   user32:USER32.dll
 0002:00052fcc       DefWindowProcA             0000000180101fcc f   user32:USER32.dll
 0002:00052fd2       RegisterClassExA           0000000180101fd2 f   user32:USER32.dll
 0002:00052fd8       CreateWindowExA            0000000180101fd8 f   user32:USER32.dll
 0002:00052fde       ShowWindow                 0000000180101fde f   user32:USER32.dll
 0002:00052fe4       GetSystemMetrics           0000000180101fe4 f   user32:USER32.dll
 0002:00052fea       GetDC                      0000000180101fea f   user32:USER32.dll
 0002:00052ff0       ReleaseDC                  0000000180101ff0 f   user32:USER32.dll
 0002:00052ff6       AdjustWindowRect           0000000180101ff6 f   user32:USER32.dll
 0002:00052ffc       LoadCursorA                0000000180101ffc f   user32:USER32.dll
 0002:00053002       LoadIconA                  0000000180102002 f   user32:USER32.dll
 0002:00053008       GetDeviceCaps              0000000180102008 f   gdi32:GDI32.dll
 0002:00053010       FT_Add_Default_Modules     0000000180102010 f   FreeType:ftinit.obj
 0002:000530f0       FT_Done_FreeType           00000001801020f0 f   FreeType:ftinit.obj
 0002:000531a0       FT_Init_FreeType           00000001801021a0 f   FreeType:ftinit.obj
 0002:000542d0       FT_Activate_Size           00000001801032d0 f   FreeType:ftbase.obj
 0002:000544a0       FT_Add_Module              00000001801034a0 f   FreeType:ftbase.obj
 0002:00054910       FT_Angle_Diff              0000000180103910 f   FreeType:ftbase.obj
 0002:000549b0       FT_Atan2                   00000001801039b0 f   FreeType:ftbase.obj
 0002:00054a60       FT_Attach_File             0000000180103a60 f   FreeType:ftbase.obj
 0002:00054b30       FT_Attach_Stream           0000000180103b30 f   FreeType:ftbase.obj
 0002:00054ce0       FT_CMap_Done               0000000180103ce0 f   FreeType:ftbase.obj
 0002:00054f40       FT_CMap_New                0000000180103f40 f   FreeType:ftbase.obj
 0002:000551a0       FT_CeilFix                 00000001801041a0 f   FreeType:ftbase.obj
 0002:000551f0       FT_Cos                     00000001801041f0 f   FreeType:ftbase.obj
 0002:00055260       FT_DivFix                  0000000180104260 f   FreeType:ftbase.obj
 0002:00055440       FT_Done_Face               0000000180104440 f   FreeType:ftbase.obj
 0002:000555c0       FT_Done_GlyphSlot          00000001801045c0 f   FreeType:ftbase.obj
 0002:00055740       FT_Done_Library            0000000180104740 f   FreeType:ftbase.obj
 0002:00055a50       FT_Done_Size               0000000180104a50 f   FreeType:ftbase.obj
 0002:00055ca0       FT_Face_GetCharVariantIndex 0000000180104ca0 f   FreeType:ftbase.obj
 0002:00055eb0       FT_Face_GetCharVariantIsDefault 0000000180104eb0 f   FreeType:ftbase.obj
 0002:00056060       FT_Face_GetCharsOfVariant  0000000180105060 f   FreeType:ftbase.obj
 0002:000561b0       FT_Face_GetVariantSelectors 00000001801051b0 f   FreeType:ftbase.obj
 0002:00056270       FT_Face_GetVariantsOfChar  0000000180105270 f   FreeType:ftbase.obj
 0002:000563c0       FT_FloorFix                00000001801053c0 f   FreeType:ftbase.obj
 0002:00056410       FT_Get_Advance             0000000180105410 f   FreeType:ftbase.obj
 0002:00056640       FT_Get_Advances            0000000180105640 f   FreeType:ftbase.obj
 0002:000569f0       FT_Get_CMap_Format         00000001801059f0 f   FreeType:ftbase.obj
 0002:00056b30       FT_Get_CMap_Language_ID    0000000180105b30 f   FreeType:ftbase.obj
 0002:00056c60       FT_Get_Char_Index          0000000180105c60 f   FreeType:ftbase.obj
 0002:00056db0       FT_Get_Charmap_Index       0000000180105db0 f   FreeType:ftbase.obj
 0002:00056ec0       FT_Get_First_Char          0000000180105ec0 f   FreeType:ftbase.obj
 0002:00056fc0       FT_Get_Glyph_Name          0000000180105fc0 f   FreeType:ftbase.obj
 0002:000572c0       FT_Get_Kerning             00000001801062c0 f   FreeType:ftbase.obj
 0002:000576e0       FT_Get_Module              00000001801066e0 f   FreeType:ftbase.obj
 0002:00057800       FT_Get_Module_Interface    0000000180106800 f   FreeType:ftbase.obj
 0002:000578a0       FT_Get_Name_Index          00000001801068a0 f   FreeType:ftbase.obj
 0002:00057a80       FT_Get_Next_Char           0000000180106a80 f   FreeType:ftbase.obj
 0002:00057bd0       FT_Get_Postscript_Name     0000000180106bd0 f   FreeType:ftbase.obj
 0002:00057d80       FT_Get_Renderer            0000000180106d80 f   FreeType:ftbase.obj
 0002:00057de0       FT_Get_Sfnt_Name           0000000180106de0 f   FreeType:ftbase.obj
 0002:000580a0       FT_Get_Sfnt_Name_Count     00000001801070a0 f   FreeType:ftbase.obj
 0002:00058130       FT_Get_Sfnt_Table          0000000180107130 f   FreeType:ftbase.obj
 0002:00058230       FT_Get_SubGlyph_Info       0000000180107230 f   FreeType:ftbase.obj
 0002:00058390       FT_Get_Track_Kerning       0000000180107390 f   FreeType:ftbase.obj
 0002:00058530       FT_Get_TrueType_Engine_Type 0000000180107530 f   FreeType:ftbase.obj
 0002:000585e0       FT_GlyphLoader_Add         00000001801075e0 f   FreeType:ftbase.obj
 0002:00058910       FT_GlyphLoader_CheckPoints 0000000180107910 f   FreeType:ftbase.obj
 0002:00058d90       FT_GlyphLoader_CheckSubGlyphs 0000000180107d90 f   FreeType:ftbase.obj
 0002:00058f00       FT_GlyphLoader_CopyPoints  0000000180107f00 f   FreeType:ftbase.obj
 0002:000590f0       FT_GlyphLoader_CreateExtra 00000001801080f0 f   FreeType:ftbase.obj
 0002:00059200       FT_GlyphLoader_Done        0000000180108200 f   FreeType:ftbase.obj
 0002:000592a0       FT_GlyphLoader_New         00000001801082a0 f   FreeType:ftbase.obj
 0002:00059360       FT_GlyphLoader_Prepare     0000000180108360 f   FreeType:ftbase.obj
 0002:00059400       FT_GlyphLoader_Reset       0000000180108400 f   FreeType:ftbase.obj
 0002:000595b0       FT_GlyphLoader_Rewind      00000001801085b0 f   FreeType:ftbase.obj
 0002:00059650       FT_Hypot                   0000000180108650 f   FreeType:ftbase.obj
 0002:000596d0       FT_Library_Version         00000001801086d0 f   FreeType:ftbase.obj
 0002:000597d0       FT_List_Add                00000001801087d0 f   FreeType:ftbase.obj
 0002:000598c0       FT_List_Finalize           00000001801088c0 f   FreeType:ftbase.obj
 0002:000599f0       FT_List_Find               00000001801089f0 f   FreeType:ftbase.obj
 0002:00059aa0       FT_List_Insert             0000000180108aa0 f   FreeType:ftbase.obj
 0002:00059b80       FT_List_Iterate            0000000180108b80 f   FreeType:ftbase.obj
 0002:00059c80       FT_List_Remove             0000000180108c80 f   FreeType:ftbase.obj
 0002:00059d60       FT_List_Up                 0000000180108d60 f   FreeType:ftbase.obj
 0002:00059e90       FT_Load_Char               0000000180108e90 f   FreeType:ftbase.obj
 0002:00059f70       FT_Load_Glyph              0000000180108f70 f   FreeType:ftbase.obj
 0002:0005a8c0       FT_Load_Sfnt_Table         00000001801098c0 f   FreeType:ftbase.obj
 0002:0005aa30       FT_Lookup_Renderer         0000000180109a30 f   FreeType:ftbase.obj
 0002:0005ab60       FT_MD5_Final               0000000180109b60 f   FreeType:ftbase.obj
 0002:0005b240       FT_MD5_Init                000000018010a240 f   FreeType:ftbase.obj
 0002:0005b2f0       FT_MD5_Update              000000018010a2f0 f   FreeType:ftbase.obj
 0002:0005b530       FT_MSB                     000000018010a530 f   FreeType:ftbase.obj
 0002:0005b660       FT_Match_Size              000000018010a660 f   FreeType:ftbase.obj
 0002:0005b9e0       FT_Matrix_Invert           000000018010a9e0 f   FreeType:ftbase.obj
 0002:0005bb90       FT_Matrix_Multiply         000000018010ab90 f   FreeType:ftbase.obj
 0002:0005bd90       FT_Matrix_Multiply_Scaled  000000018010ad90 f   FreeType:ftbase.obj
 0002:0005bff0       FT_MulDiv                  000000018010aff0 f   FreeType:ftbase.obj
 0002:0005c250       FT_MulDiv_No_Round         000000018010b250 f   FreeType:ftbase.obj
 0002:0005c450       FT_MulFix                  000000018010b450 f   FreeType:ftbase.obj
 0002:0005c5e0       FT_New_Face                000000018010b5e0 f   FreeType:ftbase.obj
 0002:0005c6d0       FT_New_GlyphSlot           000000018010b6d0 f   FreeType:ftbase.obj
 0002:0005c970       FT_New_Library             000000018010b970 f   FreeType:ftbase.obj
 0002:0005cb10       FT_New_Memory_Face         000000018010bb10 f   FreeType:ftbase.obj
 0002:0005cc10       FT_New_Size                000000018010bc10 f   FreeType:ftbase.obj
 0002:0005cef0       FT_Open_Face               000000018010bef0 f   FreeType:ftbase.obj
 0002:0005da30       FT_Outline_Check           000000018010ca30 f   FreeType:ftbase.obj
 0002:0005db90       FT_Outline_Copy            000000018010cb90 f   FreeType:ftbase.obj
 0002:0005dde0       FT_Outline_Decompose       000000018010cde0 f   FreeType:ftbase.obj
 0002:0005f1c0       FT_Outline_Done            000000018010e1c0 f   FreeType:ftbase.obj
 0002:0005f260       FT_Outline_Done_Internal   000000018010e260 f   FreeType:ftbase.obj
 0002:0005f400       FT_Outline_Embolden        000000018010e400 f   FreeType:ftbase.obj
 0002:0005f470       FT_Outline_EmboldenXY      000000018010e470 f   FreeType:ftbase.obj
 0002:0005fbe0       FT_Outline_Get_Bitmap      000000018010ebe0 f   FreeType:ftbase.obj
 0002:0005fd30       FT_Outline_Get_CBox        000000018010ed30 f   FreeType:ftbase.obj
 0002:0005ff60       FT_Outline_Get_Orientation 000000018010ef60 f   FreeType:ftbase.obj
 0002:00060300       FT_Outline_New             000000018010f300 f   FreeType:ftbase.obj
 0002:000603c0       FT_Outline_New_Internal    000000018010f3c0 f   FreeType:ftbase.obj
 0002:00060690       FT_Outline_Render          000000018010f690 f   FreeType:ftbase.obj
 0002:00060860       FT_Outline_Reverse         000000018010f860 f   FreeType:ftbase.obj
 0002:00060ac0       FT_Outline_Transform       000000018010fac0 f   FreeType:ftbase.obj
 0002:00060b90       FT_Outline_Translate       000000018010fb90 f   FreeType:ftbase.obj
 0002:00060c70       FT_Property_Get            000000018010fc70 f   FreeType:ftbase.obj
 0002:00060d00       FT_Property_Set            000000018010fd00 f   FreeType:ftbase.obj
 0002:00060d90       FT_Raccess_Get_DataOffsets 000000018010fd90 f   FreeType:ftbase.obj
 0002:000614b0       FT_Raccess_Get_HeaderInfo  00000001801104b0 f   FreeType:ftbase.obj
 0002:00061a80       FT_Raccess_Guess           0000000180110a80 f   FreeType:ftbase.obj
 0002:00061c10       FT_Reference_Face          0000000180110c10 f   FreeType:ftbase.obj
 0002:00061cc0       FT_Reference_Library       0000000180110cc0 f   FreeType:ftbase.obj
 0002:00061d60       FT_Remove_Module           0000000180110d60 f   FreeType:ftbase.obj
 0002:00061f40       FT_Render_Glyph            0000000180110f40 f   FreeType:ftbase.obj
 0002:00062010       FT_Render_Glyph_Internal   0000000180111010 f   FreeType:ftbase.obj
 0002:000623b0       FT_Request_Metrics         00000001801113b0 f   FreeType:ftbase.obj
 0002:00062b70       FT_Request_Size            0000000180111b70 f   FreeType:ftbase.obj
 0002:00063040       FT_RoundFix                0000000180112040 f   FreeType:ftbase.obj
 0002:000630c0       FT_Select_Charmap          00000001801120c0 f   FreeType:ftbase.obj
 0002:000632a0       FT_Select_Metrics          00000001801122a0 f   FreeType:ftbase.obj
 0002:000636e0       FT_Select_Size             00000001801126e0 f   FreeType:ftbase.obj
 0002:00063b00       FT_Set_Char_Size           0000000180112b00 f   FreeType:ftbase.obj
 0002:00063cb0       FT_Set_Charmap             0000000180112cb0 f   FreeType:ftbase.obj
 0002:00063e80       FT_Set_Debug_Hook          0000000180112e80 f   FreeType:ftbase.obj
 0002:00063f20       FT_Set_Pixel_Sizes         0000000180112f20 f   FreeType:ftbase.obj
 0002:000640a0       FT_Set_Renderer            00000001801130a0 f   FreeType:ftbase.obj
 0002:00064300       FT_Set_Transform           0000000180113300 f   FreeType:ftbase.obj
 0002:000644e0       FT_Sfnt_Table_Info         00000001801134e0 f   FreeType:ftbase.obj
 0002:00064670       FT_Sin                     0000000180113670 f   FreeType:ftbase.obj
 0002:000646e0       FT_Stream_Close            00000001801136e0 f   FreeType:ftbase.obj
 0002:00064760       FT_Stream_EnterFrame       0000000180113760 f   FreeType:ftbase.obj
 0002:00064b10       FT_Stream_ExitFrame        0000000180113b10 f   FreeType:ftbase.obj
 0002:00064c10       FT_Stream_ExtractFrame     0000000180113c10 f   FreeType:ftbase.obj
 0002:00064cd0       FT_Stream_Free             0000000180113cd0 f   FreeType:ftbase.obj
 0002:00064d80       FT_Stream_GetChar          0000000180113d80 f   FreeType:ftbase.obj
 0002:00064e70       FT_Stream_GetULong         0000000180113e70 f   FreeType:ftbase.obj
 0002:00064fd0       FT_Stream_GetULongLE       0000000180113fd0 f   FreeType:ftbase.obj
 0002:00065130       FT_Stream_GetUOffset       0000000180114130 f   FreeType:ftbase.obj
 0002:00065270       FT_Stream_GetUShort        0000000180114270 f   FreeType:ftbase.obj
 0002:00065390       FT_Stream_GetUShortLE      0000000180114390 f   FreeType:ftbase.obj
 0002:000654b0       FT_Stream_New              00000001801144b0 f   FreeType:ftbase.obj
 0002:00065760       FT_Stream_OpenMemory       0000000180114760 f   FreeType:ftbase.obj
 0002:00065820       FT_Stream_Pos              0000000180114820 f   FreeType:ftbase.obj
 0002:00065870       FT_Stream_Read             0000000180114870 f   FreeType:ftbase.obj
 0002:000658f0       FT_Stream_ReadAt           00000001801148f0 f   FreeType:ftbase.obj
 0002:00065ad0       FT_Stream_ReadChar         0000000180114ad0 f   FreeType:ftbase.obj
 0002:00065c90       FT_Stream_ReadFields       0000000180114c90 f   FreeType:ftbase.obj
 0002:000663c0       FT_Stream_ReadULong        00000001801153c0 f   FreeType:ftbase.obj
 0002:00066630       FT_Stream_ReadULongLE      0000000180115630 f   FreeType:ftbase.obj
 0002:000668a0       FT_Stream_ReadUOffset      00000001801158a0 f   FreeType:ftbase.obj
 0002:00066af0       FT_Stream_ReadUShort       0000000180115af0 f   FreeType:ftbase.obj
 0002:00066d20       FT_Stream_ReadUShortLE     0000000180115d20 f   FreeType:ftbase.obj
 0002:00066f50       FT_Stream_ReleaseFrame     0000000180115f50 f   FreeType:ftbase.obj
 0002:00067010       FT_Stream_Seek             0000000180116010 f   FreeType:ftbase.obj
 0002:00067170       FT_Stream_Skip             0000000180116170 f   FreeType:ftbase.obj
 0002:00067210       FT_Stream_TryRead          0000000180116210 f   FreeType:ftbase.obj
 0002:00067360       FT_Tan                     0000000180116360 f   FreeType:ftbase.obj
 0002:000673e0       FT_Vector_From_Polar       00000001801163e0 f   FreeType:ftbase.obj
 0002:00067480       FT_Vector_Length           0000000180116480 f   FreeType:ftbase.obj
 0002:000675f0       FT_Vector_NormLen          00000001801165f0 f   FreeType:ftbase.obj
 0002:00067b60       FT_Vector_Polarize         0000000180116b60 f   FreeType:ftbase.obj
 0002:00067ca0       FT_Vector_Rotate           0000000180116ca0 f   FreeType:ftbase.obj
 0002:00067e40       FT_Vector_Transform        0000000180116e40 f   FreeType:ftbase.obj
 0002:00067f70       FT_Vector_Transform_Scaled 0000000180116f70 f   FreeType:ftbase.obj
 0002:000680d0       FT_Vector_Unit             00000001801170d0 f   FreeType:ftbase.obj
 0002:0006ca30       ft_corner_is_flat          000000018011ba30 f   FreeType:ftbase.obj
 0002:0006cd60       ft_corner_orientation      000000018011bd60 f   FreeType:ftbase.obj
 0002:0006d150       ft_glyphslot_alloc_bitmap  000000018011c150 f   FreeType:ftbase.obj
 0002:0006d5b0       ft_glyphslot_free_bitmap   000000018011c5b0 f   FreeType:ftbase.obj
 0002:0006da60       ft_glyphslot_set_bitmap    000000018011ca60 f   FreeType:ftbase.obj
 0002:0006db20       ft_hash_num_init           000000018011cb20 f   FreeType:ftbase.obj
 0002:0006db90       ft_hash_num_insert         000000018011cb90 f   FreeType:ftbase.obj
 0002:0006dc30       ft_hash_num_lookup         000000018011cc30 f   FreeType:ftbase.obj
 0002:0006dcb0       ft_hash_str_free           000000018011ccb0 f   FreeType:ftbase.obj
 0002:0006ddc0       ft_hash_str_init           000000018011cdc0 f   FreeType:ftbase.obj
 0002:0006de30       ft_hash_str_insert         000000018011ce30 f   FreeType:ftbase.obj
 0002:0006dee0       ft_hash_str_lookup         000000018011cee0 f   FreeType:ftbase.obj
 0002:0006e3a0       ft_mem_alloc               000000018011d3a0 f   FreeType:ftbase.obj
 0002:0006e470       ft_mem_dup                 000000018011d470 f   FreeType:ftbase.obj
 0002:0006e550       ft_mem_free                000000018011d550 f   FreeType:ftbase.obj
 0002:0006e5d0       ft_mem_qalloc              000000018011d5d0 f   FreeType:ftbase.obj
 0002:0006e6e0       ft_mem_qrealloc            000000018011d6e0 f   FreeType:ftbase.obj
 0002:0006e960       ft_mem_realloc             000000018011d960 f   FreeType:ftbase.obj
 0002:0006eab0       ft_mem_strcpyn             000000018011dab0 f   FreeType:ftbase.obj
 0002:0006ebb0       ft_mem_strdup              000000018011dbb0 f   FreeType:ftbase.obj
 0002:0006ec70       ft_module_get_service      000000018011dc70 f   FreeType:ftbase.obj
 0002:0006f560       ft_property_string_set     000000018011e560 f   FreeType:ftbase.obj
 0002:0006f980       ft_service_list_lookup     000000018011e980 f   FreeType:ftbase.obj
 0002:0006fad0       ft_synthesize_vertical_metrics 000000018011ead0 f   FreeType:ftbase.obj
 0002:00070550       ft_validator_error         000000018011f550 f   FreeType:ftbase.obj
 0002:000705d0       ft_validator_init          000000018011f5d0 f   FreeType:ftbase.obj
 0002:00070690       ft_validator_run           000000018011f690 f   FreeType:ftbase.obj
 0002:0008a2a0       af_shaper_buf_create       00000001801392a0 f   FreeType:autofit.obj
 0002:0008a340       af_shaper_buf_destroy      0000000180139340 f   FreeType:autofit.obj
 0002:0008a3d0       af_shaper_get_cluster      00000001801393d0 f   FreeType:autofit.obj
 0002:0008a700       af_shaper_get_coverage     0000000180139700 f   FreeType:autofit.obj
 0002:0008a7a0       af_shaper_get_elem         00000001801397a0 f   FreeType:autofit.obj
 0002:000a07a0       TT_New_Context             000000018014f7a0 f   FreeType:truetype.obj
 0002:000a1790       TT_RunIns                  0000000180150790 f   FreeType:truetype.obj
 0002:00107e20       ps_hints_apply             00000001801b6e20 f   FreeType:pshinter.obj
 0002:00145430       FT_Done_Memory             00000001801f4430 f   FreeType:ftsystem.obj
 0002:00145490       FT_New_Memory              00000001801f4490 f   FreeType:ftsystem.obj
 0002:00145530       FT_Stream_Open             00000001801f4530 f   FreeType:ftsystem.obj
 0002:00145af0       FT_Message                 00000001801f4af0 f   FreeType:ftdebug.obj
 0002:00145ba0       FT_Panic                   00000001801f4ba0 f   FreeType:ftdebug.obj
 0002:00145c60       FT_Throw                   00000001801f4c60 f   FreeType:ftdebug.obj
 0002:00145ce0       FT_Trace_Get_Count         00000001801f4ce0 f   FreeType:ftdebug.obj
 0002:00145d20       FT_Trace_Get_Name          00000001801f4d20 f   FreeType:ftdebug.obj
 0002:00145da0       ft_debug_init              00000001801f4da0 f   FreeType:ftdebug.obj
 0002:001460d0       vfprintf                   00000001801f50d0 f i FreeType:ftdebug.obj
 0002:00146150       FT_Bitmap_Convert          00000001801f5150 f   FreeType:ftbitmap.obj
 0002:00146f90       FT_Bitmap_Copy             00000001801f5f90 f   FreeType:ftbitmap.obj
 0002:00147430       FT_Bitmap_Done             00000001801f6430 f   FreeType:ftbitmap.obj
 0002:00147550       FT_Bitmap_Embolden         00000001801f6550 f   FreeType:ftbitmap.obj
 0002:00147cc0       FT_Bitmap_Init             00000001801f6cc0 f   FreeType:ftbitmap.obj
 0002:00147d30       FT_Bitmap_New              00000001801f6d30 f   FreeType:ftbitmap.obj
 0002:00147da0       FT_GlyphSlot_Own_Bitmap    00000001801f6da0 f   FreeType:ftbitmap.obj
 0002:001486c0       FT_Gzip_Uncompress         00000001801f76c0 f   FreeType:ftgzip.obj
 0002:00148950       FT_Stream_OpenGzip         00000001801f7950 f   FreeType:ftgzip.obj
 0002:00151630       FT_Stream_OpenLZW          0000000180200630 f   FreeType:ftlzw.obj
 0002:001522e0       ft_lzwstate_done           00000001802012e0 f   FreeType:ftlzw.obj
 0002:00152710       ft_lzwstate_init           0000000180201710 f   FreeType:ftlzw.obj
 0002:00152830       ft_lzwstate_io             0000000180201830 f   FreeType:ftlzw.obj
 0002:001533b0       ft_lzwstate_reset          00000001802023b0 f   FreeType:ftlzw.obj
 0002:00153630       ??3@YAXPEAX_K@Z            0000000180202630 f   MSVCRTD:delete_scalar_size.obj
 0002:00153660       ??_U@YAPEAX_K@Z            0000000180202660 f   MSVCRTD:new_array.obj
 0002:00153680       ??_V@YAXPEAX@Z             0000000180202680 f   MSVCRTD:delete_array.obj
 0002:001536a0       ??$__crt_fast_decode_pointer@PEAP6AXXZ@@YAPEAP6AXXZQEAP6AXXZ@Z 00000001802026a0 f i MSVCRTD:utility.obj
 0002:001536f0       ??$__crt_fast_encode_pointer@PEAP6AXXZ@@YAPEAP6AXXZQEAP6AXXZ@Z 00000001802026f0 f i MSVCRTD:utility.obj
 0002:00153740       ?__crt_rotate_pointer_value@@YA_K_KH@Z 0000000180202740 f i MSVCRTD:utility.obj
 0002:00153760       ?configure_argv@__scrt_narrow_argv_policy@@SAHXZ 0000000180202760 f i MSVCRTD:utility.obj
 0002:00153930       NtCurrentTeb               0000000180202930 f i MSVCRTD:utility.obj
 0002:00153940       __scrt_acquire_startup_lock 0000000180202940 f   MSVCRTD:utility.obj
 0002:001539c0       __scrt_dllmain_after_initialize_c 00000001802029c0 f   MSVCRTD:utility.obj
 0002:00153a00       __scrt_dllmain_before_initialize_c 0000000180202a00 f   MSVCRTD:utility.obj
 0002:00153a30       __scrt_dllmain_crt_thread_attach 0000000180202a30 f   MSVCRTD:utility.obj
 0002:00153a70       __scrt_dllmain_crt_thread_detach 0000000180202a70 f   MSVCRTD:utility.obj
 0002:00153a90       __scrt_dllmain_exception_filter 0000000180202a90 f   MSVCRTD:utility.obj
 0002:00153b10       __scrt_dllmain_uninitialize_c 0000000180202b10 f   MSVCRTD:utility.obj
 0002:00153b50       __scrt_dllmain_uninitialize_critical 0000000180202b50 f   MSVCRTD:utility.obj
 0002:00153b70       __scrt_initialize_crt      0000000180202b70 f   MSVCRTD:utility.obj
 0002:00153bd0       __scrt_initialize_onexit_tables 0000000180202bd0 f   MSVCRTD:utility.obj
 0002:00153d10       __scrt_is_nonwritable_in_current_image 0000000180202d10 f   MSVCRTD:utility.obj
 0002:00153dc0       __scrt_release_startup_lock 0000000180202dc0 f   MSVCRTD:utility.obj
 0002:00153e00       __scrt_uninitialize_crt    0000000180202e00 f   MSVCRTD:utility.obj
 0002:00153e50       _onexit                    0000000180202e50 f   MSVCRTD:utility.obj
 0002:00153f00       at_quick_exit              0000000180202f00 f   MSVCRTD:utility.obj
 0002:00153f70       atexit                     0000000180202f70 f   MSVCRTD:utility.obj
 0002:00153fb0       _CRT_RTC_INIT              0000000180202fb0 f   MSVCRTD:_init_.obj
 0002:00153fc0       _CRT_RTC_INITW             0000000180202fc0 f   MSVCRTD:_init_.obj
 0002:00153fd0       _RTC_InitBase              0000000180202fd0 f   MSVCRTD:_init_.obj
 0002:00154020       _RTC_Shutdown              0000000180203020 f   MSVCRTD:_init_.obj
 0002:00154050       ??1type_info@@UEAA@XZ      0000000180203050 f   MSVCRTD:std_type_info_static.obj
 0002:00154070       ??_Gtype_info@@UEAAPEAXI@Z 0000000180203070 f i MSVCRTD:std_type_info_static.obj
 0002:00154070       ??_Etype_info@@UEAAPEAXI@Z 0000000180203070 f i MSVCRTD:std_type_info_static.obj
 0002:001540c0       _RTC_AllocaHelper          00000001802030c0 f   MSVCRTD:_stack_.obj
 0002:00154110       _RTC_CheckStackVars        0000000180203110 f   MSVCRTD:_stack_.obj
 0002:001541c0       _RTC_CheckStackVars2       00000001802031c0 f   MSVCRTD:_stack_.obj
 0002:00154310       __GSHandlerCheck           0000000180203310 f   MSVCRTD:_gshandler_.obj
 0002:00154360       __GSHandlerCheckCommon     0000000180203360 f   MSVCRTD:_gshandler_.obj
 0002:001544b0       __security_check_cookie    00000001802034b0 f   MSVCRTD:_amdsecgs_.obj
 0002:001544e0       ??_L@YAXPEAX_K1P6AX0@Z2@Z  00000001802034e0 f   MSVCRTD:ehvecctr.obj
 0002:001545b0       ??_L@YAXPEAX_KHP6AX0@Z2@Z  00000001802035b0 f   MSVCRTD:ehvecctr.obj
 0002:00154610       ??_M@YAXPEAX_K1P6AX0@Z@Z   0000000180203610 f   MSVCRTD:ehvecdtr.obj
 0002:00154700       ??_M@YAXPEAX_KHP6AX0@Z@Z   0000000180203700 f   MSVCRTD:ehvecdtr.obj
 0002:001547a0       ?__ArrayUnwind@@YAXPEAX_K1P6AX0@Z@Z 00000001802037a0 f   MSVCRTD:ehvecdtr.obj
 0002:00154840       ??2@YAPEAX_K@Z             0000000180203840 f   MSVCRTD:new_scalar.obj
 0002:001548b0       ??_V@YAXPEAX_K@Z           00000001802038b0 f   MSVCRTD:delete_array_size.obj
 0002:001548e0       __GSHandlerCheck_EH        00000001802038e0 f   MSVCRTD:gshandlereh.obj
 0002:001549b0       __raise_securityfailure    00000001802039b0 f   MSVCRTD:gs_report.obj
 0002:00154a00       __report_gsfailure         0000000180203a00 f   MSVCRTD:gs_report.obj
 0002:00154b10       __report_rangecheckfailure 0000000180203b10 f   MSVCRTD:gs_report.obj
 0002:00154b30       __report_securityfailure   0000000180203b30 f   MSVCRTD:gs_report.obj
 0002:00154c00       __report_securityfailureEx 0000000180203c00 f   MSVCRTD:gs_report.obj
 0002:001553f0       _CRT_INIT                  00000001802043f0 f   MSVCRTD:dll_dllmain.obj
 0002:00155430       _DllMainCRTStartup         0000000180204430 f   MSVCRTD:dll_dllmain.obj
 0002:00155490       __chkstk                   0000000180204490 f   MSVCRTD:_chkstk_.obj
 0002:00155490       _alloca_probe              0000000180204490 f   MSVCRTD:_chkstk_.obj
 0002:00155500       ??3@YAXPEAX@Z              0000000180204500 f   MSVCRTD:delete_scalar.obj
 0002:00155530       __isa_available_init       0000000180204530 f   MSVCRTD:_cpu_disp_.obj
 0002:00155990       _get_startup_argv_mode     0000000180204990 f   MSVCRTD:argv_mode.obj
 0002:001559a0       __scrt_is_ucrt_dll_in_use  00000001802049a0 f   MSVCRTD:ucrt_detection.obj
 0002:001559d0       __crt_debugger_hook        00000001802049d0 f   MSVCRTD:utility_desktop.obj
 0002:001559f0       __scrt_fastfail            00000001802049f0 f   MSVCRTD:utility_desktop.obj
 0002:00155bf0       __scrt_get_show_window_mode 0000000180204bf0 f   MSVCRTD:utility_desktop.obj
 0002:00155c60       __scrt_initialize_winrt    0000000180204c60 f   MSVCRTD:utility_desktop.obj
 0002:00155c70       __scrt_is_managed_app      0000000180204c70 f   MSVCRTD:utility_desktop.obj
 0002:00155d40       __scrt_set_unhandled_exception_filter 0000000180204d40 f   MSVCRTD:utility_desktop.obj
 0002:00155d60       __scrt_unhandled_exception_filter 0000000180204d60 f   MSVCRTD:utility_desktop.obj
 0002:00155df0       _guard_check_icall         0000000180204df0 f i MSVCRTD:checkcfg.obj
 0002:00155e10       ?_RTC_GetErrorFunc@@YAP6AHHPEBDH00ZZPEBX@Z 0000000180204e10 f   MSVCRTD:_userapi_.obj
 0002:00155e20       ?_RTC_GetErrorFuncW@@YAP6AHHPEB_WH00ZZPEBX@Z 0000000180204e20 f   MSVCRTD:_userapi_.obj
 0002:00155e30       _RTC_GetErrDesc            0000000180204e30 f   MSVCRTD:_userapi_.obj
 0002:00155e50       _RTC_NumErrors             0000000180204e50 f   MSVCRTD:_userapi_.obj
 0002:00155e60       _RTC_SetErrorFunc          0000000180204e60 f   MSVCRTD:_userapi_.obj
 0002:00155e80       _RTC_SetErrorFuncW         0000000180204e80 f   MSVCRTD:_userapi_.obj
 0002:00155ea0       _RTC_SetErrorType          0000000180204ea0 f   MSVCRTD:_userapi_.obj
 0002:00155fa0       ?_RTC_AllocaFailure@@YAXPEAXPEAU_RTC_ALLOCA_NODE@@H@Z 0000000180204fa0 f   MSVCRTD:_error_.obj
 0002:00156190       ?_RTC_Failure@@YAXPEAXH@Z  0000000180205190 f   MSVCRTD:_error_.obj
 0002:00156200       ?_RTC_StackFailure@@YAXPEAXPEBD@Z 0000000180205200 f   MSVCRTD:_error_.obj
 0002:00156790       _RTC_UninitUse             0000000180205790 f   MSVCRTD:_error_.obj
 0002:00156900       _vsprintf_s_l              0000000180205900 f i MSVCRTD:_error_.obj
 0002:00156980       sprintf_s                  0000000180205980 f i MSVCRTD:_error_.obj
 0002:001569d0       ??0bad_alloc@std@@AEAA@QEBD@Z 00000001802059d0 f i MSVCRTD:throw_bad_alloc.obj
 0002:00156a20       ??0bad_alloc@std@@QEAA@AEBV01@@Z 0000000180205a20 f i MSVCRTD:throw_bad_alloc.obj
 0002:00156a70       ??0bad_alloc@std@@QEAA@XZ  0000000180205a70 f i MSVCRTD:throw_bad_alloc.obj
 0002:00156ac0       ??0bad_array_new_length@std@@QEAA@AEBV01@@Z 0000000180205ac0 f i MSVCRTD:throw_bad_alloc.obj
 0002:00156b10       ??0bad_array_new_length@std@@QEAA@XZ 0000000180205b10 f i MSVCRTD:throw_bad_alloc.obj
 0002:00156b50       ??0exception@std@@QEAA@AEBV01@@Z 0000000180205b50 f i MSVCRTD:throw_bad_alloc.obj
 0002:00156bc0       ??0exception@std@@QEAA@QEBDH@Z 0000000180205bc0 f i MSVCRTD:throw_bad_alloc.obj
 0002:00156c20       ??1bad_alloc@std@@UEAA@XZ  0000000180205c20 f i MSVCRTD:throw_bad_alloc.obj
 0002:00156c40       ??1bad_array_new_length@std@@UEAA@XZ 0000000180205c40 f i MSVCRTD:throw_bad_alloc.obj
 0002:00156c60       ??1exception@std@@UEAA@XZ  0000000180205c60 f i MSVCRTD:throw_bad_alloc.obj
 0002:00156ca0       ??_Ebad_alloc@std@@UEAAPEAXI@Z 0000000180205ca0 f i MSVCRTD:throw_bad_alloc.obj
 0002:00156ca0       ??_Gbad_alloc@std@@UEAAPEAXI@Z 0000000180205ca0 f i MSVCRTD:throw_bad_alloc.obj
 0002:00156cf0       ??_Gbad_array_new_length@std@@UEAAPEAXI@Z 0000000180205cf0 f i MSVCRTD:throw_bad_alloc.obj
 0002:00156cf0       ??_Ebad_array_new_length@std@@UEAAPEAXI@Z 0000000180205cf0 f i MSVCRTD:throw_bad_alloc.obj
 0002:00156d40       ??_Gexception@std@@UEAAPEAXI@Z 0000000180205d40 f i MSVCRTD:throw_bad_alloc.obj
 0002:00156d40       ??_Eexception@std@@UEAAPEAXI@Z 0000000180205d40 f i MSVCRTD:throw_bad_alloc.obj
 0002:00156d90       ?__scrt_throw_std_bad_alloc@@YAXXZ 0000000180205d90 f   MSVCRTD:throw_bad_alloc.obj
 0002:00156dc0       ?__scrt_throw_std_bad_array_new_length@@YAXXZ 0000000180205dc0 f   MSVCRTD:throw_bad_alloc.obj
 0002:00156df0       ?what@exception@std@@UEBAPEBDXZ 0000000180205df0 f i MSVCRTD:throw_bad_alloc.obj
 0002:00156e40       __security_init_cookie     0000000180205e40 f   MSVCRTD:gs_support.obj
 0002:00156fa0       DllMain                    0000000180205fa0 f   MSVCRTD:dll_dllmain_stub.obj
 0002:00156ff0       ?__scrt_initialize_type_info@@YAXXZ 0000000180205ff0 f   MSVCRTD:tncleanup.obj
 0002:00157010       ?__scrt_uninitialize_type_info@@YAXXZ 0000000180206010 f   MSVCRTD:tncleanup.obj
 0002:00157030       __scrt_initialize_default_local_stdio_options 0000000180206030 f   MSVCRTD:default_local_stdio_options.obj
 0002:00157090       __scrt_get_dyn_tls_init_callback 0000000180206090 f   MSVCRTD:dyn_tls_init.obj
 0002:001570a0       _RTC_Initialize            00000001802060a0 f   MSVCRTD:_initsect_.obj
 0002:00157100       _RTC_Terminate             0000000180206100 f   MSVCRTD:_initsect_.obj
 0002:00157160       _guard_check_icall_nop     0000000180206160 f i MSVCRTD:guard_support.obj
 0002:00157170       _guard_icall_checks_enforced 0000000180206170 f i MSVCRTD:guard_support.obj
 0002:001577d0       ?_RTC_GetSrcLine@@YAHPEAEPEA_WKPEAH1K@Z 00000001802067d0 f   MSVCRTD:_pdblkup_.obj
 0002:00157d60       _vcomp_barrier             0000000180206d60 f   VCOMPD:VCOMP140D.DLL
 0002:00157d66       _vcomp_for_static_end      0000000180206d66 f   VCOMPD:VCOMP140D.DLL
 0002:00157d6c       _vcomp_for_static_simple_init 0000000180206d6c f   VCOMPD:VCOMP140D.DLL
 0002:00157d80       memcpy                     0000000180206d80 f   vcruntimed:VCRUNTIME140D.dll
 0002:00157d86       __CxxFrameHandler3         0000000180206d86 f   vcruntimed:VCRUNTIME140D.dll
 0002:00157d8c       memset                     0000000180206d8c f   vcruntimed:VCRUNTIME140D.dll
 0002:00157d92       _purecall                  0000000180206d92 f   vcruntimed:VCRUNTIME140D.dll
 0002:00157d98       memcmp                     0000000180206d98 f   vcruntimed:VCRUNTIME140D.dll
 0002:00157d9e       memmove                    0000000180206d9e f   vcruntimed:VCRUNTIME140D.dll
 0002:00157da4       strrchr                    0000000180206da4 f   vcruntimed:VCRUNTIME140D.dll
 0002:00157daa       longjmp                    0000000180206daa f   vcruntimed:VCRUNTIME140D.dll
 0002:00157db0       strstr                     0000000180206db0 f   vcruntimed:VCRUNTIME140D.dll
 0002:00157db6       memchr                     0000000180206db6 f   vcruntimed:VCRUNTIME140D.dll
 0002:00157dbc       __C_specific_handler       0000000180206dbc f   vcruntimed:VCRUNTIME140D.dll
 0002:00157dc2       _setjmp                    0000000180206dc2 f   vcruntimed:VCRUNTIME140D.dll
 0002:00157dc2       __intrinsic_setjmp         0000000180206dc2 f   vcruntimed:VCRUNTIME140D.dll
 0002:00157dc8       __std_exception_copy       0000000180206dc8 f   vcruntimed:VCRUNTIME140D.dll
 0002:00157dce       __std_exception_destroy    0000000180206dce f   vcruntimed:VCRUNTIME140D.dll
 0002:00157dd4       _CxxThrowException         0000000180206dd4 f   vcruntimed:VCRUNTIME140D.dll
 0002:00157dda       __std_type_info_destroy_list 0000000180206dda f   vcruntimed:VCRUNTIME140D.dll
 0002:00157de0       __vcrt_GetModuleFileNameW  0000000180206de0 f   vcruntimed:VCRUNTIME140D.dll
 0002:00157de6       __vcrt_GetModuleHandleW    0000000180206de6 f   vcruntimed:VCRUNTIME140D.dll
 0002:00157dec       __vcrt_LoadLibraryExW      0000000180206dec f   vcruntimed:VCRUNTIME140D.dll
 0002:00157df2       __stdio_common_vswprintf_s 0000000180206df2 f   ucrtd:ucrtbased.dll
 0002:00157df8       __acrt_iob_func            0000000180206df8 f   ucrtd:ucrtbased.dll
 0002:00157dfe       __stdio_common_vfprintf    0000000180206dfe f   ucrtd:ucrtbased.dll
 0002:00157e04       cosf                       0000000180206e04 f   ucrtd:ucrtbased.dll
 0002:00157e0a       clock                      0000000180206e0a f   ucrtd:ucrtbased.dll
 0002:00157e10       ceilf                      0000000180206e10 f   ucrtd:ucrtbased.dll
 0002:00157e16       sqrtf                      0000000180206e16 f   ucrtd:ucrtbased.dll
 0002:00157e1c       __stdio_common_vsscanf     0000000180206e1c f   ucrtd:ucrtbased.dll
 0002:00157e22       atof                       0000000180206e22 f   ucrtd:ucrtbased.dll
 0002:00157e28       __stdio_common_vsprintf    0000000180206e28 f   ucrtd:ucrtbased.dll
 0002:00157e2e       atoi                       0000000180206e2e f   ucrtd:ucrtbased.dll
 0002:00157e34       sinf                       0000000180206e34 f   ucrtd:ucrtbased.dll
 0002:00157e3a       tanhf                      0000000180206e3a f   ucrtd:ucrtbased.dll
 0002:00157e40       fopen                      0000000180206e40 f   ucrtd:ucrtbased.dll
 0002:00157e46       fclose                     0000000180206e46 f   ucrtd:ucrtbased.dll
 0002:00157e4c       fread                      0000000180206e4c f   ucrtd:ucrtbased.dll
 0002:00157e52       _fseeki64                  0000000180206e52 f   ucrtd:ucrtbased.dll
 0002:00157e58       _ftelli64                  0000000180206e58 f   ucrtd:ucrtbased.dll
 0002:00157e5e       fwrite                     0000000180206e5e f   ucrtd:ucrtbased.dll
 0002:00157e64       strlen                     0000000180206e64 f   ucrtd:ucrtbased.dll
 0002:00157e6a       getenv                     0000000180206e6a f   ucrtd:ucrtbased.dll
 0002:00157e70       strcat                     0000000180206e70 f   ucrtd:ucrtbased.dll
 0002:00157e76       strcmp                     0000000180206e76 f   ucrtd:ucrtbased.dll
 0002:00157e7c       strncpy                    0000000180206e7c f   ucrtd:ucrtbased.dll
 0002:00157e82       qsort                      0000000180206e82 f   ucrtd:ucrtbased.dll
 0002:00157e88       strtol                     0000000180206e88 f   ucrtd:ucrtbased.dll
 0002:00157e8e       strncmp                    0000000180206e8e f   ucrtd:ucrtbased.dll
 0002:00157e94       fseek                      0000000180206e94 f   ucrtd:ucrtbased.dll
 0002:00157e9a       ftell                      0000000180206e9a f   ucrtd:ucrtbased.dll
 0002:00157ea0       free                       0000000180206ea0 f   ucrtd:ucrtbased.dll
 0002:00157ea6       malloc                     0000000180206ea6 f   ucrtd:ucrtbased.dll
 0002:00157eac       realloc                    0000000180206eac f   ucrtd:ucrtbased.dll
 0002:00157eb2       exit                       0000000180206eb2 f   ucrtd:ucrtbased.dll
 0002:00157eb8       _seh_filter_dll            0000000180206eb8 f   ucrtd:ucrtbased.dll
 0002:00157ebe       _configure_narrow_argv     0000000180206ebe f   ucrtd:ucrtbased.dll
 0002:00157ec4       _initialize_narrow_environment 0000000180206ec4 f   ucrtd:ucrtbased.dll
 0002:00157eca       _initialize_onexit_table   0000000180206eca f   ucrtd:ucrtbased.dll
 0002:00157ed0       _register_onexit_function  0000000180206ed0 f   ucrtd:ucrtbased.dll
 0002:00157ed6       _execute_onexit_table      0000000180206ed6 f   ucrtd:ucrtbased.dll
 0002:00157edc       _crt_atexit                0000000180206edc f   ucrtd:ucrtbased.dll
 0002:00157ee2       _crt_at_quick_exit         0000000180206ee2 f   ucrtd:ucrtbased.dll
 0002:00157ee8       _cexit                     0000000180206ee8 f   ucrtd:ucrtbased.dll
 0002:00157eee       _CrtDbgReport              0000000180206eee f   ucrtd:ucrtbased.dll
 0002:00157ef4       _CrtDbgReportW             0000000180206ef4 f   ucrtd:ucrtbased.dll
 0002:00157efa       terminate                  0000000180206efa f   ucrtd:ucrtbased.dll
 0002:00157f00       _callnewh                  0000000180206f00 f   ucrtd:ucrtbased.dll
 0002:00157f06       _initterm                  0000000180206f06 f   ucrtd:ucrtbased.dll
 0002:00157f0c       _initterm_e                0000000180206f0c f   ucrtd:ucrtbased.dll
 0002:00157f12       _free_dbg                  0000000180206f12 f   ucrtd:ucrtbased.dll
 0002:00157f18       __stdio_common_vsprintf_s  0000000180206f18 f   ucrtd:ucrtbased.dll
 0002:00157f1e       _wmakepath_s               0000000180206f1e f   ucrtd:ucrtbased.dll
 0002:00157f24       _wsplitpath_s              0000000180206f24 f   ucrtd:ucrtbased.dll
 0002:00157f2a       wcscpy_s                   0000000180206f2a f   ucrtd:ucrtbased.dll
 0002:00157f30       RtlCaptureContext          0000000180206f30 f   kernel32:KERNEL32.dll
 0002:00157f36       RtlLookupFunctionEntry     0000000180206f36 f   kernel32:KERNEL32.dll
 0002:00157f3c       RtlVirtualUnwind           0000000180206f3c f   kernel32:KERNEL32.dll
 0002:00157f42       UnhandledExceptionFilter   0000000180206f42 f   kernel32:KERNEL32.dll
 0002:00157f48       SetUnhandledExceptionFilter 0000000180206f48 f   kernel32:KERNEL32.dll
 0002:00157f4e       GetCurrentProcess          0000000180206f4e f   kernel32:KERNEL32.dll
 0002:00157f54       TerminateProcess           0000000180206f54 f   kernel32:KERNEL32.dll
 0002:00157f5a       IsProcessorFeaturePresent  0000000180206f5a f   kernel32:KERNEL32.dll
 0002:00157f60       IsDebuggerPresent          0000000180206f60 f   kernel32:KERNEL32.dll
 0002:00157f66       GetStartupInfoW            0000000180206f66 f   kernel32:KERNEL32.dll
 0002:00157f6c       GetModuleHandleW           0000000180206f6c f   kernel32:KERNEL32.dll
 0002:00157f72       RaiseException             0000000180206f72 f   kernel32:KERNEL32.dll
 0002:00157f78       MultiByteToWideChar        0000000180206f78 f   kernel32:KERNEL32.dll
 0002:00157f7e       WideCharToMultiByte        0000000180206f7e f   kernel32:KERNEL32.dll
 0002:00157f84       QueryPerformanceCounter    0000000180206f84 f   kernel32:KERNEL32.dll
 0002:00157f8a       GetCurrentProcessId        0000000180206f8a f   kernel32:KERNEL32.dll
 0002:00157f90       GetCurrentThreadId         0000000180206f90 f   kernel32:KERNEL32.dll
 0002:00157f96       GetSystemTimeAsFileTime    0000000180206f96 f   kernel32:KERNEL32.dll
 0002:00157f9c       DisableThreadLibraryCalls  0000000180206f9c f   kernel32:KERNEL32.dll
 0002:00157fa2       InitializeSListHead        0000000180206fa2 f   kernel32:KERNEL32.dll
 0002:00157fa8       GetLastError               0000000180206fa8 f   kernel32:KERNEL32.dll
 0002:00157fae       HeapAlloc                  0000000180206fae f   kernel32:KERNEL32.dll
 0002:00157fb4       HeapFree                   0000000180206fb4 f   kernel32:KERNEL32.dll
 0002:00157fba       GetProcessHeap             0000000180206fba f   kernel32:KERNEL32.dll
 0002:00157fc0       VirtualQuery               0000000180206fc0 f   kernel32:KERNEL32.dll
 0002:00157fc6       FreeLibrary                0000000180206fc6 f   kernel32:KERNEL32.dll
 0002:00157fcc       GetProcAddress             0000000180206fcc f   kernel32:KERNEL32.dll
 0002:00157fe0       __scrt_stub_for_acrt_initialize 0000000180206fe0 f   MSVCRTD:ucrt_stubs.obj
 0002:00157fe0       __vcrt_initialize          0000000180206fe0 f   MSVCRTD:ucrt_stubs.obj
 0002:00157fe0       __acrt_initialize          0000000180206fe0 f   MSVCRTD:ucrt_stubs.obj
 0002:00157ff0       __vcrt_thread_attach       0000000180206ff0 f   MSVCRTD:ucrt_stubs.obj
 0002:00157ff0       __scrt_stub_for_acrt_thread_attach 0000000180206ff0 f   MSVCRTD:ucrt_stubs.obj
 0002:00157ff0       __acrt_thread_attach       0000000180206ff0 f   MSVCRTD:ucrt_stubs.obj
 0002:00158000       __scrt_stub_for_acrt_thread_detach 0000000180207000 f   MSVCRTD:ucrt_stubs.obj
 0002:00158000       __acrt_thread_detach       0000000180207000 f   MSVCRTD:ucrt_stubs.obj
 0002:00158000       __vcrt_thread_detach       0000000180207000 f   MSVCRTD:ucrt_stubs.obj
 0002:00158010       __scrt_stub_for_acrt_uninitialize 0000000180207010 f   MSVCRTD:ucrt_stubs.obj
 0002:00158010       __acrt_uninitialize        0000000180207010 f   MSVCRTD:ucrt_stubs.obj
 0002:00158010       __vcrt_uninitialize        0000000180207010 f   MSVCRTD:ucrt_stubs.obj
 0002:00158020       __scrt_stub_for_acrt_uninitialize_critical 0000000180207020 f   MSVCRTD:ucrt_stubs.obj
 0002:00158020       __vcrt_uninitialize_critical 0000000180207020 f   MSVCRTD:ucrt_stubs.obj
 0002:00158020       __acrt_uninitialize_critical 0000000180207020 f   MSVCRTD:ucrt_stubs.obj
 0002:00158030       _is_c_termination_complete 0000000180207030 f   MSVCRTD:ucrt_stubs.obj
 0002:00158030       __scrt_stub_for_is_c_termination_complete 0000000180207030 f   MSVCRTD:ucrt_stubs.obj
 0002:0015a920       _guard_dispatch_icall_nop  0000000180209920 f   MSVCRTD:_guard_dispatch_.obj
 0003:00000000       __xc_a                     0000000180213000     MSVCRTD:initializers.obj
 0003:00000308       __xc_z                     0000000180213308     MSVCRTD:initializers.obj
 0003:00000418       __xi_a                     0000000180213418     MSVCRTD:initializers.obj
 0003:00000528       __xi_z                     0000000180213528     MSVCRTD:initializers.obj
 0003:00000638       __xp_a                     0000000180213638     MSVCRTD:initializers.obj
 0003:00000748       __xp_z                     0000000180213748     MSVCRTD:initializers.obj
 0003:00000858       __xt_a                     0000000180213858     MSVCRTD:initializers.obj
 0003:00000968       __xt_z                     0000000180213968     MSVCRTD:initializers.obj
 0003:00000ab8       ??_7EventListener@FD@@6B@  0000000180213ab8     eventdispatcher.obj
 0003:00000b60       __xmm@80000000800000008000000080000000 0000000180213b60     eventdispatcher.obj
 0003:00000ca4       ??_C@_15MAOEGKJF@?$AA?$CF?$AAS?$AA?$AA@ 0000000180213ca4     input.obj
 0003:00000cb8       ??_7Window@FD@@6B@         0000000180213cb8     input.obj
 0003:00000d60       ??_C@_0BB@HDCCHMHF@Vsync?5set?5to?3?5?$CFu?$AA@ 0000000180213d60     input.obj
 0003:00000ec0       ??_C@_09MMNEKJNP@FD_INFO?3?5?$AA@ 0000000180213ec0     log.obj
 0003:00000ecc       ??_C@_01EEMJAFIK@?6?$AA@   0000000180213ecc     log.obj
 0003:00000ed0       ??_C@_0L@CDADONLH@FD_DEBUG?3?5?$AA@ 0000000180213ed0     log.obj
 0003:00000ee0       ??_C@_0N@NBPJLLGA@FD_WARNING?3?5?$AA@ 0000000180213ee0     log.obj
 0003:00000ef0       ??_C@_0L@CIHJJBM@FD_FATAL?3?5?$AA@ 0000000180213ef0     log.obj
 0003:00001910       ??_7Texture@FD@@6B@        0000000180214910     uibutton.obj
 0003:00001930       ??_7Texture2D@FD@@6B@      0000000180214930     uibutton.obj
 0003:00001950       ??_7Camera@FD@@6B@         0000000180214950     uibutton.obj
 0003:00001968       ??_7Buffer@FD@@6B@         0000000180214968     uibutton.obj
 0003:00001988       ??_7VertexBuffer@FD@@6B@   0000000180214988     uibutton.obj
 0003:000019a8       ??_7IndexBuffer@FD@@6B@    00000001802149a8     uibutton.obj
 0003:000019c8       ??_7Material@FD@@6B@       00000001802149c8     uibutton.obj
 0003:000019e8       ??_7MaterialInstance@FD@@6B@ 00000001802149e8     uibutton.obj
 0003:00001a08       ??_7Entity@FD@@6B@         0000000180214a08     uibutton.obj
 0003:00001a28       ??_7Renderer@FD@@6B@       0000000180214a28     uibutton.obj
 0003:00001b28       ??_7BatchRenderer@FD@@6B@  0000000180214b28     uibutton.obj
 0003:00001c38       ??_7FontRenderer@FD@@6B@   0000000180214c38     uibutton.obj
 0003:00001d48       ??_7UIHandler@FD@@6B@      0000000180214d48     uibutton.obj
 0003:00001df8       ??_7UIItem@FD@@6B@         0000000180214df8     uibutton.obj
 0003:00001e70       ??_7UIButton@FD@@6B@       0000000180214e70     uibutton.obj
 0003:00001ee8       ??_7UIText@FD@@6B@         0000000180214ee8     uibutton.obj
 0003:00001f10       ??_7UITextAutoResize@FD@@6B@ 0000000180214f10     uibutton.obj
 0003:00001f38       ??_7UITextHorizontalScroll@FD@@6B@ 0000000180214f38     uibutton.obj
 0003:00001f58       ??_C@_05PHLGJONK@title?$AA@ 0000000180214f58     uibutton.obj
 0003:00001f60       ??_C@_0BP@MPEALBEF@?$FLUIItem?$FN?5OnEntered?5button?5?$CC?$CFs?$CC?$AA@ 0000000180214f60     uibutton.obj
 0003:00001f88       ??_C@_0BM@BEGKDMPC@?$FLUIItem?$FN?5OnLeft?5button?5?$CC?$CFs?$CC?$AA@ 0000000180214f88     uibutton.obj
 0003:00001fb0       ??_C@_0CP@HDAEBIOP@?$FLUIItem?$FN?5OnPressed?5button?5?$CC?$CFs?$CC?5a@ 0000000180214fb0     uibutton.obj
 0003:00001fe8       ??_C@_0CA@FFOOOIOL@?$FLUIItem?$FN?5OnReleased?5button?5?$CC?$CFs?$CC?$AA@ 0000000180214fe8     uibutton.obj
 0003:00002010       __real@3c8efa35            0000000180215010     uibutton.obj
 0003:00002014       __real@3f000000            0000000180215014     uibutton.obj
 0003:00002018       __real@3f800000            0000000180215018     uibutton.obj
 0003:00002088       ??_7UIGroup@FD@@6B@        0000000180215088     uigroup.obj
 0003:00002100       ??_C@_0GC@DLILNIJB@?$FLUIGroup?$FN?5UIHandler?5in?5?$CC?$CFs?$CC?5is?5n@ 0000000180215100     uigroup.obj
 0003:000022d0       __real@00000000            00000001802152d0     uihandler.obj
 0003:00002408       ??_7UISlider@FD@@6B@       0000000180215408     uislider.obj
 0003:00002474       __real@40000000            0000000180215474     uislider.obj
 0003:00002478       __real@40a00000            0000000180215478     uislider.obj
 0003:0000247c       __real@41200000            000000018021547c     uislider.obj
 0003:00002480       __real@41700000            0000000180215480     uislider.obj
 0003:00002484       __real@41a00000            0000000180215484     uislider.obj
 0003:00002488       __real@41f00000            0000000180215488     uislider.obj
 0003:0000248c       __real@bf800000            000000018021548c     uislider.obj
 0003:000024c8       ??_7UISlider_Handle@UISlider@FD@@6B@ 00000001802154c8     uislider_handle.obj
 0003:00002533       ??_C@_00CNPNBAHC@?$AA@     0000000180215533     uislider_handle.obj
 0003:000025a0       ??_7UITextBox@FD@@6B@      00000001802155a0     uitextbox.obj
 0003:00002610       ??_C@_07ICAJMOAO@content?$AA@ 0000000180215610     uitextbox.obj
 0003:00002728       ??_C@_02MKFDGEGK@GG?$AA@   0000000180215728     uitext_autoresize.obj
 0003:00002808       __real@5f800000            0000000180215808     uitext_horizontal_scroll.obj
 0003:00002848       ??_7UITextHorizontalScroll_Cursor@UITextHorizontalScroll@FD@@6B@ 0000000180215848     uitext_horizontal_scroll_cursor.obj
 0003:000028b8       ??_C@_07JMMNBJNO@_Cursor?$AA@ 00000001802158b8     uitext_horizontal_scroll_cursor.obj
 0003:00002ac8       ??_C@_0DA@MGCCJBHJ@Creating?5window?5Title?$DM?$CFs?$DO?5Width?$DM@ 0000000180215ac8     window.obj
 0003:00002b08       ??_C@_0N@DMCEEBEI@Frodo?5Window?$AA@ 0000000180215b08     window.obj
 0003:00002b18       ??_C@_0CA@LHECIMJD@Failed?5to?5register?5?$CIWNDCLASSEX?$CJ?$AA@ 0000000180215b18     window.obj
 0003:00002b40       ??_C@_0BP@JLFDNJCH@Failed?5to?5create?5window?5?$CIHWND?$CJ?$AA@ 0000000180215b40     window.obj
 0003:00002b68       ??_C@_0P@LNJBMHFB@Closing?5window?$AA@ 0000000180215b68     window.obj
 0003:00002b7c       ??_C@_04HCDDPBNL@TRUE?$AA@ 0000000180215b7c     window.obj
 0003:00002b84       ??_C@_05MAJJAKPI@FALSE?$AA@ 0000000180215b84     window.obj
 0003:00002b90       ??_C@_0CA@PBHHODHK@Window?$CI?$CFs?$CJ?5visibility?5set?5to?5?$CFs?$AA@ 0000000180215b90     window.obj
 0003:00002ec0       ??_7Framebuffer2D@FD@@6B@  0000000180215ec0     frodo.obj
 0003:00002ee0       ??_7MenuRenderer@FD@@6B@   0000000180215ee0     frodo.obj
 0003:00002ff0       ??_7UserCamera@FD@@6BCamera@1@@ 0000000180215ff0     frodo.obj
 0003:00003010       ??_7UserCamera@FD@@6BEventListener@1@@ 0000000180216010     frodo.obj
 0003:000030c0       ??_7FDApplication@FD@@6B@  00000001802160c0     frodo.obj
 0003:000030fc       __real@42700000            00000001802160fc     frodo.obj
 0003:00003100       __real@447a0000            0000000180216100     frodo.obj
 0003:00003378       ??_C@_0P@DAKPBPPL@UNKNOWN?5FORMAT?$AA@ 0000000180216378     bufferlayout.obj
 0003:00003390       ??_C@_0BK@BLJELNPL@false?5?$CG?$CG?5?$CCUNKNOWN?5FORMAT?$CC?$AA@ 0000000180216390     bufferlayout.obj
 0003:000033b0       ??_C@_0EA@EALIDMKB@unsigned?5int?5__cdecl?5FD?3?3get_siz@ 00000001802163b0     bufferlayout.obj
 0003:00003400       ??_C@_0FE@BFFNIPFN@d?3?2dev?2visual?5studio?52015?2projec@ 0000000180216400     bufferlayout.obj
 0003:00003468       ??_C@_0DG@NFICNCMD@ASSERTION?5FAILED?3?5File?3?5?$CC?$CFs?$CC?5Fun@ 0000000180216468     bufferlayout.obj
 0003:000034a8       ??_C@_0CP@MHFFJHLH@?$FLBufferLayout?$FN?5No?5element?5in?5buf@ 00000001802164a8     bufferlayout.obj
 0003:000034e0       ??_C@_0CG@NIDFOFAN@?$FLBufferLayout?$FN?5Index?5out?5of?5boun@ 00000001802164e0     bufferlayout.obj
 0003:00003510       ??_C@_04IAGNFIBA@size?$AA@ 0000000180216510     bufferlayout.obj
 0003:00003520       ??_C@_0FM@GEEDCKNE@void?5__cdecl?5FD?3?3BufferLayout?3?3P@ 0000000180216520     bufferlayout.obj
 0003:00003680       ??_C@_0BO@FGCDCAKJ@FD_INDEXBUFFER_FORMAT_UNKNOWN?$AA@ 0000000180216680     indexbuffer.obj
 0003:000036b0       ??_C@_0EP@BHEOCEBE@enum?5DXGI_FORMAT?5__cdecl?5FD?3?3get@ 00000001802166b0     indexbuffer.obj
 0003:00003710       ??_C@_0FD@NBIGDGOO@d?3?2dev?2visual?5studio?52015?2projec@ 0000000180216710     indexbuffer.obj
 0003:00003774       ??_C@_06HOHPNJLC@buffer?$AA@ 0000000180216774     indexbuffer.obj
 0003:00003780       ??_C@_0FN@BGLDNJIN@__cdecl?5FD?3?3IndexBuffer?3?3IndexBu@ 0000000180216780     indexbuffer.obj
 0003:00003b10       ??_C@_0EC@IJPFNAAD@__cdecl?5FD?3?3VertexBuffer?3?3Vertex@ 0000000180216b10     vertexbuffer.obj
 0003:00003b60       ??_C@_0FE@JFFEAGDB@d?3?2dev?2visual?5studio?52015?2projec@ 0000000180216b60     vertexbuffer.obj
 0003:00003bd0       ??_C@_0FC@IIPEIKHD@__cdecl?5FD?3?3VertexBuffer?3?3Vertex@ 0000000180216bd0     vertexbuffer.obj
 0003:00003c38       ??_C@_09EKHDKHLL@map?4pData?$AA@ 0000000180216c38     vertexbuffer.obj
 0003:00003c48       ??_C@_0DK@LHMCAEOA@void?5?$CK__cdecl?5FD?3?3VertexBuffer?3?3@ 0000000180216c48     vertexbuffer.obj
 0003:00003ec8       _GUID_6f15aaf2_d208_4e89_9ab4_489535d34f9c 0000000180216ec8     d3dcontext.obj
 0003:00003ee0       ??_C@_0BK@KMKENEBG@Deleting?5previous?5context?$AA@ 0000000180216ee0     d3dcontext.obj
 0003:00003f00       ??_C@_0BF@LKKKNFEC@Createing?5D3DContext?$AA@ 0000000180216f00     d3dcontext.obj
 0003:00003f20       ??_C@_0BE@COIOBAHH@Deleting?5D3DContext?$AA@ 0000000180216f20     d3dcontext.obj
 0003:00004570       ??_C@_0BK@OCHOMKIG@Failed?5to?5open?5font?3?5?$CC?$CFs?$CC?$AA@ 0000000180217570     font.obj
 0003:00004590       ??_C@_0BH@BDNLGN@nullptr?$CI?$CCFrom?5memory?$CC?$CJ?$AA@ 0000000180217590     font.obj
 0003:000045b0       ??_C@_0BI@GFGMMDNC@Failed?5to?5open?5new?5face?$AA@ 00000001802175b0     font.obj
 0003:00004770       ??_C@_0GE@JKIHIOIA@?$FLMaterial?$FN?5Not?5all?5of?5the?5buffer@ 0000000180217770     materialinstance.obj
 0003:000047f0       ??_C@_0FC@ELKIMNNB@?$FLMaterial?$FN?5Truncating?5data?$CB?5Cons@ 00000001802177f0     materialinstance.obj
 0003:00004ab4       __real@41000000            0000000180217ab4     usercamera.obj
 0003:00004d48       ??_C@_08JPMAAECC@POSITION?$AA@ 0000000180217d48     fontrenderer.obj
 0003:00004d58       ??_C@_09GIADOLOH@TEXCOORDS?$AA@ 0000000180217d58     fontrenderer.obj
 0003:00004d64       ??_C@_05DPNLPLKI@COLOR?$AA@ 0000000180217d64     fontrenderer.obj
 0003:00004d6c       ??_C@_03HBIKIEFI@TID?$AA@  0000000180217d6c     fontrenderer.obj
 0003:00004d70       ??_C@_0M@EJIJDIK@maxTextures?$AA@ 0000000180217d70     fontrenderer.obj
 0003:00004d80       ??_C@_09JLMIHEHA@view_data?$AA@ 0000000180217d80     fontrenderer.obj
 0003:00004d8c       __real@3dcccccd            0000000180217d8c     fontrenderer.obj
 0003:00004d90       __real@41800000            0000000180217d90     fontrenderer.obj
 0003:00004d94       __real@5f000000            0000000180217d94     fontrenderer.obj
 0003:00004d98       __real@bdcccccd            0000000180217d98     fontrenderer.obj
 0003:00005a38       ??_C@_04PACIOCLB@?4obj?$AA@ 0000000180218a38     meshfactory.obj
 0003:00005a40       ??_C@_0BL@EFCEDCPI@?$FLMeshFactory?$FN?5Loading?5?$CC?$CFs?$CC?$AA@ 0000000180218a40     meshfactory.obj
 0003:00005a60       ??_C@_0CA@OJGMNJON@?$FLMeshFactory?$FN?5Loading?5text?5file?$AA@ 0000000180218a60     meshfactory.obj
 0003:00005a88       ??_C@_0BK@DNMOLGHA@?$FLMeshFactory?$FN?5Moving?5data?$AA@ 0000000180218a88     meshfactory.obj
 0003:00005aa8       ??_C@_0BL@FIPKFKDI@?$FLMeshFactory?$FN?5Loading?5data?$AA@ 0000000180218aa8     meshfactory.obj
 0003:00005ac8       ??_C@_0CB@EBJLAGNF@?$FLMeshFactory?$FN?5Loading?5complete?$CB?6@ 0000000180218ac8     meshfactory.obj
 0003:00005af0       ??_C@_0GN@EMCJFELH@class?5FD?3?3Mesh?5?$CK__cdecl?5FD?3?3Mesh@ 0000000180218af0     meshfactory.obj
 0003:00005b78       ??_C@_0CC@INKJLFAP@?$CC?$CFs?$CC?5Only?5supports?5obj?5files?5ATM@ 0000000180218b78     meshfactory.obj
 0003:00005ba0       ??_C@_0BL@LMDNLBPJ@?$FLMeshFactory?$FN?5Parsing?5text?$AA@ 0000000180218ba0     meshfactory.obj
 0003:00005bc0       ??_C@_02MFEGBGKN@v?5?$AA@  0000000180218bc0     meshfactory.obj
 0003:00005bc8       ??_C@_0L@DAONHDED@v?5?$CFf?5?$CFf?5?$CFf?$AA@ 0000000180218bc8     meshfactory.obj
 0003:00005bd8       ??_C@_03FGJDDLIN@vt?5?$AA@ 0000000180218bd8     meshfactory.obj
 0003:00005be0       ??_C@_08JBOIAGIE@vt?5?$CFf?5?$CFf?$AA@ 0000000180218be0     meshfactory.obj
 0003:00005bec       ??_C@_03EHCCBNCL@vn?5?$AA@ 0000000180218bec     meshfactory.obj
 0003:00005bf0       ??_C@_0M@PPPNAFFK@vn?5?$CFf?5?$CFf?5?$CFf?$AA@ 0000000180218bf0     meshfactory.obj
 0003:00005c00       ??_C@_02NJGALFNN@f?5?$AA@  0000000180218c00     meshfactory.obj
 0003:00005c08       ??_C@_0BN@GPKCPBMC@f?5?$CFu?1?$CFu?1?$CFu?5?$CFu?1?$CFu?1?$CFu?5?$CFu?1?$CFu?1?$CFu?$AA@ 0000000180218c08     meshfactory.obj
 0003:00005c30       ??_C@_0DL@LPFFPFPI@?$FLMeshFactory?$FN?5Found?5?$CFu?5vertices?5@ 0000000180218c30     meshfactory.obj
 0003:00005c78       ??_C@_0BP@KIPBPFDA@?$FLMeshFactory?$FN?5Allocating?5space?$AA@ 0000000180218c78     meshfactory.obj
 0003:00005ca0       ??_C@_0BL@FPHGKJJM@?$FLMeshFactory?$FN?5Making?5faces?$AA@ 0000000180218ca0     meshfactory.obj
 0003:000063d4       ??_C@_04LOAJBDKD@true?$AA@ 00000001802193d4     shader.obj
 0003:000063dc       ??_C@_05LAPONLG@false?$AA@ 00000001802193dc     shader.obj
 0003:000063e8       ??_C@_07MJAJDDLG@defined?$AA@ 00000001802193e8     shader.obj
 0003:000063f4       ??_C@_02HIIGGHJB@eq?$AA@   00000001802193f4     shader.obj
 0003:000063f8       ??_C@_03HNHKOBKP@neq?$AA@  00000001802193f8     shader.obj
 0003:000063fc       ??_C@_02FACPOADM@gr?$AA@   00000001802193fc     shader.obj
 0003:00006400       ??_C@_02EFGBDOJM@ls?$AA@   0000000180219400     shader.obj
 0003:00006404       ??_C@_02FFKMGEKK@ge?$AA@   0000000180219404     shader.obj
 0003:00006408       ??_C@_02FJPJILEL@le?$AA@   0000000180219408     shader.obj
 0003:00006410       ??_C@_0CC@KAPCOLFP@?$FLShader?$FN?5Unknown?5function?5type?5?$CF@ 0000000180219410     shader.obj
 0003:00006438       ??_C@_07NFANNNEC@UNKNOWN?$AA@ 0000000180219438     shader.obj
 0003:00006444       ??_C@_06KFINLFAI@vs_5_0?$AA@ 0000000180219444     shader.obj
 0003:0000644c       ??_C@_06PPBMAAOH@vsMain?$AA@ 000000018021944c     shader.obj
 0003:00006458       ??_C@_0BH@HKDABIIL@VertexShader?5ERROR?3?5?$CFs?$AA@ 0000000180219458     shader.obj
 0003:00006478       ??_C@_0BP@EIMEFNKK@VertexShader?5failed?5to?5compile?$AA@ 0000000180219478     shader.obj
 0003:000064a0       ??_C@_0CO@NGCFNACL@vByteCode?5?$CG?$CG?5?$CCVertexShader?5faile@ 00000001802194a0     shader.obj
 0003:000064e0       ??_C@_0EE@IMJOPLAP@void?5__cdecl?5FD?3?3Shader?3?3Compile@ 00000001802194e0     shader.obj
 0003:00006540       ??_C@_0EO@HMAEMIPL@d?3?2dev?2visual?5studio?52015?2projec@ 0000000180219540     shader.obj
 0003:000065a0       ??_C@_06MGFNIADC@ps_5_0?$AA@ 00000001802195a0     shader.obj
 0003:000065a8       ??_C@_06JMMMDFNN@psMain?$AA@ 00000001802195a8     shader.obj
 0003:000065b0       ??_C@_0BG@MABPGAOH@PixelShader?5ERROR?3?5?$CFs?$AA@ 00000001802195b0     shader.obj
 0003:000065d0       ??_C@_0BO@LMIKNBEE@PixelShader?5failed?5to?5compile?$AA@ 00000001802195d0     shader.obj
 0003:000065f8       ??_C@_0CN@MHPOGLLM@pByteCode?5?$CG?$CG?5?$CCPixelShader?5failed@ 00000001802195f8     shader.obj
 0003:00006630       ??_C@_0BO@OMFHAPHG@Failed?5to?5create?5vertexshader?$AA@ 0000000180219630     shader.obj
 0003:00006658       ??_C@_0DA@LHKCCNCO@vertexShader?5?$CG?$CG?5?$CCFailed?5to?5creat@ 0000000180219658     shader.obj
 0003:00006698       ??_C@_0BN@IJJOHAGG@Failed?5to?5create?5pixelshader?$AA@ 0000000180219698     shader.obj
 0003:000066c0       ??_C@_0CO@IAGEANCB@pixelShader?5?$CG?$CG?5?$CCFailed?5to?5create@ 00000001802196c0     shader.obj
 0003:000066f8       ??_C@_0BP@NNGMEGJO@?$FLShader?$FN?5Buffer?5not?5found?5?$CC?$CFs?$CC?$AA@ 00000001802196f8     shader.obj
 0003:00006720       ??_C@_0BO@JOJHENPG@?$FLShader?$FN?5No?5buffer?5at?5slot?5?$CFu?$AA@ 0000000180219720     shader.obj
 0003:00006748       ??_C@_0BO@IJEGIKHG@?$FLShader?$FN?5No?5buffer?5named?5?$CC?$CFs?$CC?$AA@ 0000000180219748     shader.obj
 0003:00006770       ??_C@_0BP@IGACJFOL@?$FLShader?$FN?5No?5texture?5named?5?$CC?$CFs?$CC?$AA@ 0000000180219770     shader.obj
 0003:00006798       ??_C@_0CA@ENNOBPFC@?$FLShader?$FN?5Texture?5not?5found?5?$CC?$CFs?$CC?$AA@ 0000000180219798     shader.obj
 0003:000067c0       ??_C@_0CNL@FCMMKOEB@?6?6struct?5Out?5?$HL?6?7float4?5position?5@ 00000001802197c0     shaderfactory.obj
 0003:00006b30       ??_C@_0CFH@FDAODBNH@?6?6SamplerState?5samp?5?$HL?6?7Filter?5?$DN?5@ 0000000180219b30     shaderfactory.obj
 0003:00006e00       ??_C@_0PI@HANICGDJ@?6?6?6?6?6struct?5Out?5?5?$HL?6?7float4?5posit@ 0000000180219e00     shaderfactory.obj
 0003:00006f30       ??_C@_0CGM@KGACJAGI@?6?6SamplerState?5samp?5?$HL?6?7Filter?5?$DN?5@ 0000000180219f30     shaderfactory.obj
 0003:00007220       ??_C@_0DMC@OCNAMMK@?6?6SamplerState?5samp?5?$HL?6?7Filter?5?$DN?5@ 000000018021a220     shaderfactory.obj
 0003:000076b0       ??_C@_0FAB@FEIALJII@?6?6SamplerState?5samp?5?$HL?6?7Filter?5?$DN?5@ 000000018021a6b0     shaderfactory.obj
 0003:00007cc0       ??_C@_0CKI@HHBEBMNK@?6?6?6struct?5Out?5?$HL?6?7float4?5pos?5?3?5SV@ 000000018021acc0     shaderfactory.obj
 0003:00007ff0       ??_C@_0CJM@OBAILHBK@?5?6?6SamplerState?5samp?5?$HL?6?7Filter?5?$DN@ 000000018021aff0     shaderfactory.obj
 0003:00008320       ??_C@_0DIN@NMFPHNDE@?5?6?6?6SamplerState?5samp?$HL?6?7Filter?5?$DN@ 000000018021b320     shaderfactory.obj
 0003:00008770       ??_C@_0EJJ@MPGGKGKO@?6?6SamplerState?5samp?5?$HL?6?7Filter?5?$DN?5@ 000000018021b770     shaderfactory.obj
 0003:00008d00       ??_C@_0BKO@ICCGHGDE@?6?6struct?5Out?5?$HL?6?7float4?5position?5@ 000000018021bd00     shaderfactory.obj
 0003:00008f10       ??_C@_0CHA@GIAJFDDP@?6?6SamplerState?5samp?5?$HL?6?7AddressU?5@ 000000018021bf10     shaderfactory.obj
 0003:00009200       ??_C@_0GNP@BGKDFPDE@?6?6SamplerState?5samp?5?$HL?6?7AddressU?5@ 000000018021c200     shaderfactory.obj
 0003:00009a70       ??_C@_0DJ@EJMPBKEO@FD_SHADER_TYPE_UNKNOWN?3?5Unknown?5@ 000000018021ca70     shaderfactory.obj
 0003:0000b258       ??_C@_08BHPDBEAI@?5?$DN?$DM?$DO?$CL?9?$CK?1?$AA@ 000000018021e258     shadergen.obj
 0003:0000b268       ??_C@_0BE@CKEJNBHB@?$CDshaderGen?5endblock?$AA@ 000000018021e268     shadergen.obj
 0003:0000b280       ??_C@_0BF@DBGLOMPB@?$CDshaderGen?5define_r?5?$AA@ 000000018021e280     shadergen.obj
 0003:0000b2a0       ??_C@_0BF@CNENEPIB@?$CDshaderGen?5define_b?5?$AA@ 000000018021e2a0     shadergen.obj
 0003:0000b2c0       ??_C@_0BD@HEOFMIMO@?$CDshaderGen?5define?5?$AA@ 000000018021e2c0     shadergen.obj
 0003:0000b2d8       ??_C@_0P@FPBCBEMJ@?$CDshaderGen?5if?5?$AA@ 000000018021e2d8     shadergen.obj
 0003:0000b2f0       ??_C@_0BB@CFCLLDF@?$CDshaderGen?5elif?5?$AA@ 000000018021e2f0     shadergen.obj
 0003:0000b308       ??_C@_0BA@DONKGKGO@?$CDshaderGen?5else?$AA@ 000000018021e308     shadergen.obj
 0003:0000b320       ??_C@_0BB@CHIHJPDG@?$CDshaderGen?5endif?$AA@ 000000018021e320     shadergen.obj
 0003:0000b338       ??_C@_0BF@CBNHNPNJ@?$CDshaderGen?5generate?5?$AA@ 000000018021e338     shadergen.obj
 0003:0000b358       ??_C@_0M@PPEOPFCA@?$CDshaderGen?5?$AA@ 000000018021e358     shadergen.obj
 0003:0000b368       ??_C@_06NNHENAPG@sg_add?$AA@ 000000018021e368     shadergen.obj
 0003:0000b370       ??_C@_06GMNKCBCD@sg_sub?$AA@ 000000018021e370     shadergen.obj
 0003:0000b378       ??_C@_06ECJPCMAB@sg_mul?$AA@ 000000018021e378     shadergen.obj
 0003:0000b380       ??_C@_06JKIGMDEE@sg_div?$AA@ 000000018021e380     shadergen.obj
 0003:0000b388       ??_C@_01LFCBOECM@?4?$AA@   000000018021e388     shadergen.obj
 0003:0000b390       ??_C@_0CO@OPBMIKLC@?$FLShaderGen?$FN?5Unknown?5function?5in?5@ 000000018021e390     shadergen.obj
 0003:0000b3c8       ??_C@_01CLKCMJKC@?5?$AA@   000000018021e3c8     shadergen.obj
 0003:0000b3d0       ??_C@_0DJ@ILMALNPM@?$FLShaderGen?$FN?5Variable?5?$CC?$CFs?$CC?5re?9def@ 000000018021e3d0     shadergen.obj
 0003:0000b418       ??_C@_0CP@GGHOJLAE@?$FLShaderGen?$FN?5Added?5variable?5?$DMNAME@ 000000018021e418     shadergen.obj
 0003:0000b450       ??_C@_0DE@OBBBAGJG@?$FLShaderGen?$FN?5Added?5variable?5?$DMNAME@ 000000018021e450     shadergen.obj
 0003:0000b490       ??_C@_0DG@HEDEIFMA@?$FLShaderGen?$FN?5Block?5?$CC?$CFs?$CC?5re?9defini@ 000000018021e490     shadergen.obj
 0003:0000b4d0       ??_C@_0CD@FHBEDDGO@?$FLShaderGen?$FN?5Added?5block?5?$DMNAME?3?5?$CF@ 000000018021e4d0     shadergen.obj
 0003:0000b500       ??_C@_0DB@HOKPHOMH@?$FLShaderGen?$FN?5No?5?$CCendif?$CC?5found?5aft@ 000000018021e500     shadergen.obj
 0003:0000b53c       ??_C@_01PKGAHCOL@?$CJ?$AA@ 000000018021e53c     shadergen.obj
 0003:0000b540       ??_C@_0CD@DHMCGAIB@?$FLShaderGen?$FN?5Block?5?$CC?$CFs?$CC?5not?5defin@ 000000018021e540     shadergen.obj
 0003:0000b56c       ??_C@_06EJFMBPJF@single?$AA@ 000000018021e56c     shadergen.obj
 0003:0000b574       ??_C@_04EGMCHPMO@for?$CI?$AA@ 000000018021e574     shadergen.obj
 0003:0000b580       ??_C@_0CG@CDMHAJKB@?$FLShaderGen?$FN?5Variable?5?$CC?$CFs?$CC?5not?5de@ 000000018021e580     shadergen.obj
 0003:0000b5b0       ??_C@_0DJ@GPJEJEEH@?$FLShaderGen?$FN?5?$CFs?5is?5not?5a?5valid?5op@ 000000018021e5b0     shadergen.obj
 0003:0000b5f8       ??_C@_08HPJGLBCA@defined?$CI?$AA@ 000000018021e5f8     shadergen.obj
 0003:0000b604       ??_C@_03NKCNILBP@eq?$CI?$AA@ 000000018021e604     shadergen.obj
 0003:0000b608       ??_C@_04BLEJGKDC@neq?$CI?$AA@ 000000018021e608     shadergen.obj
 0003:0000b610       ??_C@_03HCGCPNMN@gr?$CI?$AA@ 000000018021e610     shadergen.obj
 0003:0000b614       ??_C@_03KEKBBAPL@ls?$CI?$AA@ 000000018021e614     shadergen.obj
 0003:0000b618       ??_C@_03GLALEIDI@ge?$CI?$AA@ 000000018021e618     shadergen.obj
 0003:0000b61c       ??_C@_03LMAKMPDJ@le?$CI?$AA@ 000000018021e61c     shadergen.obj
 0003:0000b620       ??_C@_0CC@JOGHAI@?$FLShaderGen?$FN?5Unknown?5function?5?$CC?$CFs@ 000000018021e620     shadergen.obj
 0003:0000b648       ??_C@_01IHBHIGKO@?0?$AA@   000000018021e648     shadergen.obj
 0003:0000b650       ??_C@_0EI@EJJONKED@?$FLShaderGen?$FN?5Function?5?$CC?$CFs?$CC?5only?5h@ 000000018021e650     shadergen.obj
 0003:0000b6a8       ??_C@_02NJPGOMH@?$CFf?$AA@ 000000018021e6a8     shadergen.obj
 0003:0000b6b0       ??_C@_0CM@BNMIKFOJ@?$FLShaderGen?$FN?5Variable?5?$CC?$CFs?$CC?5update@ 000000018021e6b0     shadergen.obj
 0003:0000b6f0       ??_C@_0EE@GAGGBBDN@?$FLShaderGen?$FN?5Variable?5?$CC?$CFs?$CC?5doesn?8@ 000000018021e6f0     shadergen.obj
 0003:0000b748       ??_C@_0CE@JBCJGJCJ@?$FLShaderGen?$FN?5Undefined?5variable?5?$CC@ 000000018021e748     shadergen.obj
 0003:0000b778       ??_C@_0CE@OIEALFPF@?$FLShaderGen?$FN?5Variable?5?$CC?$CFs?$CC?5not?5fo@ 000000018021e778     shadergen.obj
 0003:0000b7a8       ??_C@_0CB@GAJLMHD@?$FLShaderGen?$FN?5Block?5?$CC?$CFs?$CC?5not?5found@ 000000018021e7a8     shadergen.obj
 0003:0000b7d0       ??_C@_0M@CBIBJHEC@Empty?5Block?$AA@ 000000018021e7d0     shadergen.obj
 0003:0000b7e0       ??_C@_0DG@FPPGPPBP@?$FLShaderGen?$FN?5Shader?5generation?5co@ 000000018021e7e0     shadergen.obj
 0003:0000bb70       ??_C@_06MNHBPGAA@UNKOWN?$AA@ 000000018021eb70     shaderparser.obj
 0003:0000bb78       ??_C@_08JNEOKFJO@float4x4?$AA@ 000000018021eb78     shaderparser.obj
 0003:0000bb88       ??_C@_08EPNIALOA@float3x3?$AA@ 000000018021eb88     shaderparser.obj
 0003:0000bb94       ??_C@_06IFOJNFPO@float4?$AA@ 000000018021eb94     shaderparser.obj
 0003:0000bb9c       ??_C@_06MKKIEDDJ@float3?$AA@ 000000018021eb9c     shaderparser.obj
 0003:0000bba4       ??_C@_06NDLDHCHI@float2?$AA@ 000000018021eba4     shaderparser.obj
 0003:0000bbb0       ??_C@_07LCLPHEDK@float32?$AA@ 000000018021ebb0     shaderparser.obj
 0003:0000bbbc       ??_C@_05MBDEGLCK@ERROR?$AA@ 000000018021ebbc     shaderparser.obj
 0003:0000bbc4       ??_C@_02FMMEOLBI@?1?$CK?$AA@ 000000018021ebc4     shaderparser.obj
 0003:0000bbc8       ??_C@_02CHHINNLG@?$CK?1?$AA@ 000000018021ebc8     shaderparser.obj
 0003:0000bbcc       ??_C@_02CBLDBPFN@?1?1?$AA@ 000000018021ebcc     shaderparser.obj
 0003:0000bbd0       ??_C@_07NIFFHOPN@cbuffer?$AA@ 000000018021ebd0     shaderparser.obj
 0003:0000bbdc       ??_C@_01JLIPDDHJ@?3?$AA@   000000018021ebdc     shaderparser.obj
 0003:0000bbe0       ??_C@_08DHHIDNEP@register?$AA@ 000000018021ebe0     shaderparser.obj
 0003:0000bbf0       ??_C@_0DP@MLLIAABF@?$FLShaderParser?$FN?5Found?5vCBuffer?5?$DMN@ 000000018021ebf0     shaderparser.obj
 0003:0000bc40       ??_C@_0DP@LLMPBGPD@?$FLShaderParser?$FN?5Found?5pCBuffer?5?$DMN@ 000000018021ec40     shaderparser.obj
 0003:0000bc8c       ??_C@_02GACFDCNG@?$HN?$DL?$AA@ 000000018021ec8c     shaderparser.obj
 0003:0000bc90       ??_C@_01ICJEACDI@?$DL?$AA@ 000000018021ec90     shaderparser.obj
 0003:0000bc98       ??_C@_07GKACAEDJ@Texture?$AA@ 000000018021ec98     shaderparser.obj
 0003:0000bca4       ??_C@_03HEDLLOJJ@1D?5?$AA@ 000000018021eca4     shaderparser.obj
 0003:0000bca8       ??_C@_03GGIOBBHH@2D?5?$AA@ 000000018021eca8     shaderparser.obj
 0003:0000bcac       ??_C@_03NODCHGBC@3D?5?$AA@ 000000018021ecac     shaderparser.obj
 0003:0000bcb0       ??_C@_07FCDGEDMG@1DArray?$AA@ 000000018021ecb0     shaderparser.obj
 0003:0000bcc0       ??_C@_07NMLJEECF@2DArray?$AA@ 000000018021ecc0     shaderparser.obj
 0003:0000bcd0       ??_C@_09KJEEAION@CubeArray?$AA@ 000000018021ecd0     shaderparser.obj
 0003:0000bcdc       ??_C@_04CJLGPKHJ@Cube?$AA@ 000000018021ecdc     shaderparser.obj
 0003:0000bce8       ??_C@_0L@FCIEIDAJ@register?$CIt?$AA@ 000000018021ece8     shaderparser.obj
 0003:0000bd00       ??_C@_0EG@GNGGGKIA@?$FLShaderParser?$FN?5Texture?5?$CC?$CFs?$CC?5has?5@ 000000018021ed00     shaderparser.obj
 0003:0000bd54       ??_C@_01OHGJGJJP@?$FL?$AA@ 000000018021ed54     shaderparser.obj
 0003:0000bf70       ??_C@_0BK@LGHHIIHC@FD_TEXTURE_FORMAT_UNKNOWN?$AA@ 000000018021ef70     framebuffer2d.obj
 0003:0000bf90       ??_C@_0GE@OKPOEADB@__cdecl?5FD?3?3Framebuffer2D?3?3Frame@ 000000018021ef90     framebuffer2d.obj
 0003:0000c010       ??_C@_0FG@IIPJADNM@d?3?2dev?2visual?5studio?52015?2projec@ 000000018021f010     framebuffer2d.obj
 0003:0000c078       ??_C@_08NJJFDENH@resource?$AA@ 000000018021f078     framebuffer2d.obj
 0003:0000c088       ??_C@_0N@LEMHLMFL@resourceView?$AA@ 000000018021f088     framebuffer2d.obj
 0003:0000c098       ??_C@_0BB@EAAKOAHB@renderTargetView?$AA@ 000000018021f098     framebuffer2d.obj
 0003:0000c0b0       ??_C@_0BB@JCJIPIAL@depthStencilView?$AA@ 000000018021f0b0     framebuffer2d.obj
 0003:0000c208       ??_C@_0BI@FLOHGLHB@width?5parameter?5nullptr?$AA@ 000000018021f208     texture.obj
 0003:0000c228       ??_C@_0DA@MJPAPMGN@?$CIwidth?5?$CB?$DN?5nullptr?5?$CG?$CG?5?$CCwidth?5para@ 000000018021f228     texture.obj
 0003:0000c270       ??_C@_0HA@NKHGOJCC@unsigned?5char?5?$CK__cdecl?5FD?3?3Textu@ 000000018021f270     texture.obj
 0003:0000c300       ??_C@_0FA@LLIKOLGP@d?3?2dev?2visual?5studio?52015?2projec@ 000000018021f300     texture.obj
 0003:0000c360       ??_C@_0BJ@OGNGHONB@height?5parameter?5nullptr?$AA@ 000000018021f360     texture.obj
 0003:0000c380       ??_C@_0DC@OKAFIPJJ@?$CIheight?5?$CB?$DN?5nullptr?5?$CG?$CG?5?$CCheight?5pa@ 000000018021f380     texture.obj
 0003:0000c3c0       ??_C@_0BH@EKNNFCBG@bits?5parameter?5nullptr?$AA@ 000000018021f3c0     texture.obj
 0003:0000c3e0       ??_C@_0CO@NNCICMPB@?$CIbits?5?$CB?$DN?5nullptr?5?$CG?$CG?5?$CCbits?5parame@ 000000018021f3e0     texture.obj
 0003:0000c418       ??_C@_0CB@EOCCIJCJ@?$FLTexture?$FN?5?$CC?$CFs?$CC?5unknown?5file?5type@ 000000018021f418     texture.obj
 0003:0000c440       ??_C@_0CI@MFFPCFAD@?$FLTexture?$FN?5?$CC?$CFs?$CC?5does?5not?5support?5@ 000000018021f440     texture.obj
 0003:0000c470       ??_C@_0FO@ILLLKLH@unsigned?5char?5?$CK__cdecl?5FD?3?3Textu@ 000000018021f470     texture.obj
 0003:0000c4e0       ??_C@_0BM@PFKHJJJM@?$FLTexture?$FN?5unknown?5file?5type?$AA@ 000000018021f4e0     texture.obj
 0003:0000c508       ??_C@_0CL@KAMAAPJM@?$FLTexture?$FN?5texture?5does?5not?5suppo@ 000000018021f508     texture.obj
 0003:0000c800       ??_C@_0CN@HCHDABPJ@?$FLTexture2D?$FN?5Only?5supports?532?5bit@ 000000018021f800     texture2d.obj
 0003:0000c838       ??_C@_0DL@LLNOAHEB@__cdecl?5FD?3?3Texture2D?3?3Texture2D@ 000000018021f838     texture2d.obj
 0003:0000c880       ??_C@_0FC@NGIHKJGN@d?3?2dev?2visual?5studio?52015?2projec@ 000000018021f880     texture2d.obj
 0003:0000c8f0       ??_C@_0FO@JPBOLAKC@__cdecl?5FD?3?3Texture2D?3?3Texture2D@ 000000018021f8f0     texture2d.obj
 0003:0000cb88       ??_C@_07DLHCIBDH@default?$AA@ 000000018021fb88     texturemanager.obj
 0003:0000cb98       ??_C@_0BE@CBPMKCAM@?$CC?$CFs?$CC?5already?5exist?$CB?$AA@ 000000018021fb98     texturemanager.obj
 0003:0000cbb0       ??_C@_0BL@EKJFOCCG@Couldn?8t?5find?5texture?5?$CC?$CFs?$CC?$AA@ 000000018021fbb0     texturemanager.obj
 0003:0000d67c       __real@c0000000            000000018022067c     mat4.obj
 0003:0000d680       __xmm@3f8000003f8000003f8000003f800000 0000000180220680     mat4.obj
 0003:0000dda0       __xmm@00000000000000000000000000000000 0000000180220da0     vec2.obj
 0003:0000eed0       ??_C@_0DO@EMIPIALC@?$FLAsset?$FN?3?5Failed?5to?5create?5string@ 0000000180221ed0     asset.obj
 0003:0000ef20       ??_C@_0DK@GOFMCMJJ@?$FLAsset?$FN?3?5Failed?5to?5create?5font?0?5@ 0000000180221f20     asset.obj
 0003:0000ef68       ??_C@_0DO@GJAKNAIL@?$FLAsset?$FN?3?5Failed?5to?5create?5shader@ 0000000180221f68     asset.obj
 0003:0000efc0       ??_C@_0EN@HBJMLDBI@?$FLAsset?$FN?3?5Failed?5to?5create?5textur@ 0000000180221fc0     asset.obj
 0003:0000f020       ??_C@_0FK@HAADMKHP@?$FLAsset?$FN?3?5TODO?5Implement?5?$CFs?$CB?$CB?$CBcla@ 0000000180222020     asset.obj
 0003:0000f090       ??_C@_0FB@HECFABPH@?$FLAsset?$FN?3?5Failed?5to?5create?5textur@ 0000000180222090     asset.obj
 0003:0000f620       ??_C@_04KAHAKNDB@PHDR?$AA@ 0000000180222620     assetmanager.obj
 0003:0000f630       ??_C@_0EO@KINGDMC@?$FLAssetManager?$FN?5Failed?5to?5validat@ 0000000180222630     assetmanager.obj
 0003:0000f690       ??_C@_0EK@BDEEAEPK@?$FLAssetManager?$FN?5Failed?5to?5validat@ 0000000180222690     assetmanager.obj
 0003:0000f6e8       ??_C@_0CI@NNIOEDEJ@?$FLAssetManager?$FN?5Failed?5to?5open?5fi@ 00000001802226e8     assetmanager.obj
 0003:0000f720       ??_C@_0EA@FEAPHMEM@?$FLAssetManager?$FN?5Loaded?5package?3?5N@ 0000000180222720     assetmanager.obj
 0003:0000f770       ??_C@_0CJ@FCFHJCND@?$FLAssetManager?$FN?5No?5package?5with?5n@ 0000000180222770     assetmanager.obj
 0003:0000f7a8       ??_C@_0CK@FGAAOII@AssetManager?$FN?5Unloaded?5package?3?5@ 00000001802227a8     assetmanager.obj
 0003:0000f7dc       ??_C@_02GMLFBBN@wb?$AA@    00000001802227dc     assetmanager.obj
 0003:0000f810       ??_C@_02JDPG@rb?$AA@       0000000180222810     fileutils.obj
 0003:0000f818       ??_C@_0CF@BKEOICBM@?$FLFileUtils?$FN?5Failed?5to?5open?5file?5@ 0000000180222818     fileutils.obj
 0003:0000f848       ??_C@_0BE@HJPJFJPJ@Failed?5to?5open?5file?$AA@ 0000000180222848     fileutils.obj
 0003:0000f998       ??_C@_0BF@POILFIAN@?$CIbool?$CJ?$CIlength?5?$DO?5len?$CJ?$AA@ 0000000180222998     string.obj
 0003:0000f9c0       ??_C@_0FA@LCHNGPPK@class?5FD?3?3String?5?$CG__cdecl?5FD?3?3St@ 00000001802229c0     string.obj
 0003:0000fa20       ??_C@_0ED@IABLIMJP@d?3?2dev?2visual?5studio?52015?2projec@ 0000000180222a20     string.obj
 0003:0000ff28       ??_C@_01KMDKNFGN@?1?$AA@   0000000180222f28     vfs.obj
 0003:00010128       ??_C@_0DK@DKMFEICM@FT_Add_Default_Module?3?5Cannot?5in@ 0000000180223128     FreeType:ftinit.obj
 0003:00010170       ??_C@_0BE@LLDKDDBI@FREETYPE_PROPERTIES?$AA@ 0000000180223170     FreeType:ftinit.obj
 0003:00010188       ??_C@_0CO@LBAOJIKG@FT_Init_FreeType?3?5cannot?5find?5me@ 0000000180223188     FreeType:ftinit.obj
 0003:000101c0       ??_C@_0FB@GDBBPFKA@d?3?2dev?2visual?5studio?52015?2projec@ 00000001802231c0     FreeType:ftinit.obj
 0003:00013960       ??_C@_0FD@KPLFBDHD@d?3?2dev?2visual?5studio?52015?2projec@ 0000000180226960     FreeType:ftbase.obj
 0003:000139d0       ??_C@_0FB@DDBJPIGN@d?3?2dev?2visual?5studio?52015?2projec@ 00000001802269d0     FreeType:ftbase.obj
 0003:00013a40       ??_C@_0FD@FPBJIAAK@d?3?2dev?2visual?5studio?52015?2projec@ 0000000180226a40     FreeType:ftbase.obj
 0003:00013ab0       ??_C@_0FB@KNHEECII@d?3?2dev?2visual?5studio?52015?2projec@ 0000000180226ab0     FreeType:ftbase.obj
 0003:00013b18       ??_C@_0CI@LNKHNHDB@assertion?5failed?5on?5line?5?$CFd?5of?5f@ 0000000180226b18     FreeType:ftbase.obj
 0003:00013b48       ??_C@_0CM@EJMEHHKF@FT_New_GlyphSlot?3?5Creating?5new?5s@ 0000000180226b48     FreeType:ftbase.obj
 0003:00013b80       ??_C@_0BN@GHDAFOEM@FT_New_GlyphSlot?3?5Return?5?$CFd?6?$AA@ 0000000180226b80     FreeType:ftbase.obj
 0003:00013ba8       ??_C@_0BB@IOAIMLPN@?5?5x?5advance?3?5?$CFd?6?$AA@ 0000000180226ba8     FreeType:ftbase.obj
 0003:00013bc0       ??_C@_0BB@DHPDBABF@?5?5y?5advance?3?5?$CFd?6?$AA@ 0000000180226bc0     FreeType:ftbase.obj
 0003:00013bd8       ??_C@_0BI@JDGPFKEE@?5?5linear?5x?5advance?3?5?$CFd?6?$AA@ 0000000180226bd8     FreeType:ftbase.obj
 0003:00013bf8       ??_C@_0BI@CKJEIBKM@?5?5linear?5y?5advance?3?5?$CFd?6?$AA@ 0000000180226bf8     FreeType:ftbase.obj
 0003:00013c18       ??_C@_0DF@OKGNBBAH@open_face_PS_from_sfnt_stream?3?5i@ 0000000180226c18     FreeType:ftbase.obj
 0003:00013c58       ??_C@_0DF@NBKANFLI@open_face_PS_from_sfnt_stream?3?5i@ 0000000180226c58     FreeType:ftbase.obj
 0003:00013c98       ??_C@_03LBLPCGAC@cid?$AA@  0000000180226c98     FreeType:ftbase.obj
 0003:00013c9c       ??_C@_05MJDCDNNA@type1?$AA@ 0000000180226c9c     FreeType:ftbase.obj
 0003:00013cb0       ??_C@_0EI@HEJNHJIO@?5?5?5?5?5?5?5?5?5?5?5?5?5?5?5?5?5POST?5fragment?5?$CD@ 0000000180226cb0     FreeType:ftbase.obj
 0003:00013d08       ??_C@_0DJ@KBMDCGJB@?5?5?5?5?5?5?5?5?5?5?5?5?5MacOS?5resource?5leng@ 0000000180226d08     FreeType:ftbase.obj
 0003:00013d50       ??_C@_0EJ@NJLNDCFP@?5?5?5?5?5?5?5?5?5?5?5?5?5total?5buffer?5size?5t@ 0000000180226d50     FreeType:ftbase.obj
 0003:00013db0       ??_C@_0EO@OBIMOMML@?5?5?5?5?5?5?5?5?5?5?5?5?5too?5long?5fragment?5l@ 0000000180226db0     FreeType:ftbase.obj
 0003:00013e10       ??_C@_0DO@FFNFKKBL@POST?5fragment?$FL?$CFd?$FN?3?5offsets?$DN0x?$CF08@ 0000000180226e10     FreeType:ftbase.obj
 0003:00013e60       ??_C@_0DE@BFEPNCGH@?5?5?5?5Skip?5POST?5fragment?5?$CD?$CFd?5becau@ 0000000180226e60     FreeType:ftbase.obj
 0003:00013ea0       ??_C@_0ED@CFKGBIL@?5?5?5?5Write?5POST?5fragment?5?$CD?$CFd?5head@ 0000000180226ea0     FreeType:ftbase.obj
 0003:00013ef0       ??_C@_0ED@BPJFLACJ@?5?5?5?5Write?5POST?5fragment?5?$CD?$CFd?5head@ 0000000180226ef0     FreeType:ftbase.obj
 0003:00013f40       ??_C@_0DM@CEOCOKHH@?5?5?5?5Load?5POST?5fragment?5?$CD?$CFd?5?$CI?$CFd?5b@ 0000000180226f40     FreeType:ftbase.obj
 0003:00013f88       ??_C@_0DN@PNGOLBCM@?5?5Abort?5due?5to?5too?9short?5buffer?5@ 0000000180226f88     FreeType:ftbase.obj
 0003:00013fd8       ??_C@_0DC@NNANPJBN@?5?5Abort?5due?5to?5invalid?5offset?5in@ 0000000180226fd8     FreeType:ftbase.obj
 0003:00014014       ??_C@_04LLEFIKCJ@OTTO?$AA@ 0000000180227014     FreeType:ftbase.obj
 0003:0001401c       ??_C@_03IINFADLN@cff?$AA@  000000018022701c     FreeType:ftbase.obj
 0003:00014020       ??_C@_08OKLLNAKL@truetype?$AA@ 0000000180227020     FreeType:ftbase.obj
 0003:00014030       ??_C@_0FA@JCLMAEBF@Skip?5rule?5?$CFd?3?5darwin?5vfs?5resourc@ 0000000180227030     FreeType:ftbase.obj
 0003:00014090       ??_C@_0CD@FFDDFHGN@Error?$FL?$CFd?$FN?5has?5occurred?5in?5rule?5?$CF@ 0000000180227090     FreeType:ftbase.obj
 0003:000140c0       ??_C@_0CA@PFAALNLK@Try?5rule?5?$CFd?3?5?$CFs?5?$CIoffset?$DN?$CFd?$CJ?5?4?4?4?$AA@ 00000001802270c0     FreeType:ftbase.obj
 0003:000140e8       ??_C@_07GLGIIGGC@failed?6?$AA@ 00000001802270e8     FreeType:ftbase.obj
 0003:000140f4       ??_C@_06ODACHPEO@failed?$AA@ 00000001802270f4     FreeType:ftbase.obj
 0003:00014100       ??_C@_0L@LHCHIOPJ@successful?$AA@ 0000000180227100     FreeType:ftbase.obj
 0003:00014110       ??_C@_03OFAPEBGM@?$CFs?6?$AA@ 0000000180227110     FreeType:ftbase.obj
 0003:00014118       ??_C@_0P@DHAPICOH@Try?5as?5dfont?3?5?$AA@ 0000000180227118     FreeType:ftbase.obj
 0003:0001412c       ??_C@_06MKFINMBK@?$CFs?5?4?4?4?$AA@ 000000018022712c     FreeType:ftbase.obj
 0003:00014138       ??_C@_0CP@IBOIBMPE@FT_Open_Face?3?5New?5face?5object?0?5a@ 0000000180227138     FreeType:ftbase.obj
 0003:00014170       ??_C@_0CD@CHCDOGML@FT_Open_Face?3?5Creating?5glyph?5slo@ 0000000180227170     FreeType:ftbase.obj
 0003:000141a0       ??_C@_0CE@BJBAHAEB@FT_Open_Face?3?5Creating?5size?5obje@ 00000001802271a0     FreeType:ftbase.obj
 0003:000141d0       ??_C@_0EF@HPPDPLJD@FT_Open_Face?3?5Invalid?5bitmap?5dim@ 00000001802271d0     FreeType:ftbase.obj
 0003:00014228       ??_C@_0BJ@MEHPJOJJ@FT_Open_Face?3?5Return?5?$CFd?6?$AA@ 0000000180227228     FreeType:ftbase.obj
 0003:00014248       ??_C@_0CJ@DDDPHPIG@FT_Match_Size?3?5bitmap?5strike?5?$CFd?5@ 0000000180227248     FreeType:ftbase.obj
 0003:00014280       ??_C@_0CK@HAMGDMHO@FT_Match_Size?3?5no?5matching?5bitma@ 0000000180227280     FreeType:ftbase.obj
 0003:000142b8       ??_C@_0BE@MLDMBGGF@FT_Select_Metrics?3?6?$AA@ 00000001802272b8     FreeType:ftbase.obj
 0003:000142d0       ??_C@_0BE@ELENCOCM@?5?5x?5scale?3?5?$CFd?5?$CI?$CFf?$CJ?6?$AA@ 00000001802272d0     FreeType:ftbase.obj
 0003:000142e8       ??_C@_0BE@KEBPJIMN@?5?5y?5scale?3?5?$CFd?5?$CI?$CFf?$CJ?6?$AA@ 00000001802272e8     FreeType:ftbase.obj
 0003:00014300       ??_C@_0BA@IMDJILLD@?5?5ascender?3?5?$CFf?6?$AA@ 0000000180227300     FreeType:ftbase.obj
 0003:00014318       ??_C@_0BB@NOOFJCKE@?5?5descender?3?5?$CFf?6?$AA@ 0000000180227318     FreeType:ftbase.obj
 0003:00014330       ??_C@_0O@BECDBCKD@?5?5height?3?5?$CFf?6?$AA@ 0000000180227330     FreeType:ftbase.obj
 0003:00014340       ??_C@_0BD@CKEHEIOI@?5?5max?5advance?3?5?$CFf?6?$AA@ 0000000180227340     FreeType:ftbase.obj
 0003:00014358       ??_C@_0O@MGPJNHMK@?5?5x?5ppem?3?5?$CFd?6?$AA@ 0000000180227358     FreeType:ftbase.obj
 0003:00014368       ??_C@_0O@FNFMJLKF@?5?5y?5ppem?3?5?$CFd?6?$AA@ 0000000180227368     FreeType:ftbase.obj
 0003:00014378       ??_C@_0BF@NOKCMJFG@FT_Request_Metrics?3?6?$AA@ 0000000180227378     FreeType:ftbase.obj
 0003:00014398       ??_C@_0CP@GKDGDPHD@FT_Select_Size?5?$CIfont?5driver?8s?5?$GAs@ 0000000180227398     FreeType:ftbase.obj
 0003:000143d0       ??_C@_0DB@EGLCAILO@FT_Request_Size?5?$CIfont?5driver?8s?5?$GA@ 00000001802273d0     FreeType:ftbase.obj
 0003:00014410       ??_C@_0EM@CAAJCPO@FT_Get_Kerning?3?5horizontal?5kerni@ 0000000180227410     FreeType:ftbase.obj
 0003:00014470       ??_C@_07IAOBDJBM@kerning?$AA@ 0000000180227470     FreeType:ftbase.obj
 0003:00014480       ??_C@_0CG@CKMEHECH@FT_Get_Char_Index?3?5too?5large?5cha@ 0000000180227480     FreeType:ftbase.obj
 0003:000144b0       ??_C@_0BE@MNGPDEEO@?50x?$CFx?5is?5truncated?6?$AA@ 00000001802274b0     FreeType:ftbase.obj
 0003:000144c8       ??_C@_0CN@FFPLHPNK@FT_Get_Char_Index?3?5too?5large?5var@ 00000001802274c8     FreeType:ftbase.obj
 0003:00014500       ??_C@_0L@POCJHJKN@glyph?9dict?$AA@ 0000000180227500     FreeType:ftbase.obj
 0003:00014510       ??_C@_0BF@GDPJODJF@postscript?9font?9name?$AA@ 0000000180227510     FreeType:ftbase.obj
 0003:00014530       ??_C@_0L@MBBJBANC@sfnt?9table?$AA@ 0000000180227530     FreeType:ftbase.obj
 0003:00014540       ??_C@_08OHCKCLF@tt?9cmaps?$AA@ 0000000180227540     FreeType:ftbase.obj
 0003:00014550       ??_C@_0CC@GCGCHKFH@MD5?5checksum?5for?5?$CFdx?$CFd?5bitmap?3?6?5@ 0000000180227550     FreeType:ftbase.obj
 0003:00014578       ??_C@_04JFFKLGJF@?$CF02X?$AA@ 0000000180227578     FreeType:ftbase.obj
 0003:00014580       ??_C@_0BA@EFHAKNKK@FT_Property_Set?$AA@ 0000000180227580     FreeType:ftbase.obj
 0003:00014598       ??_C@_0BA@JKALGNGC@FT_Property_Get?$AA@ 0000000180227598     FreeType:ftbase.obj
 0003:000145b0       ??_C@_0BM@PCLLPLNH@?$CFs?3?5can?8t?5find?5module?5?$GA?$CFs?8?6?$AA@ 00000001802275b0     FreeType:ftbase.obj
 0003:000145d8       ??_C@_0CM@OCOCNMJK@?$CFs?3?5module?5?$GA?$CFs?8?5doesn?8t?5support?5@ 00000001802275d8     FreeType:ftbase.obj
 0003:00014610       ??_C@_0L@CIHKIEFA@properties?$AA@ 0000000180227610     FreeType:ftbase.obj
 0003:00014620       ??_C@_0CP@KPKEMLC@?$CFs?3?5property?5service?5of?5module?5?$GA@ 0000000180227620     FreeType:ftbase.obj
 0003:00014658       ??_C@_06GNKBHGHD@type42?$AA@ 0000000180227658     FreeType:ftbase.obj
 0003:00014660       ??_C@_0CF@CMLHDJPN@FT_Done_Library?3?5close?5faces?5for@ 0000000180227660     FreeType:ftbase.obj
 0003:00014690       ??_C@_0CM@IAHJFBLJ@FT_Done_Library?3?5failed?5to?5free?5@ 0000000180227690     FreeType:ftbase.obj
 0003:000146c8       ??_C@_0BA@DHLLBDBB@truetype?9engine?$AA@ 00000001802276c8     FreeType:ftbase.obj
 0003:000146e0       ??_C@_0FC@DHFNMAGC@d?3?2dev?2visual?5studio?52015?2projec@ 00000001802276e0     FreeType:ftbase.obj
 0003:00014748       ??_C@_0CC@FHPGBHIE@FT_Outline_Decompose?3?5Outline?5?$CFd@ 0000000180227748     FreeType:ftbase.obj
 0003:00014770       ??_C@_0BI@GMIFLDHO@?5?5move?5to?5?$CI?$CF?42f?0?5?$CF?42f?$CJ?6?$AA@ 0000000180227770     FreeType:ftbase.obj
 0003:00014790       ??_C@_0BI@PAINKPOP@?5?5line?5to?5?$CI?$CF?42f?0?5?$CF?42f?$CJ?6?$AA@ 0000000180227790     FreeType:ftbase.obj
 0003:000147b0       ??_C@_0DD@EHHABHHE@?5?5conic?5to?5?$CI?$CF?42f?0?5?$CF?42f?$CJ?5with?5con@ 00000001802277b0     FreeType:ftbase.obj
 0003:000147f0       ??_C@_0EF@NIEBKFCN@?5?5cubic?5to?5?$CI?$CF?42f?0?5?$CF?42f?$CJ?5with?5con@ 00000001802277f0     FreeType:ftbase.obj
 0003:00014848       ??_C@_0BM@HMGKFOOF@FT_Outline_Decompose?3?5Done?6?$AA@ 0000000180227848     FreeType:ftbase.obj
 0003:00014870       ??_C@_0CA@HIGGMNGK@FT_Outline_Decompose?3?5Error?5?$CFd?6?$AA@ 0000000180227870     FreeType:ftbase.obj
 0003:000148a0       ??_C@_0FC@HMKEJEC@d?3?2dev?2visual?5studio?52015?2projec@ 00000001802278a0     FreeType:ftbase.obj
 0003:00014908       ??_C@_0BJ@PBBBNBMA@Resource?5tags?3?5?$CFc?$CFc?$CFc?$CFc?6?$AA@ 0000000180227908     FreeType:ftbase.obj
 0003:00014928       ??_C@_0CO@ECAKLIMF@?5?5?5?5?5?5?5?5?5?5?5?5?5?3?5subcount?$DN?$CFd?0?5subo@ 0000000180227928     FreeType:ftbase.obj
 0003:00014960       ??_C@_0DG@ENBMGPPL@?5?5?5?5?5?5?5?5?5?5?5?5?5?$FL?$CFd?$FN?3?5resource_id?$DN0@ 0000000180227960     FreeType:ftbase.obj
 0003:000149a0       ??_C@_0DA@PMFLJPJF@?5?5?5?5?5?5?5?5?5?5?5?5?5?9?9?5sort?5resources?5b@ 00000001802279a0     FreeType:ftbase.obj
 0003:000149dc       ??_C@_02PEOAMJM@?4_?$AA@   00000001802279dc     FreeType:ftbase.obj
 0003:000149e0       ??_C@_05FLPKNBDI@?1rsrc?$AA@ 00000001802279e0     FreeType:ftbase.obj
 0003:000149e8       ??_C@_0BC@OBHLCHMP@?1?4?4namedfork?1rsrc?$AA@ 00000001802279e8     FreeType:ftbase.obj
 0003:00014a00       ??_C@_0O@FDMCFKOC@resource?4frk?1?$AA@ 0000000180227a00     FreeType:ftbase.obj
 0003:00014a10       ??_C@_0L@FGJFJHGF@?4resource?1?$AA@ 0000000180227a10     FreeType:ftbase.obj
 0003:00014a20       ??_C@_01FGNFDNOH@?$CF?$AA@ 0000000180227a20     FreeType:ftbase.obj
 0003:00014a28       ??_C@_0O@KCDCBAF@?4AppleDouble?1?$AA@ 0000000180227a28     FreeType:ftbase.obj
 0003:00014a38       ??_C@_0DI@JDEEOCCA@FT_Stream_Seek?3?5invalid?5i?1o?$DL?5pos@ 0000000180227a38     FreeType:ftbase.obj
 0003:00014a80       ??_C@_0FD@FMGJMOEI@d?3?2dev?2visual?5studio?52015?2projec@ 0000000180227a80     FreeType:ftbase.obj
 0003:00014ae8       ??_C@_0DK@PCCEOJMP@FT_Stream_ReadAt?3?5invalid?5i?1o?$DL?5p@ 0000000180227ae8     FreeType:ftbase.obj
 0003:00014b30       ??_C@_0DN@KPBHPHNM@FT_Stream_ReadAt?3?5invalid?5read?$DL?5@ 0000000180227b30     FreeType:ftbase.obj
 0003:00014b80       ??_C@_0EG@GDLBILGJ@FT_Stream_EnterFrame?3?5frame?5size@ 0000000180227b80     FreeType:ftbase.obj
 0003:00014be0       ??_C@_0EB@PPLLFEKJ@FT_Stream_EnterFrame?3?5invalid?5re@ 0000000180227be0     FreeType:ftbase.obj
 0003:00014c30       ??_C@_0EL@CLEGLINF@FT_Stream_EnterFrame?3?5invalid?5i?1@ 0000000180227c30     FreeType:ftbase.obj
 0003:00014c90       ??_C@_0DM@FACLPPPE@FT_Stream_ReadChar?3?5invalid?5i?1o?$DL@ 0000000180227c90     FreeType:ftbase.obj
 0003:00014cd8       ??_C@_0DO@MOMJLNNP@FT_Stream_ReadUShort?3?5invalid?5i?1@ 0000000180227cd8     FreeType:ftbase.obj
 0003:00014d30       ??_C@_0EA@CJCFGHBO@FT_Stream_ReadUShortLE?3?5invalid?5@ 0000000180227d30     FreeType:ftbase.obj
 0003:00014d80       ??_C@_0DP@ECOCMLKO@FT_Stream_ReadUOffset?3?5invalid?5i@ 0000000180227d80     FreeType:ftbase.obj
 0003:00014dd0       ??_C@_0DN@NOIDKAGM@FT_Stream_ReadULong?3?5invalid?5i?1o@ 0000000180227dd0     FreeType:ftbase.obj
 0003:00014e20       ??_C@_0DP@IFMLOGPG@FT_Stream_ReadULongLE?3?5invalid?5i@ 0000000180227e20     FreeType:ftbase.obj
 0003:00014e70       ??_C@_0FB@PEIPFNJH@d?3?2dev?2visual?5studio?52015?2projec@ 0000000180227e70     FreeType:ftbase.obj
 0003:00014ed8       __real@4050000000000000    0000000180227ed8     FreeType:ftbase.obj
 0003:00014ee8       __real@40f0000000000000    0000000180227ee8     FreeType:ftbase.obj
 0003:00014f00       autofit_module_class       0000000180227f00     FreeType:autofit.obj
 0003:00014f38       af_writing_system_classes  0000000180227f38     FreeType:autofit.obj
 0003:00014f60       af_arab_script_class       0000000180227f60     FreeType:autofit.obj
 0003:00014f88       af_armn_script_class       0000000180227f88     FreeType:autofit.obj
 0003:00014fb0       af_beng_script_class       0000000180227fb0     FreeType:autofit.obj
 0003:00014fd8       af_cher_script_class       0000000180227fd8     FreeType:autofit.obj
 0003:00015000       af_cyrl_script_class       0000000180228000     FreeType:autofit.obj
 0003:00015028       af_deva_script_class       0000000180228028     FreeType:autofit.obj
 0003:00015050       af_ethi_script_class       0000000180228050     FreeType:autofit.obj
 0003:00015078       af_geor_script_class       0000000180228078     FreeType:autofit.obj
 0003:000150a0       af_geok_script_class       00000001802280a0     FreeType:autofit.obj
 0003:000150c8       af_grek_script_class       00000001802280c8     FreeType:autofit.obj
 0003:000150f0       af_gujr_script_class       00000001802280f0     FreeType:autofit.obj
 0003:00015118       af_guru_script_class       0000000180228118     FreeType:autofit.obj
 0003:00015140       af_hebr_script_class       0000000180228140     FreeType:autofit.obj
 0003:00015168       af_knda_script_class       0000000180228168     FreeType:autofit.obj
 0003:00015190       af_khmr_script_class       0000000180228190     FreeType:autofit.obj
 0003:000151b8       af_khms_script_class       00000001802281b8     FreeType:autofit.obj
 0003:000151e0       af_lao_script_class        00000001802281e0     FreeType:autofit.obj
 0003:00015208       af_latn_script_class       0000000180228208     FreeType:autofit.obj
 0003:00015230       af_latb_script_class       0000000180228230     FreeType:autofit.obj
 0003:00015258       af_latp_script_class       0000000180228258     FreeType:autofit.obj
 0003:00015280       af_mlym_script_class       0000000180228280     FreeType:autofit.obj
 0003:000152a8       af_mymr_script_class       00000001802282a8     FreeType:autofit.obj
 0003:000152d0       af_none_script_class       00000001802282d0     FreeType:autofit.obj
 0003:000152f8       af_sinh_script_class       00000001802282f8     FreeType:autofit.obj
 0003:00015320       af_taml_script_class       0000000180228320     FreeType:autofit.obj
 0003:00015348       af_telu_script_class       0000000180228348     FreeType:autofit.obj
 0003:00015370       af_thai_script_class       0000000180228370     FreeType:autofit.obj
 0003:00015398       af_limb_script_class       0000000180228398     FreeType:autofit.obj
 0003:000153c0       af_orya_script_class       00000001802283c0     FreeType:autofit.obj
 0003:000153e8       af_sund_script_class       00000001802283e8     FreeType:autofit.obj
 0003:00015410       af_sylo_script_class       0000000180228410     FreeType:autofit.obj
 0003:00015438       af_tibt_script_class       0000000180228438     FreeType:autofit.obj
 0003:00015460       af_hani_script_class       0000000180228460     FreeType:autofit.obj
 0003:00015488       af_arab_dflt_style_class   0000000180228488     FreeType:autofit.obj
 0003:000154a0       af_script_classes          00000001802284a0     FreeType:autofit.obj
 0003:000155b0       af_armn_dflt_style_class   00000001802285b0     FreeType:autofit.obj
 0003:000155c8       af_beng_dflt_style_class   00000001802285c8     FreeType:autofit.obj
 0003:000155e0       af_cher_dflt_style_class   00000001802285e0     FreeType:autofit.obj
 0003:000155f8       af_cyrl_c2cp_style_class   00000001802285f8     FreeType:autofit.obj
 0003:00015610       af_cyrl_c2sc_style_class   0000000180228610     FreeType:autofit.obj
 0003:00015628       af_cyrl_ordn_style_class   0000000180228628     FreeType:autofit.obj
 0003:00015640       af_cyrl_pcap_style_class   0000000180228640     FreeType:autofit.obj
 0003:00015658       af_cyrl_sinf_style_class   0000000180228658     FreeType:autofit.obj
 0003:00015670       af_cyrl_smcp_style_class   0000000180228670     FreeType:autofit.obj
 0003:00015688       af_cyrl_subs_style_class   0000000180228688     FreeType:autofit.obj
 0003:000156a0       af_cyrl_sups_style_class   00000001802286a0     FreeType:autofit.obj
 0003:000156b8       af_cyrl_titl_style_class   00000001802286b8     FreeType:autofit.obj
 0003:000156d0       af_cyrl_dflt_style_class   00000001802286d0     FreeType:autofit.obj
 0003:000156e8       af_deva_dflt_style_class   00000001802286e8     FreeType:autofit.obj
 0003:00015700       af_ethi_dflt_style_class   0000000180228700     FreeType:autofit.obj
 0003:00015718       af_geor_dflt_style_class   0000000180228718     FreeType:autofit.obj
 0003:00015730       af_geok_dflt_style_class   0000000180228730     FreeType:autofit.obj
 0003:00015748       af_grek_c2cp_style_class   0000000180228748     FreeType:autofit.obj
 0003:00015760       af_grek_c2sc_style_class   0000000180228760     FreeType:autofit.obj
 0003:00015778       af_grek_ordn_style_class   0000000180228778     FreeType:autofit.obj
 0003:00015790       af_grek_pcap_style_class   0000000180228790     FreeType:autofit.obj
 0003:000157a8       af_grek_sinf_style_class   00000001802287a8     FreeType:autofit.obj
 0003:000157c0       af_grek_smcp_style_class   00000001802287c0     FreeType:autofit.obj
 0003:000157d8       af_grek_subs_style_class   00000001802287d8     FreeType:autofit.obj
 0003:000157f0       af_grek_sups_style_class   00000001802287f0     FreeType:autofit.obj
 0003:00015808       af_grek_titl_style_class   0000000180228808     FreeType:autofit.obj
 0003:00015820       af_grek_dflt_style_class   0000000180228820     FreeType:autofit.obj
 0003:00015838       af_gujr_dflt_style_class   0000000180228838     FreeType:autofit.obj
 0003:00015850       af_guru_dflt_style_class   0000000180228850     FreeType:autofit.obj
 0003:00015868       af_hebr_dflt_style_class   0000000180228868     FreeType:autofit.obj
 0003:00015880       af_knda_dflt_style_class   0000000180228880     FreeType:autofit.obj
 0003:00015898       af_khmr_dflt_style_class   0000000180228898     FreeType:autofit.obj
 0003:000158b0       af_khms_dflt_style_class   00000001802288b0     FreeType:autofit.obj
 0003:000158c8       af_lao_dflt_style_class    00000001802288c8     FreeType:autofit.obj
 0003:000158e0       af_latn_c2cp_style_class   00000001802288e0     FreeType:autofit.obj
 0003:000158f8       af_latn_c2sc_style_class   00000001802288f8     FreeType:autofit.obj
 0003:00015910       af_latn_ordn_style_class   0000000180228910     FreeType:autofit.obj
 0003:00015928       af_latn_pcap_style_class   0000000180228928     FreeType:autofit.obj
 0003:00015940       af_latn_sinf_style_class   0000000180228940     FreeType:autofit.obj
 0003:00015958       af_latn_smcp_style_class   0000000180228958     FreeType:autofit.obj
 0003:00015970       af_latn_subs_style_class   0000000180228970     FreeType:autofit.obj
 0003:00015988       af_latn_sups_style_class   0000000180228988     FreeType:autofit.obj
 0003:000159a0       af_latn_titl_style_class   00000001802289a0     FreeType:autofit.obj
 0003:000159b8       af_latn_dflt_style_class   00000001802289b8     FreeType:autofit.obj
 0003:000159d0       af_latb_dflt_style_class   00000001802289d0     FreeType:autofit.obj
 0003:000159e8       af_latp_dflt_style_class   00000001802289e8     FreeType:autofit.obj
 0003:00015a00       af_mlym_dflt_style_class   0000000180228a00     FreeType:autofit.obj
 0003:00015a18       af_mymr_dflt_style_class   0000000180228a18     FreeType:autofit.obj
 0003:00015a30       af_none_dflt_style_class   0000000180228a30     FreeType:autofit.obj
 0003:00015a48       af_sinh_dflt_style_class   0000000180228a48     FreeType:autofit.obj
 0003:00015a60       af_taml_dflt_style_class   0000000180228a60     FreeType:autofit.obj
 0003:00015a78       af_telu_dflt_style_class   0000000180228a78     FreeType:autofit.obj
 0003:00015a90       af_thai_dflt_style_class   0000000180228a90     FreeType:autofit.obj
 0003:00015aa8       af_limb_dflt_style_class   0000000180228aa8     FreeType:autofit.obj
 0003:00015ac0       af_orya_dflt_style_class   0000000180228ac0     FreeType:autofit.obj
 0003:00015ad8       af_sund_dflt_style_class   0000000180228ad8     FreeType:autofit.obj
 0003:00015af0       af_sylo_dflt_style_class   0000000180228af0     FreeType:autofit.obj
 0003:00015b08       af_tibt_dflt_style_class   0000000180228b08     FreeType:autofit.obj
 0003:00015b20       af_hani_dflt_style_class   0000000180228b20     FreeType:autofit.obj
 0003:00015b38       af_arab_uniranges          0000000180228b38     FreeType:autofit.obj
 0003:00015b70       af_style_classes           0000000180228b70     FreeType:autofit.obj
 0003:00015d58       af_armn_uniranges          0000000180228d58     FreeType:autofit.obj
 0003:00015d70       af_beng_uniranges          0000000180228d70     FreeType:autofit.obj
 0003:00015d80       af_cher_uniranges          0000000180228d80     FreeType:autofit.obj
 0003:00015d98       af_cyrl_uniranges          0000000180228d98     FreeType:autofit.obj
 0003:00015dc8       af_deva_uniranges          0000000180228dc8     FreeType:autofit.obj
 0003:00015e00       af_ethi_uniranges          0000000180228e00     FreeType:autofit.obj
 0003:00015e28       af_geor_uniranges          0000000180228e28     FreeType:autofit.obj
 0003:00015e38       af_geok_uniranges          0000000180228e38     FreeType:autofit.obj
 0003:00015e50       af_grek_uniranges          0000000180228e50     FreeType:autofit.obj
 0003:00015e68       af_gujr_uniranges          0000000180228e68     FreeType:autofit.obj
 0003:00015e78       af_guru_uniranges          0000000180228e78     FreeType:autofit.obj
 0003:00015e88       af_hebr_uniranges          0000000180228e88     FreeType:autofit.obj
 0003:00015ea0       af_knda_uniranges          0000000180228ea0     FreeType:autofit.obj
 0003:00015eb0       af_khmr_uniranges          0000000180228eb0     FreeType:autofit.obj
 0003:00015ec0       af_khms_uniranges          0000000180228ec0     FreeType:autofit.obj
 0003:00015ed0       af_lao_uniranges           0000000180228ed0     FreeType:autofit.obj
 0003:00015ee0       af_latn_uniranges          0000000180228ee0     FreeType:autofit.obj
 0003:00015fe8       af_latb_uniranges          0000000180228fe8     FreeType:autofit.obj
 0003:00016008       af_none_uniranges          0000000180229008     FreeType:autofit.obj
 0003:00016010       af_latp_uniranges          0000000180229010     FreeType:autofit.obj
 0003:00016080       af_mlym_uniranges          0000000180229080     FreeType:autofit.obj
 0003:00016090       af_mymr_uniranges          0000000180229090     FreeType:autofit.obj
 0003:000160b0       af_sinh_uniranges          00000001802290b0     FreeType:autofit.obj
 0003:000160c0       af_taml_uniranges          00000001802290c0     FreeType:autofit.obj
 0003:000160d0       af_telu_uniranges          00000001802290d0     FreeType:autofit.obj
 0003:000160e0       af_thai_uniranges          00000001802290e0     FreeType:autofit.obj
 0003:000160f0       af_limb_uniranges          00000001802290f0     FreeType:autofit.obj
 0003:00016100       af_orya_uniranges          0000000180229100     FreeType:autofit.obj
 0003:00016110       af_sund_uniranges          0000000180229110     FreeType:autofit.obj
 0003:00016128       af_sylo_uniranges          0000000180229128     FreeType:autofit.obj
 0003:00016138       af_tibt_uniranges          0000000180229138     FreeType:autofit.obj
 0003:00016148       af_cher_nonbase_uniranges  0000000180229148     FreeType:autofit.obj
 0003:00016150       af_hani_uniranges          0000000180229150     FreeType:autofit.obj
 0003:00016248       af_cyrl_nonbase_uniranges  0000000180229248     FreeType:autofit.obj
 0003:00016270       af_arab_nonbase_uniranges  0000000180229270     FreeType:autofit.obj
 0003:00016310       af_armn_nonbase_uniranges  0000000180229310     FreeType:autofit.obj
 0003:00016320       af_beng_nonbase_uniranges  0000000180229320     FreeType:autofit.obj
 0003:00016350       af_deva_nonbase_uniranges  0000000180229350     FreeType:autofit.obj
 0003:00016390       af_ethi_nonbase_uniranges  0000000180229390     FreeType:autofit.obj
 0003:000163a0       af_geor_nonbase_uniranges  00000001802293a0     FreeType:autofit.obj
 0003:000163a8       af_geok_nonbase_uniranges  00000001802293a8     FreeType:autofit.obj
 0003:000163b0       af_grek_nonbase_uniranges  00000001802293b0     FreeType:autofit.obj
 0003:000163f0       af_gujr_nonbase_uniranges  00000001802293f0     FreeType:autofit.obj
 0003:00016420       af_guru_nonbase_uniranges  0000000180229420     FreeType:autofit.obj
 0003:00016450       af_hebr_nonbase_uniranges  0000000180229450     FreeType:autofit.obj
 0003:00016480       af_knda_nonbase_uniranges  0000000180229480     FreeType:autofit.obj
 0003:000164b8       af_khmr_nonbase_uniranges  00000001802294b8     FreeType:autofit.obj
 0003:000164e0       af_khms_nonbase_uniranges  00000001802294e0     FreeType:autofit.obj
 0003:000164e8       af_lao_nonbase_uniranges   00000001802294e8     FreeType:autofit.obj
 0003:00016508       af_latb_nonbase_uniranges  0000000180229508     FreeType:autofit.obj
 0003:00016510       af_latn_nonbase_uniranges  0000000180229510     FreeType:autofit.obj
 0003:00016598       af_latp_nonbase_uniranges  0000000180229598     FreeType:autofit.obj
 0003:000165a0       af_mlym_nonbase_uniranges  00000001802295a0     FreeType:autofit.obj
 0003:000165d0       af_mymr_nonbase_uniranges  00000001802295d0     FreeType:autofit.obj
 0003:00016638       af_none_nonbase_uniranges  0000000180229638     FreeType:autofit.obj
 0003:00016640       af_sinh_nonbase_uniranges  0000000180229640     FreeType:autofit.obj
 0003:00016678       af_taml_nonbase_uniranges  0000000180229678     FreeType:autofit.obj
 0003:00016698       af_telu_nonbase_uniranges  0000000180229698     FreeType:autofit.obj
 0003:000166c0       af_thai_nonbase_uniranges  00000001802296c0     FreeType:autofit.obj
 0003:000166e0       af_limb_nonbase_uniranges  00000001802296e0     FreeType:autofit.obj
 0003:00016700       af_orya_nonbase_uniranges  0000000180229700     FreeType:autofit.obj
 0003:00016738       af_sund_nonbase_uniranges  0000000180229738     FreeType:autofit.obj
 0003:00016750       af_sylo_nonbase_uniranges  0000000180229750     FreeType:autofit.obj
 0003:00016778       af_hani_nonbase_uniranges  0000000180229778     FreeType:autofit.obj
 0003:00016790       af_tibt_nonbase_uniranges  0000000180229790     FreeType:autofit.obj
 0003:000167e0       af_dummy_writing_system_class 00000001802297e0     FreeType:autofit.obj
 0003:00016820       af_autofitter_interface    0000000180229820     FreeType:autofit.obj
 0003:00016940       af_latin_writing_system_class 0000000180229940     FreeType:autofit.obj
 0003:00016980       af_cjk_writing_system_class 0000000180229980     FreeType:autofit.obj
 0003:000169c0       af_indic_writing_system_class 00000001802299c0     FreeType:autofit.obj
 0003:00016a00       af_blue_strings            0000000180229a00     FreeType:autofit.obj
 0003:00017620       af_blue_stringsets         000000018022a620     FreeType:autofit.obj
 0003:00018348       ??_C@_0L@MNEBCNMP@autofitter?$AA@ 000000018022b348     FreeType:autofit.obj
 0003:00018358       ??_C@_08NGKNFCCA@?Y?$IE?5?X?$KN?5?Y?$IA?$AA@ 000000018022b358     FreeType:autofit.obj
 0003:00018364       ??_C@_05EBMEKBIG@?U?$LN?5?U?$IN?$AA@ 000000018022b364     FreeType:autofit.obj
 0003:00018370       ??_C@_07MLCFGLFO@?$OA?$KH?$KG?5?$OA?$KH?$KK?$AA@ 000000018022b370     FreeType:autofit.obj
 0003:00018380       ??_C@_0M@IIEFPKGE@?a?$IO?$KE?5?a?$IP?$IF?5?j?$KO?$JF?$AA@ 000000018022b380     FreeType:autofit.obj
 0003:00018390       ??_C@_05DBINMJJM@?P?$LO?5?P?$JO?$AA@ 000000018022b390     FreeType:autofit.obj
 0003:00018398       ??_C@_0M@ODJHCGEP@?$OA?$KE?$KA?5?$OA?$KE?$LF?5?$OA?$KE?$JP?$AA@ 000000018022b398     FreeType:autofit.obj
 0003:000183a8       ??_C@_03CMFJHIMF@?a?$IL?$JA?$AA@ 000000018022b3a8     FreeType:autofit.obj
 0003:000183b0       ??_C@_0M@KENHMIGI@?a?$ID?$JI?5?a?$ID?$JE?5?a?$ID?$JA?$AA@ 000000018022b3b0     FreeType:autofit.obj
 0003:000183c0       ??_C@_0M@CHIIFMEI@?a?$IC?$LG?5?a?$IC?$LB?5?b?$LE?$JJ?$AA@ 000000018022b3c0     FreeType:autofit.obj
 0003:000183d0       ??_C@_05DKJCDMPM@?N?$LP?5?N?$JP?$AA@ 000000018022b3d0     FreeType:autofit.obj
 0003:000183d8       ??_C@_07CMCIOKJD@?$OA?$KK?$JP?5?$OA?$KL?$KG?$AA@ 000000018022b3d8     FreeType:autofit.obj
 0003:000183e8       ??_C@_0M@HILMFBKG@?$OA?$KI?$KA?5?$OA?$KI?$LA?5?$OA?$KJ?$KG?$AA@ 000000018022b3e8     FreeType:autofit.obj
 0003:000183f8       ??_C@_02EMJHPBAP@?W?$JN?$AA@ 000000018022b3f8     FreeType:autofit.obj
 0003:00018400       ??_C@_07BEADBFJO@?$OA?$LD?$KG?5?$OA?$LC?$KM?$AA@ 000000018022b400     FreeType:autofit.obj
 0003:0001840c       ??_C@_03OIDAEFJK@?a?$JP?$KA?$AA@ 000000018022b40c     FreeType:autofit.obj
 0003:00018410       ??_C@_07KCDGDMBN@?a?$KH?$KB?5?a?$KH?$KK?$AA@ 000000018022b410     FreeType:autofit.obj
 0003:0001841c       ??_C@_03LAIOPKDA@?$OA?$LL?$JA?$AA@ 000000018022b41c     FreeType:autofit.obj
 0003:00018420       ??_C@_05FCCCPEKP@o?5O?50?$AA@ 000000018022b420     FreeType:autofit.obj
 0003:00018428       ??_C@_07HAIKLPAL@?b?$IC?$JC?5?b?$IC?$IA?$AA@ 000000018022b428     FreeType:autofit.obj
 0003:00018438       ??_C@_0M@HBKEJKFL@?a?$LF?$JC?5?a?$LE?$LM?5?b?$IB?$LA?$AA@ 000000018022b438     FreeType:autofit.obj
 0003:00018448       ??_C@_07PMBMNIKD@?$OA?$LE?$KA?5?$OA?$LE?$LB?$AA@ 000000018022b448     FreeType:autofit.obj
 0003:00018458       ??_C@_0M@JDJALDKB@?a?$IA?$JN?5?a?$IA?$IE?5?a?$IA?$IC?$AA@ 000000018022b458     FreeType:autofit.obj
 0003:00018468       ??_C@_03CIFBMJFH@?$OA?$LG?$KH?$AA@ 000000018022b468     FreeType:autofit.obj
 0003:0001846c       ??_C@_03CCLNGAOJ@?$OA?$KP?$KG?$AA@ 000000018022b46c     FreeType:autofit.obj
 0003:00018470       ??_C@_07GCCOGDCF@?$OA?$LB?$KG?5?$OA?$LB?$KH?$AA@ 000000018022b470     FreeType:autofit.obj
 0003:00018480       ??_C@_0M@PFDFPHNJ@?$OA?$LI?$LC?5?$OA?$LJ?$IF?5?$OA?$LJ?$JA?$AA@ 000000018022b480     FreeType:autofit.obj
 0003:00018490       ??_C@_01FMEDJKGI@o?$AA@    000000018022b490     FreeType:autofit.obj
 0003:00018498       ??_C@_07PNKDJIHG@?g?$JE?$LA?5?e?$JL?$JH?$AA@ 000000018022b498     FreeType:autofit.obj
 0003:000184a8       ??_C@_09HJNEKDLL@arab_dflt?$AA@ 000000018022b4a8     FreeType:autofit.obj
 0003:000184b8       ??_C@_09OJNLNMIA@armn_dflt?$AA@ 000000018022b4b8     FreeType:autofit.obj
 0003:000184c8       ??_C@_09NBFKAKAL@beng_dflt?$AA@ 000000018022b4c8     FreeType:autofit.obj
 0003:000184d8       ??_C@_09KHFLCJFN@cher_dflt?$AA@ 000000018022b4d8     FreeType:autofit.obj
 0003:000184e8       ??_C@_09MEAAGGBC@cyrl_c2cp?$AA@ 000000018022b4e8     FreeType:autofit.obj
 0003:000184f8       ??_C@_09LJMJIEPA@cyrl_c2sc?$AA@ 000000018022b4f8     FreeType:autofit.obj
 0003:00018508       ??_C@_09ELOKPKHE@cyrl_ordn?$AA@ 000000018022b508     FreeType:autofit.obj
 0003:00018518       ??_C@_09JDHFDHOJ@cyrl_pcap?$AA@ 000000018022b518     FreeType:autofit.obj
 0003:00018528       ??_C@_09KMKMFPLH@cyrl_sinf?$AA@ 000000018022b528     FreeType:autofit.obj
 0003:00018538       ??_C@_09DHIOOOGE@cyrl_smcp?$AA@ 000000018022b538     FreeType:autofit.obj
 0003:00018548       ??_C@_09IIMMKIOA@cyrl_subs?$AA@ 000000018022b548     FreeType:autofit.obj
 0003:00018558       ??_C@_09JHGONPPO@cyrl_sups?$AA@ 000000018022b558     FreeType:autofit.obj
 0003:00018568       ??_C@_09PFNCENIL@cyrl_titl?$AA@ 000000018022b568     FreeType:autofit.obj
 0003:00018578       ??_C@_09FNHPKAMO@cyrl_dflt?$AA@ 000000018022b578     FreeType:autofit.obj
 0003:00018588       ??_C@_09BAMKGFOI@deva_dflt?$AA@ 000000018022b588     FreeType:autofit.obj
 0003:00018598       ??_C@_09BOGNDFJK@ethi_dflt?$AA@ 000000018022b598     FreeType:autofit.obj
 0003:000185a8       ??_C@_09MODPHCLI@geor_dflt?$AA@ 000000018022b5a8     FreeType:autofit.obj
 0003:000185b8       ??_C@_09DMHJKLKF@geok_dflt?$AA@ 000000018022b5b8     FreeType:autofit.obj
 0003:000185c8       ??_C@_09PMGHFOAJ@grek_c2cp?$AA@ 000000018022b5c8     FreeType:autofit.obj
 0003:000185d8       ??_C@_09IBKOLMOL@grek_c2sc?$AA@ 000000018022b5d8     FreeType:autofit.obj
 0003:000185e8       ??_C@_09HDINMCGP@grek_ordn?$AA@ 000000018022b5e8     FreeType:autofit.obj
 0003:000185f8       ??_C@_09KLBCAPPC@grek_pcap?$AA@ 000000018022b5f8     FreeType:autofit.obj
 0003:00018608       ??_C@_09JEMLGHKM@grek_sinf?$AA@ 000000018022b608     FreeType:autofit.obj
 0003:00018618       ??_C@_09POJNGHP@grek_smcp?$AA@ 000000018022b618     FreeType:autofit.obj
 0003:00018628       ??_C@_09LAKLJAPL@grek_subs?$AA@ 000000018022b628     FreeType:autofit.obj
 0003:00018638       ??_C@_09KPAJOHOF@grek_sups?$AA@ 000000018022b638     FreeType:autofit.obj
 0003:00018648       ??_C@_09MNLFHFJA@grek_titl?$AA@ 000000018022b648     FreeType:autofit.obj
 0003:00018658       ??_C@_09GFBIJINF@grek_dflt?$AA@ 000000018022b658     FreeType:autofit.obj
 0003:00018668       ??_C@_09CKBPDOKN@gujr_dflt?$AA@ 000000018022b668     FreeType:autofit.obj
 0003:00018678       ??_C@_09EAOGCKLN@guru_dflt?$AA@ 000000018022b678     FreeType:autofit.obj
 0003:00018688       ??_C@_09KEDBDMOE@hebr_dflt?$AA@ 000000018022b688     FreeType:autofit.obj
 0003:00018698       ??_C@_09FNAKJGOO@knda_dflt?$AA@ 000000018022b698     FreeType:autofit.obj
 0003:000186a8       ??_C@_09GHGJHCBM@khmr_dflt?$AA@ 000000018022b6a8     FreeType:autofit.obj
 0003:000186b8       ??_C@_09MBBOHJKI@khms_dflt?$AA@ 000000018022b6b8     FreeType:autofit.obj
 0003:000186c8       ??_C@_08EHKHEIAO@lao_dflt?$AA@ 000000018022b6c8     FreeType:autofit.obj
 0003:000186d8       ??_C@_09HDODMFFI@latn_c2cp?$AA@ 000000018022b6d8     FreeType:autofit.obj
 0003:000186e8       ??_C@_09OCKCHLK@latn_c2sc?$AA@ 000000018022b6e8     FreeType:autofit.obj
 0003:000186f8       ??_C@_09PMAJFJDO@latn_ordn?$AA@ 000000018022b6f8     FreeType:autofit.obj
 0003:00018708       ??_C@_09CEJGJEKD@latn_pcap?$AA@ 000000018022b708     FreeType:autofit.obj
 0003:00018718       ??_C@_09BLEPPMPN@latn_sinf?$AA@ 000000018022b718     FreeType:autofit.obj
 0003:00018728       ??_C@_09IAGNENCO@latn_smcp?$AA@ 000000018022b728     FreeType:autofit.obj
 0003:00018738       ??_C@_09DPCPALKK@latn_subs?$AA@ 000000018022b738     FreeType:autofit.obj
 0003:00018748       ??_C@_09CAINHMLE@latn_sups?$AA@ 000000018022b748     FreeType:autofit.obj
 0003:00018758       ??_C@_09ECDBOOMB@latn_titl?$AA@ 000000018022b758     FreeType:autofit.obj
 0003:00018768       ??_C@_09OKJMADIE@latn_dflt?$AA@ 000000018022b768     FreeType:autofit.obj
 0003:00018778       ??_C@_09CNDMGJPA@latb_dflt?$AA@ 000000018022b778     FreeType:autofit.obj
 0003:00018788       ??_C@_09NNHNOEBH@latp_dflt?$AA@ 000000018022b788     FreeType:autofit.obj
 0003:00018798       ??_C@_09FOPMIAKB@mlym_dflt?$AA@ 000000018022b798     FreeType:autofit.obj
 0003:000187a8       ??_C@_09NBMMFEGJ@mymr_dflt?$AA@ 000000018022b7a8     FreeType:autofit.obj
 0003:000187b8       ??_C@_09MJNHHBDC@none_dflt?$AA@ 000000018022b7b8     FreeType:autofit.obj
 0003:000187c8       ??_C@_09JEKGDCA@sinh_dflt?$AA@ 000000018022b7c8     FreeType:autofit.obj
 0003:000187d8       ??_C@_09CKIOPJLB@taml_dflt?$AA@ 000000018022b7d8     FreeType:autofit.obj
 0003:000187e8       ??_C@_09EJIOHBDO@telu_dflt?$AA@ 000000018022b7e8     FreeType:autofit.obj
 0003:000187f8       ??_C@_09IDLKHFAC@thai_dflt?$AA@ 000000018022b7f8     FreeType:autofit.obj
 0003:00018808       ??_C@_09PFBAOBOI@limb_dflt?$AA@ 000000018022b808     FreeType:autofit.obj
 0003:00018818       ??_C@_09PJKLKDAL@orya_dflt?$AA@ 000000018022b818     FreeType:autofit.obj
 0003:00018828       ??_C@_09IEBOLIDB@sund_dflt?$AA@ 000000018022b828     FreeType:autofit.obj
 0003:00018838       ??_C@_09CCAIBIKC@sylo_dflt?$AA@ 000000018022b838     FreeType:autofit.obj
 0003:00018848       ??_C@_09BMEHJLKM@tibt_dflt?$AA@ 000000018022b848     FreeType:autofit.obj
 0003:00018858       ??_C@_09MLKLLAJD@hani_dflt?$AA@ 000000018022b858     FreeType:autofit.obj
 0003:0001a008       ??_C@_0CB@MKODGJBC@?6style?5coverage?6?$DN?$DN?$DN?$DN?$DN?$DN?$DN?$DN?$DN?$DN?$DN?$DN?$DN?$DN?6?6@ 000000018022d008     FreeType:autofit.obj
 0003:0001a030       ??_C@_04JKGFCPCI@?$CFs?3?6?$AA@ 000000018022d030     FreeType:autofit.obj
 0003:0001a038       ??_C@_03EBJOKFHF@?5?$CFd?$AA@ 000000018022d038     FreeType:autofit.obj
 0003:0001a040       ??_C@_09DOOILONG@?5?5?$CInone?$CJ?6?$AA@ 000000018022d040     FreeType:autofit.obj
 0003:0001a050       ??_C@_0FG@GFKPPFH@d?3?2dev?2visual?5studio?52015?2projec@ 000000018022d050     FreeType:autofit.obj
 0003:0001a0c0       ??_C@_0FF@FLMMADNJ@d?3?2dev?2visual?5studio?52015?2projec@ 000000018022d0c0     FreeType:autofit.obj
 0003:0001a130       ??_C@_0GI@JLDDKHOO@?6latin?5standard?5widths?5computati@ 000000018022d130     FreeType:autofit.obj
 0003:0001a1b0       ??_C@_0CO@KAGGMBBI@standard?5character?3?5U?$CL?$CF04lX?5?$CIgly@ 000000018022d1b0     FreeType:autofit.obj
 0003:0001a1e8       ??_C@_0L@LMMKHPOB@horizontal?$AA@ 000000018022d1e8     FreeType:autofit.obj
 0003:0001a1f8       ??_C@_08NEOMLJGJ@vertical?$AA@ 000000018022d1f8     FreeType:autofit.obj
 0003:0001a208       ??_C@_0M@JLNCCLMF@?$CFs?5widths?3?6?$AA@ 000000018022d208     FreeType:autofit.obj
 0003:0001a218       ??_C@_0BA@KFDNFODA@?5?5?$CFd?5?$CIstandard?$CJ?$AA@ 000000018022d218     FreeType:autofit.obj
 0003:0001a230       ??_C@_0DM@ECBDEFJP@latin?5blue?5zones?5computation?6?$DN?$DN?$DN@ 000000018022d230     FreeType:autofit.obj
 0003:0001a278       ??_C@_0N@DFFBOGBC@blue?5zone?5?$CFd?$AA@ 000000018022d278     FreeType:autofit.obj
 0003:0001a288       ??_C@_02GFKOMOKH@?5?$CI?$AA@ 000000018022d288     FreeType:autofit.obj
 0003:0001a28c       ??_C@_03FGFCOCMD@top?$AA@  000000018022d28c     FreeType:autofit.obj
 0003:0001a290       ??_C@_07KEGAKBM@sub?5top?$AA@ 000000018022d290     FreeType:autofit.obj
 0003:0001a29c       ??_C@_02KEGNLNML@?0?5?$AA@ 000000018022d29c     FreeType:autofit.obj
 0003:0001a2a0       ??_C@_07JAOEMGIL@neutral?$AA@ 000000018022d2a0     FreeType:autofit.obj
 0003:0001a2b0       ??_C@_09MKGOGLFA@small?5top?$AA@ 000000018022d2b0     FreeType:autofit.obj
 0003:0001a2bc       ??_C@_04GOKPGOLB@long?$AA@ 000000018022d2bc     FreeType:autofit.obj
 0003:0001a2c4       ??_C@_02NDKNKOCB@?3?6?$AA@ 000000018022d2c4     FreeType:autofit.obj
 0003:0001a2c8       ??_C@_0BH@PMNFOCP@?5?5U?$CL?$CF04lX?5unavailable?6?$AA@ 000000018022d2c8     FreeType:autofit.obj
 0003:0001a2e8       ??_C@_0CJ@PBEEPCJE@?5?5U?$CL?$CF04lX?5contains?5no?5?$CIusable?$CJ?5o@ 000000018022d2e8     FreeType:autofit.obj
 0003:0001a320       ??_C@_0EP@MBJEOKNH@?5?5component?5?$CFd?5of?5cluster?5starti@ 000000018022d320     FreeType:autofit.obj
 0003:0001a380       ??_C@_0BJ@OHGGDJFI@?5?5U?$CL?$CF04lX?3?5best_y?5?$DN?5?$CF5ld?$AA@ 000000018022d380     FreeType:autofit.obj
 0003:0001a3a0       ??_C@_0DP@MMKPKHEF@?5?5component?5?$CFd?5of?5cluster?5starti@ 000000018022d3a0     FreeType:autofit.obj
 0003:0001a3f0       ??_C@_0BD@KKHELPEN@?5?$CIround?0?5skipped?$CJ?6?$AA@ 000000018022d3f0     FreeType:autofit.obj
 0003:0001a408       ??_C@_05MIMAKCN@round?$AA@ 000000018022d408     FreeType:autofit.obj
 0003:0001a410       ??_C@_04FMBJNPFB@flat?$AA@ 000000018022d410     FreeType:autofit.obj
 0003:0001a418       ??_C@_06PLAJKEKF@?5?$CI?$CFs?$CJ?6?$AA@ 000000018022d418     FreeType:autofit.obj
 0003:0001a420       ??_C@_08LDNFBIDD@?5?5empty?6?$AA@ 000000018022d420     FreeType:autofit.obj
 0003:0001a430       ??_C@_0DJ@NLNICGBP@?5?5?$FLovershoot?5smaller?5than?5refere@ 000000018022d430     FreeType:autofit.obj
 0003:0001a478       ??_C@_0CP@JHJINMEL@?5?5?5?5?9?$DO?5reference?5?$DN?5?$CFld?6?5?5?5?5?5?5?5ov@ 000000018022d478     FreeType:autofit.obj
 0003:0001a4b0       ??_C@_0BE@MOFLNEOP@0?51?52?53?54?55?56?57?58?59?$AA@ 000000018022d4b0     FreeType:autofit.obj
 0003:0001a4d0       ??_C@_0JA@FKLPFLM@af_latin_metrics_scale_dim?3?5x?5he@ 000000018022d4d0     FreeType:autofit.obj
 0003:0001a580       ??_C@_0IA@DGLBDOAD@af_latin_metrics_scale_dim?3?5x?5he@ 000000018022d580     FreeType:autofit.obj
 0003:0001a620       ??_C@_0BI@GCIOLOMB@?$CFs?5widths?5?$CIstyle?5?$GA?$CFs?8?$CJ?6?$AA@ 000000018022d620     FreeType:autofit.obj
 0003:0001a640       ??_C@_0BF@HIOIDCNM@?5?5?$CFd?5scaled?5to?5?$CF?42f?6?$AA@ 000000018022d640     FreeType:autofit.obj
 0003:0001a660       ??_C@_0DE@BHNFLJDF@?$GA?$CFs?8?5style?5is?5extra?5light?5?$CIat?5cu@ 000000018022d660     FreeType:autofit.obj
 0003:0001a6a0       ??_C@_0BJ@LHPOBCEE@blue?5zones?5?$CIstyle?5?$GA?$CFs?8?$CJ?6?$AA@ 000000018022d6a0     FreeType:autofit.obj
 0003:0001a6c0       ??_C@_0M@PPJHDMKA@?5?$CIinactive?$CJ?$AA@ 000000018022d6c0     FreeType:autofit.obj
 0003:0001a6d0       ??_C@_0EJ@BLLMPEBL@?5?5reference?5?$CFd?3?5?$CFd?5scaled?5to?5?$CF?42@ 000000018022d6d0     FreeType:autofit.obj
 0003:0001a730       ??_C@_0EF@LJFILMHI@?5?5LINK?3?5edge?5?$CFd?5?$CIopos?$DN?$CF?42f?$CJ?5link@ 000000018022d730     FreeType:autofit.obj
 0003:0001a788       ??_C@_0CE@DPALLKCK@latin?5?$CFs?5edge?5hinting?5?$CIstyle?5?$GA?$CFs@ 000000018022d788     FreeType:autofit.obj
 0003:0001a7c0       ??_C@_0EP@IPINFLPN@?5?5BLUE_ANCHOR?3?5edge?5?$CFd?5?$CIopos?$DN?$CF?42@ 000000018022d7c0     FreeType:autofit.obj
 0003:0001a820       ??_C@_0DH@JELFDAPE@?5?5BLUE?3?5edge?5?$CFd?5?$CIopos?$DN?$CF?42f?$CJ?5snap@ 000000018022d820     FreeType:autofit.obj
 0003:0001a868       ??_C@_0CA@FCEDGMBE@?5?5ASSERTION?5FAILED?5for?5edge?5?$CFd?6?$AA@ 000000018022d868     FreeType:autofit.obj
 0003:0001a890       ??_C@_0EL@FPOPNBHO@?5?5ANCHOR?3?5edge?5?$CFd?5?$CIopos?$DN?$CF?42f?$CJ?5an@ 000000018022d890     FreeType:autofit.obj
 0003:0001a8f0       ??_C@_0CM@NJDIDKKL@?5?5ADJUST?3?5edge?5?$CFd?5?$CIpos?$DN?$CF?42f?$CJ?5mov@ 000000018022d8f0     FreeType:autofit.obj
 0003:0001a930       ??_C@_0EP@ENJHGNKO@?5?5STEM?3?5edge?5?$CFd?5?$CIopos?$DN?$CF?42f?$CJ?5link@ 000000018022d930     FreeType:autofit.obj
 0003:0001a990       ??_C@_0CL@PILJPGPJ@?5?5BOUND?3?5edge?5?$CFd?5?$CIpos?$DN?$CF?42f?$CJ?5move@ 000000018022d990     FreeType:autofit.obj
 0003:0001a9d0       ??_C@_0EG@IKDPLHHC@?5?5SERIF?3?5edge?5?$CFd?5?$CIopos?$DN?$CF?42f?$CJ?5ser@ 000000018022d9d0     FreeType:autofit.obj
 0003:0001aa28       ??_C@_0DF@JLBLFNAN@?5?5SERIF_ANCHOR?3?5edge?5?$CFd?5?$CIopos?$DN?$CF?4@ 000000018022da28     FreeType:autofit.obj
 0003:0001aa70       ??_C@_0EI@CLPFPFJH@?5?5SERIF_LINK1?3?5edge?5?$CFd?5?$CIopos?$DN?$CF?42@ 000000018022da70     FreeType:autofit.obj
 0003:0001aac8       ??_C@_0DE@BMCAJCJH@?5?5SERIF_LINK2?3?5edge?5?$CFd?5?$CIopos?$DN?$CF?42@ 000000018022dac8     FreeType:autofit.obj
 0003:0001ab10       ??_C@_0GE@IEIDOKLI@?6cjk?5standard?5widths?5computation@ 000000018022db10     FreeType:autofit.obj
 0003:0001ab88       ??_C@_0DI@HPCOIHAL@cjk?5blue?5zones?5computation?6?$DN?$DN?$DN?$DN?$DN@ 000000018022db88     FreeType:autofit.obj
 0003:0001abcc       ??_C@_06PMMPCIPB@bottom?$AA@ 000000018022dbcc     FreeType:autofit.obj
 0003:0001abd4       ??_C@_04GOOOJOPP@left?$AA@ 000000018022dbd4     FreeType:autofit.obj
 0003:0001abdc       ??_C@_05DHJDAOHK@right?$AA@ 000000018022dbdc     FreeType:autofit.obj
 0003:0001abe8       ??_C@_0BE@BAMEOINP@blue?5zone?5?$CFd?5?$CI?$CFs?$CJ?3?6?$AA@ 000000018022dbe8     FreeType:autofit.obj
 0003:0001ac00       ??_C@_0BG@HLNDJNEO@?5?5?$FLovershoot?5values?$FN?6?$AA@ 000000018022dc00     FreeType:autofit.obj
 0003:0001ac20       ??_C@_0BG@GKDOAONC@?5?5?$FLreference?5values?$FN?6?$AA@ 000000018022dc20     FreeType:autofit.obj
 0003:0001ac40       ??_C@_0BM@ODMNDBHG@?5?5U?$CL?$CF04lX?3?5best_pos?5?$DN?5?$CF5ld?6?$AA@ 000000018022dc40     FreeType:autofit.obj
 0003:0001ac68       ??_C@_0DJ@IGFACJOM@?5?5?$FLreference?5smaller?5than?5oversh@ 000000018022dc68     FreeType:autofit.obj
 0003:0001acb0       ??_C@_09PKPCEPOK@delta?3?5?$CFd?$AA@ 000000018022dcb0     FreeType:autofit.obj
 0003:0001acbc       ??_C@_04FIJBGEEN@?1?$CFd?6?$AA@ 000000018022dcbc     FreeType:autofit.obj
 0003:0001acd0       ??_C@_0GE@PCBHONFD@?$DO?$DO?5active?5cjk?5blue?5zone?5?$CFc?$CFd?$FL?$CFld@ 000000018022dcd0     FreeType:autofit.obj
 0003:0001ad50       ??_C@_0EM@BBCIEACE@?5?5CJKLINK?3?5edge?5?$CFd?5?$EA?$CFd?5?$CIopos?$DN?$CF?42@ 000000018022dd50     FreeType:autofit.obj
 0003:0001adb0       ??_C@_0CC@MDKEECOA@cjk?5?$CFs?5edge?5hinting?5?$CIstyle?5?$GA?$CFs?8?$CJ@ 000000018022ddb0     FreeType:autofit.obj
 0003:0001add8       ??_C@_0DO@MIIKFFED@?5?5CJKBLUE?3?5edge?5?$CFd?5?$EA?$CFd?5?$CIopos?$DN?$CF?42@ 000000018022ddd8     FreeType:autofit.obj
 0003:0001ae28       ??_C@_0BO@HGHDMGLP@ASSERTION?5FAILED?5for?5edge?5?$CFd?6?$AA@ 000000018022de28     FreeType:autofit.obj
 0003:0001ae50       ??_C@_0FG@MJKAHIEF@d?3?2dev?2visual?5studio?52015?2projec@ 000000018022de50     FreeType:autofit.obj
 0003:0001aec0       ??_C@_0FG@IELHJPMI@d?3?2dev?2visual?5studio?52015?2projec@ 000000018022dec0     FreeType:autofit.obj
 0003:0001af28       ??_C@_0BA@OKOILHEH@fallback?9script?$AA@ 000000018022df28     FreeType:autofit.obj
 0003:0001af40       ??_C@_0DF@EGJHFMBA@af_property_set?3?5Invalid?5value?5?$CF@ 000000018022df40     FreeType:autofit.obj
 0003:0001af80       ??_C@_0P@PHBNIPOP@default?9script?$AA@ 000000018022df80     FreeType:autofit.obj
 0003:0001af98       ??_C@_0BC@OOHNGIJD@increase?9x?9height?$AA@ 000000018022df98     FreeType:autofit.obj
 0003:0001afb0       ??_C@_07IAGKBAII@warping?$AA@ 000000018022dfb0     FreeType:autofit.obj
 0003:0001afc0       ??_C@_0BF@GIDENNON@darkening?9parameters?$AA@ 000000018022dfc0     FreeType:autofit.obj
 0003:0001afe0       ??_C@_0BC@GFOLLGHN@no?9stem?9darkening?$AA@ 000000018022dfe0     FreeType:autofit.obj
 0003:0001aff8       ??_C@_0CI@BAHKCIED@af_property_set?3?5missing?5propert@ 000000018022dff8     FreeType:autofit.obj
 0003:0001b028       ??_C@_0BE@CELKBFDM@glyph?9to?9script?9map?$AA@ 000000018022e028     FreeType:autofit.obj
 0003:0001b040       ??_C@_0CI@NPCANOH@af_property_get?3?5missing?5propert@ 000000018022e040     FreeType:autofit.obj
 0003:0001b070       ??_C@_0FP@GHPLNPJB@invalid?5indices?3?6?5?5min?$DN?$CFd?5max?$DN?$CFd@ 000000018022e070     FreeType:autofit.obj
 0003:0001b0e8       ??_C@_09KENNHHDP@7?5INS_$9F?$AA@ 000000018022e0e8     FreeType:truetype.obj
 0003:0001b0f8       ??_C@_09IHFKJAKH@7?5INS_$A0?$AA@ 000000018022e0f8     FreeType:truetype.obj
 0003:0001b108       ??_C@_09JOEBKBOG@7?5INS_$A1?$AA@ 000000018022e108     FreeType:truetype.obj
 0003:0001b118       ??_C@_09LFGMPCCF@7?5INS_$A2?$AA@ 000000018022e118     FreeType:truetype.obj
 0003:0001b128       ??_C@_09KMHHMDGE@7?5INS_$A3?$AA@ 000000018022e128     FreeType:truetype.obj
 0003:0001b138       ??_C@_09ODDGFFKD@7?5INS_$A4?$AA@ 000000018022e138     FreeType:truetype.obj
 0003:0001b148       ??_C@_09PKCNGEOC@7?5INS_$A5?$AA@ 000000018022e148     FreeType:truetype.obj
 0003:0001b158       ??_C@_09NBAADHCB@7?5INS_$A6?$AA@ 000000018022e158     FreeType:truetype.obj
 0003:0001b168       ??_C@_09MIBLAGGA@7?5INS_$A7?$AA@ 000000018022e168     FreeType:truetype.obj
 0003:0001b178       ??_C@_09EPIDBKKP@7?5INS_$A8?$AA@ 000000018022e178     FreeType:truetype.obj
 0003:0001b188       ??_C@_09FGJICLOO@7?5INS_$A9?$AA@ 000000018022e188     FreeType:truetype.obj
 0003:0001b198       ??_C@_09LBHONIBA@7?5INS_$AA?$AA@ 000000018022e198     FreeType:truetype.obj
 0003:0001b1a8       ??_C@_09JKFDILND@7?5INS_$AB?$AA@ 000000018022e1a8     FreeType:truetype.obj
 0003:0001b1b8       ??_C@_09IDEILKJC@7?5INS_$AC?$AA@ 000000018022e1b8     FreeType:truetype.obj
 0003:0001b1c8       ??_C@_09MMAJCMFF@7?5INS_$AD?$AA@ 000000018022e1c8     FreeType:truetype.obj
 0003:0001b1d8       ??_C@_09NFBCBNBE@7?5INS_$AE?$AA@ 000000018022e1d8     FreeType:truetype.obj
 0003:0001b1e8       ??_C@_09PODPEONH@7?5INS_$AF?$AA@ 000000018022e1e8     FreeType:truetype.obj
 0003:0001b1f8       ??_C@_0L@PDAIDLJK@8?5PushB?$FL0?$FN?$AA@ 000000018022e1f8     FreeType:truetype.obj
 0003:0001b208       ??_C@_0L@PCMKFBKN@8?5PushB?$FL1?$FN?$AA@ 000000018022e208     FreeType:truetype.obj
 0003:0001b218       ??_C@_0L@PAIMOPPE@8?5PushB?$FL2?$FN?$AA@ 000000018022e218     FreeType:truetype.obj
 0003:0001b228       ??_C@_0L@PBEOIFMD@8?5PushB?$FL3?$FN?$AA@ 000000018022e228     FreeType:truetype.obj
 0003:0001b238       ??_C@_0L@PEABJDEG@8?5PushB?$FL4?$FN?$AA@ 000000018022e238     FreeType:truetype.obj
 0003:0001b248       ??_C@_0L@PFMDPJHB@8?5PushB?$FL5?$FN?$AA@ 000000018022e248     FreeType:truetype.obj
 0003:0001b258       ??_C@_0L@PHIFEHCI@8?5PushB?$FL6?$FN?$AA@ 000000018022e258     FreeType:truetype.obj
 0003:0001b268       ??_C@_0L@PGEHCNBP@8?5PushB?$FL7?$FN?$AA@ 000000018022e268     FreeType:truetype.obj
 0003:0001b278       ??_C@_0L@FLAICDGI@8?5PushW?$FL0?$FN?$AA@ 000000018022e278     FreeType:truetype.obj
 0003:0001b288       ??_C@_0L@FKMKEJFP@8?5PushW?$FL1?$FN?$AA@ 000000018022e288     FreeType:truetype.obj
 0003:0001b298       ??_C@_0L@FIIMPHAG@8?5PushW?$FL2?$FN?$AA@ 000000018022e298     FreeType:truetype.obj
 0003:0001b2a8       ??_C@_0L@FJEOJNDB@8?5PushW?$FL3?$FN?$AA@ 000000018022e2a8     FreeType:truetype.obj
 0003:0001b2b8       ??_C@_0L@FMABILLE@8?5PushW?$FL4?$FN?$AA@ 000000018022e2b8     FreeType:truetype.obj
 0003:0001b2c8       ??_C@_0L@FNMDOBID@8?5PushW?$FL5?$FN?$AA@ 000000018022e2c8     FreeType:truetype.obj
 0003:0001b2d8       ??_C@_0L@FPIFFPNK@8?5PushW?$FL6?$FN?$AA@ 000000018022e2d8     FreeType:truetype.obj
 0003:0001b2e8       ??_C@_0L@FOEHDFON@8?5PushW?$FL7?$FN?$AA@ 000000018022e2e8     FreeType:truetype.obj
 0003:0001b2f8       ??_C@_0L@OHNEPPEG@8?5MDRP?$FL00?$FN?$AA@ 000000018022e2f8     FreeType:truetype.obj
 0003:0001b308       ??_C@_0L@OGBGJFHB@8?5MDRP?$FL01?$FN?$AA@ 000000018022e308     FreeType:truetype.obj
 0003:0001b318       ??_C@_0L@OEFACLCI@8?5MDRP?$FL02?$FN?$AA@ 000000018022e318     FreeType:truetype.obj
 0003:0001b328       ??_C@_0L@OFJCEBBP@8?5MDRP?$FL03?$FN?$AA@ 000000018022e328     FreeType:truetype.obj
 0003:0001b338       ??_C@_0L@OANNFHJK@8?5MDRP?$FL04?$FN?$AA@ 000000018022e338     FreeType:truetype.obj
 0003:0001b348       ??_C@_0L@OBBPDNKN@8?5MDRP?$FL05?$FN?$AA@ 000000018022e348     FreeType:truetype.obj
 0003:0001b358       ??_C@_0L@ODFJIDPE@8?5MDRP?$FL06?$FN?$AA@ 000000018022e358     FreeType:truetype.obj
 0003:0001b368       ??_C@_0L@OCJLOJMD@8?5MDRP?$FL07?$FN?$AA@ 000000018022e368     FreeType:truetype.obj
 0003:0001b378       ??_C@_0L@OJMHKOPO@8?5MDRP?$FL08?$FN?$AA@ 000000018022e378     FreeType:truetype.obj
 0003:0001b388       ??_C@_0L@OIAFMEMJ@8?5MDRP?$FL09?$FN?$AA@ 000000018022e388     FreeType:truetype.obj
 0003:0001b398       ??_C@_0L@FPGIJICD@8?5MDRP?$FL10?$FN?$AA@ 000000018022e398     FreeType:truetype.obj
 0003:0001b3a8       ??_C@_0L@FOKKPCBE@8?5MDRP?$FL11?$FN?$AA@ 000000018022e3a8     FreeType:truetype.obj
 0003:0001b3b8       ??_C@_0L@FMOMEMEN@8?5MDRP?$FL12?$FN?$AA@ 000000018022e3b8     FreeType:truetype.obj
 0003:0001b3c8       ??_C@_0L@FNCOCGHK@8?5MDRP?$FL13?$FN?$AA@ 000000018022e3c8     FreeType:truetype.obj
 0003:0001b3d8       ??_C@_0L@FIGBDAPP@8?5MDRP?$FL14?$FN?$AA@ 000000018022e3d8     FreeType:truetype.obj
 0003:0001b3e8       ??_C@_0L@FJKDFKMI@8?5MDRP?$FL15?$FN?$AA@ 000000018022e3e8     FreeType:truetype.obj
 0003:0001b3f8       ??_C@_0L@FLOFOEJB@8?5MDRP?$FL16?$FN?$AA@ 000000018022e3f8     FreeType:truetype.obj
 0003:0001b408       ??_C@_0L@FKCHIOKG@8?5MDRP?$FL17?$FN?$AA@ 000000018022e408     FreeType:truetype.obj
 0003:0001b418       ??_C@_0L@FBHLMJJL@8?5MDRP?$FL18?$FN?$AA@ 000000018022e418     FreeType:truetype.obj
 0003:0001b428       ??_C@_0L@FALJKDKM@8?5MDRP?$FL19?$FN?$AA@ 000000018022e428     FreeType:truetype.obj
 0003:0001b438       ??_C@_0L@ENNNDHMN@8?5MDRP?$FL20?$FN?$AA@ 000000018022e438     FreeType:truetype.obj
 0003:0001b448       ??_C@_0L@EMBPFNPK@8?5MDRP?$FL21?$FN?$AA@ 000000018022e448     FreeType:truetype.obj
 0003:0001b458       ??_C@_0L@EOFJODKD@8?5MDRP?$FL22?$FN?$AA@ 000000018022e458     FreeType:truetype.obj
 0003:0001b468       ??_C@_0L@EPJLIJJE@8?5MDRP?$FL23?$FN?$AA@ 000000018022e468     FreeType:truetype.obj
 0003:0001b478       ??_C@_0L@EKNEJPBB@8?5MDRP?$FL24?$FN?$AA@ 000000018022e478     FreeType:truetype.obj
 0003:0001b488       ??_C@_0L@ELBGPFCG@8?5MDRP?$FL25?$FN?$AA@ 000000018022e488     FreeType:truetype.obj
 0003:0001b498       ??_C@_0L@EJFAELHP@8?5MDRP?$FL26?$FN?$AA@ 000000018022e498     FreeType:truetype.obj
 0003:0001b4a8       ??_C@_0L@EIJCCBEI@8?5MDRP?$FL27?$FN?$AA@ 000000018022e4a8     FreeType:truetype.obj
 0003:0001b4b8       ??_C@_0L@EDMOGGHF@8?5MDRP?$FL28?$FN?$AA@ 000000018022e4b8     FreeType:truetype.obj
 0003:0001b4c8       ??_C@_0L@ECAMAMEC@8?5MDRP?$FL29?$FN?$AA@ 000000018022e4c8     FreeType:truetype.obj
 0003:0001b4d8       ??_C@_0L@PFGBFAKI@8?5MDRP?$FL30?$FN?$AA@ 000000018022e4d8     FreeType:truetype.obj
 0003:0001b4e8       ??_C@_0L@PEKDDKJP@8?5MDRP?$FL31?$FN?$AA@ 000000018022e4e8     FreeType:truetype.obj
 0003:0001b4f8       ??_C@_0L@HMNBOKJH@8?5MIRP?$FL00?$FN?$AA@ 000000018022e4f8     FreeType:truetype.obj
 0003:0001b508       ??_C@_0L@HNBDIAKA@8?5MIRP?$FL01?$FN?$AA@ 000000018022e508     FreeType:truetype.obj
 0003:0001b518       ??_C@_0L@HPFFDOPJ@8?5MIRP?$FL02?$FN?$AA@ 000000018022e518     FreeType:truetype.obj
 0003:0001b528       ??_C@_0L@HOJHFEMO@8?5MIRP?$FL03?$FN?$AA@ 000000018022e528     FreeType:truetype.obj
 0003:0001b538       ??_C@_0L@HLNIECEL@8?5MIRP?$FL04?$FN?$AA@ 000000018022e538     FreeType:truetype.obj
 0003:0001b548       ??_C@_0L@HKBKCIHM@8?5MIRP?$FL05?$FN?$AA@ 000000018022e548     FreeType:truetype.obj
 0003:0001b558       ??_C@_0L@HIFMJGCF@8?5MIRP?$FL06?$FN?$AA@ 000000018022e558     FreeType:truetype.obj
 0003:0001b568       ??_C@_0L@HJJOPMBC@8?5MIRP?$FL07?$FN?$AA@ 000000018022e568     FreeType:truetype.obj
 0003:0001b578       ??_C@_0L@HCMCLLCP@8?5MIRP?$FL08?$FN?$AA@ 000000018022e578     FreeType:truetype.obj
 0003:0001b588       ??_C@_0L@HDAANBBI@8?5MIRP?$FL09?$FN?$AA@ 000000018022e588     FreeType:truetype.obj
 0003:0001b5a0       tt_default_graphics_state  000000018022e5a0     FreeType:truetype.obj
 0003:0001ba60       tt_driver_class            000000018022ea60     FreeType:truetype.obj
 0003:0001c6f8       ??_C@_0L@MEGNINPC@8?5MIRP?$FL10?$FN?$AA@ 000000018022f6f8     FreeType:truetype.obj
 0003:0001c708       ??_C@_0L@MFKPOHMF@8?5MIRP?$FL11?$FN?$AA@ 000000018022f708     FreeType:truetype.obj
 0003:0001c718       ??_C@_0L@MHOJFJJM@8?5MIRP?$FL12?$FN?$AA@ 000000018022f718     FreeType:truetype.obj
 0003:0001c728       ??_C@_0L@MGCLDDKL@8?5MIRP?$FL13?$FN?$AA@ 000000018022f728     FreeType:truetype.obj
 0003:0001c738       ??_C@_0L@MDGECFCO@8?5MIRP?$FL14?$FN?$AA@ 000000018022f738     FreeType:truetype.obj
 0003:0001c748       ??_C@_0L@MCKGEPBJ@8?5MIRP?$FL15?$FN?$AA@ 000000018022f748     FreeType:truetype.obj
 0003:0001c758       ??_C@_0L@MAOAPBEA@8?5MIRP?$FL16?$FN?$AA@ 000000018022f758     FreeType:truetype.obj
 0003:0001c768       ??_C@_0L@MBCCJLHH@8?5MIRP?$FL17?$FN?$AA@ 000000018022f768     FreeType:truetype.obj
 0003:0001c778       ??_C@_0L@MKHONMEK@8?5MIRP?$FL18?$FN?$AA@ 000000018022f778     FreeType:truetype.obj
 0003:0001c788       ??_C@_0L@MLLMLGHN@8?5MIRP?$FL19?$FN?$AA@ 000000018022f788     FreeType:truetype.obj
 0003:0001c798       ??_C@_0L@NGNICCBM@8?5MIRP?$FL20?$FN?$AA@ 000000018022f798     FreeType:truetype.obj
 0003:0001c7a8       ??_C@_0L@NHBKEICL@8?5MIRP?$FL21?$FN?$AA@ 000000018022f7a8     FreeType:truetype.obj
 0003:0001c7b8       ??_C@_0L@NFFMPGHC@8?5MIRP?$FL22?$FN?$AA@ 000000018022f7b8     FreeType:truetype.obj
 0003:0001c7c8       ??_C@_0L@NEJOJMEF@8?5MIRP?$FL23?$FN?$AA@ 000000018022f7c8     FreeType:truetype.obj
 0003:0001c7d8       ??_C@_0L@NBNBIKMA@8?5MIRP?$FL24?$FN?$AA@ 000000018022f7d8     FreeType:truetype.obj
 0003:0001c7e8       ??_C@_0L@NABDOAPH@8?5MIRP?$FL25?$FN?$AA@ 000000018022f7e8     FreeType:truetype.obj
 0003:0001c7f8       ??_C@_0L@NCFFFOKO@8?5MIRP?$FL26?$FN?$AA@ 000000018022f7f8     FreeType:truetype.obj
 0003:0001c808       ??_C@_0L@NDJHDEJJ@8?5MIRP?$FL27?$FN?$AA@ 000000018022f808     FreeType:truetype.obj
 0003:0001c818       ??_C@_0L@NIMLHDKE@8?5MIRP?$FL28?$FN?$AA@ 000000018022f818     FreeType:truetype.obj
 0003:0001c828       ??_C@_0L@NJAJBJJD@8?5MIRP?$FL29?$FN?$AA@ 000000018022f828     FreeType:truetype.obj
 0003:0001c838       ??_C@_0L@GOGEEFHJ@8?5MIRP?$FL30?$FN?$AA@ 000000018022f838     FreeType:truetype.obj
 0003:0001c848       ??_C@_0L@GPKGCPEO@8?5MIRP?$FL31?$FN?$AA@ 000000018022f848     FreeType:truetype.obj
 0003:0001c858       ??_C@_0M@NJKHAGNP@font?9format?$AA@ 000000018022f858     FreeType:truetype.obj
 0003:0001c868       ??_C@_08KJILHNAM@TrueType?$AA@ 000000018022f868     FreeType:truetype.obj
 0003:0001c878       ??_C@_0O@DHADKGAK@multi?9masters?$AA@ 000000018022f878     FreeType:truetype.obj
 0003:0001c888       ??_C@_07CDLHCBDE@tt?9glyf?$AA@ 000000018022f888     FreeType:truetype.obj
 0003:0001c898       ??_C@_09OCFDHHLM@7?5SVTCA?5y?$AA@ 000000018022f898     FreeType:truetype.obj
 0003:0001c8a8       ??_C@_09PLEIEGPN@7?5SVTCA?5x?$AA@ 000000018022f8a8     FreeType:truetype.obj
 0003:0001c8b8       ??_C@_0L@LFJJFPIB@8?5SPvTCA?5y?$AA@ 000000018022f8b8     FreeType:truetype.obj
 0003:0001c8c8       ??_C@_0L@KMICGOMA@8?5SPvTCA?5x?$AA@ 000000018022f8c8     FreeType:truetype.obj
 0003:0001c8d8       ??_C@_0L@PENGHCN@8?5SFvTCA?5y?$AA@ 000000018022f8d8     FreeType:truetype.obj
 0003:0001c8e8       ??_C@_0L@BGFGFGGM@8?5SFvTCA?5x?$AA@ 000000018022f8e8     FreeType:truetype.obj
 0003:0001c8f8       ??_C@_0L@KMICHLKH@8?5SPvTL?5?$HM?$HM?$AA@ 000000018022f8f8     FreeType:truetype.obj
 0003:0001c908       ??_C@_09GDMAEKCC@7?5SPvTL?5?$CL?$AA@ 000000018022f908     FreeType:truetype.obj
 0003:0001c918       ??_C@_0L@BGFGEDAL@8?5SFvTL?5?$HM?$HM?$AA@ 000000018022f918     FreeType:truetype.obj
 0003:0001c928       ??_C@_09GHMOODNG@7?5SFvTL?5?$CL?$AA@ 000000018022f928     FreeType:truetype.obj
 0003:0001c938       ??_C@_07IBJBPBCE@5?5SPvFS?$AA@ 000000018022f938     FreeType:truetype.obj
 0003:0001c948       ??_C@_07GODBJDAG@5?5SFvFS?$AA@ 000000018022f948     FreeType:truetype.obj
 0003:0001c954       ??_C@_05BOAIJEBP@3?5GPv?$AA@ 000000018022f954     FreeType:truetype.obj
 0003:0001c95c       ??_C@_05GKDELNN@3?5GFv?$AA@ 000000018022f95c     FreeType:truetype.obj
 0003:0001c968       ??_C@_08FBLDFHFO@6?5SFvTPv?$AA@ 000000018022f968     FreeType:truetype.obj
 0003:0001c978       ??_C@_07MPGIKJGK@5?5ISECT?$AA@ 000000018022f978     FreeType:truetype.obj
 0003:0001c984       ??_C@_06JEFOMOIH@4?5SRP0?$AA@ 000000018022f984     FreeType:truetype.obj
 0003:0001c98c       ??_C@_06INEFPPMG@4?5SRP1?$AA@ 000000018022f98c     FreeType:truetype.obj
 0003:0001c994       ??_C@_06KGGIKMAF@4?5SRP2?$AA@ 000000018022f994     FreeType:truetype.obj
 0003:0001c99c       ??_C@_06FBOKOGGI@4?5SZP0?$AA@ 000000018022f99c     FreeType:truetype.obj
 0003:0001c9a4       ??_C@_06EIPBNHCJ@4?5SZP1?$AA@ 000000018022f9a4     FreeType:truetype.obj
 0003:0001c9ac       ??_C@_06GDNMIEOK@4?5SZP2?$AA@ 000000018022f9ac     FreeType:truetype.obj
 0003:0001c9b4       ??_C@_06BPDKNOAM@4?5SZPS?$AA@ 000000018022f9b4     FreeType:truetype.obj
 0003:0001c9c0       ??_C@_07INFOFEMA@5?5SLOOP?$AA@ 000000018022f9c0     FreeType:truetype.obj
 0003:0001c9cc       ??_C@_05LIJLJMNM@3?5RTG?$AA@ 000000018022f9cc     FreeType:truetype.obj
 0003:0001c9d4       ??_C@_06POBOKFBC@4?5RTHG?$AA@ 000000018022f9d4     FreeType:truetype.obj
 0003:0001c9dc       ??_C@_05DIPNDAIF@3?5SMD?$AA@ 000000018022f9dc     FreeType:truetype.obj
 0003:0001c9e4       ??_C@_06JLDGLPOD@4?5ELSE?$AA@ 000000018022f9e4     FreeType:truetype.obj
 0003:0001c9ec       ??_C@_06KGBPHFJI@4?5JMPR?$AA@ 000000018022f9ec     FreeType:truetype.obj
 0003:0001c9f8       ??_C@_08NCEENFFK@6?5SCvTCi?$AA@ 000000018022f9f8     FreeType:truetype.obj
 0003:0001ca08       ??_C@_07FNOPPAAD@5?5SSwCi?$AA@ 000000018022fa08     FreeType:truetype.obj
 0003:0001ca14       ??_C@_05EPKKPPGN@3?5SSW?$AA@ 000000018022fa14     FreeType:truetype.obj
 0003:0001ca1c       ??_C@_05MJKIHKDO@3?5DUP?$AA@ 000000018022fa1c     FreeType:truetype.obj
 0003:0001ca24       ??_C@_05HGCJMFA@3?5POP?$AA@ 000000018022fa24     FreeType:truetype.obj
 0003:0001ca30       ??_C@_07NJJNPJLH@5?5CLEAR?$AA@ 000000018022fa30     FreeType:truetype.obj
 0003:0001ca3c       ??_C@_06NLJJJMFF@4?5SWAP?$AA@ 000000018022fa3c     FreeType:truetype.obj
 0003:0001ca48       ??_C@_07EIPJHJD@5?5DEPTH?$AA@ 000000018022fa48     FreeType:truetype.obj
 0003:0001ca58       ??_C@_08BHJJLFCK@6?5CINDEX?$AA@ 000000018022fa58     FreeType:truetype.obj
 0003:0001ca68       ??_C@_08EHKGMOHH@6?5MINDEX?$AA@ 000000018022fa68     FreeType:truetype.obj
 0003:0001ca78       ??_C@_0L@BLNCDNIL@8?5AlignPTS?$AA@ 000000018022fa78     FreeType:truetype.obj
 0003:0001ca88       ??_C@_09BJDEMMKG@7?5INS_$28?$AA@ 000000018022fa88     FreeType:truetype.obj
 0003:0001ca94       ??_C@_05CAMPCAPD@3?5UTP?$AA@ 000000018022fa94     FreeType:truetype.obj
 0003:0001caa0       ??_C@_0L@CGONKDMD@8?5LOOPCALL?$AA@ 000000018022faa0     FreeType:truetype.obj
 0003:0001cab0       ??_C@_06CAKEMNJK@4?5CALL?$AA@ 000000018022fab0     FreeType:truetype.obj
 0003:0001cab8       ??_C@_06CKKEGBNN@4?5FDEF?$AA@ 000000018022fab8     FreeType:truetype.obj
 0003:0001cac0       ??_C@_06DHLJBFO@4?5ENDF?$AA@ 000000018022fac0     FreeType:truetype.obj
 0003:0001cac8       ??_C@_09NNBCFCBF@7?5MDAP?$FL0?$FN?$AA@ 000000018022fac8     FreeType:truetype.obj
 0003:0001cad8       ??_C@_09NMNADICC@7?5MDAP?$FL1?$FN?$AA@ 000000018022fad8     FreeType:truetype.obj
 0003:0001cae8       ??_C@_08DPBKBIFA@6?5IUP?$FL0?$FN?$AA@ 000000018022fae8     FreeType:truetype.obj
 0003:0001caf8       ??_C@_08DONIHCGH@6?5IUP?$FL1?$FN?$AA@ 000000018022faf8     FreeType:truetype.obj
 0003:0001cb08       ??_C@_08EDPMMKJF@6?5SHP?$FL0?$FN?$AA@ 000000018022fb08     FreeType:truetype.obj
 0003:0001cb18       ??_C@_08ECDOKAKC@6?5SHP?$FL1?$FN?$AA@ 000000018022fb18     FreeType:truetype.obj
 0003:0001cb28       ??_C@_08GELMCHMH@6?5SHC?$FL0?$FN?$AA@ 000000018022fb28     FreeType:truetype.obj
 0003:0001cb38       ??_C@_08GFHOENPA@6?5SHC?$FL1?$FN?$AA@ 000000018022fb38     FreeType:truetype.obj
 0003:0001cb48       ??_C@_08JEMNCDE@6?5SHZ?$FL0?$FN?$AA@ 000000018022fb48     FreeType:truetype.obj
 0003:0001cb58       ??_C@_08IIOLIAD@6?5SHZ?$FL1?$FN?$AA@ 000000018022fb58     FreeType:truetype.obj
 0003:0001cb68       ??_C@_07LMPAEDHD@5?5SHPIX?$AA@ 000000018022fb68     FreeType:truetype.obj
 0003:0001cb74       ??_C@_04IHPOKHCB@2?5IP?$AA@ 000000018022fb74     FreeType:truetype.obj
 0003:0001cb80       ??_C@_0L@CCEMOPFI@8?5MSIRP?$FL0?$FN?$AA@ 000000018022fb80     FreeType:truetype.obj
 0003:0001cb90       ??_C@_0L@CDIOIFGP@8?5MSIRP?$FL1?$FN?$AA@ 000000018022fb90     FreeType:truetype.obj
 0003:0001cba0       ??_C@_09LHBJLKPM@7?5AlignRP?$AA@ 000000018022fba0     FreeType:truetype.obj
 0003:0001cbac       ??_C@_06PHAEFMHG@4?5RTDG?$AA@ 000000018022fbac     FreeType:truetype.obj
 0003:0001cbb8       ??_C@_09LMMFDDNF@7?5MIAP?$FL0?$FN?$AA@ 000000018022fbb8     FreeType:truetype.obj
 0003:0001cbc8       ??_C@_09LNAHFJOC@7?5MIAP?$FL1?$FN?$AA@ 000000018022fbc8     FreeType:truetype.obj
 0003:0001cbd8       ??_C@_08GJCCOBFO@6?5NPushB?$AA@ 000000018022fbd8     FreeType:truetype.obj
 0003:0001cbe8       ??_C@_08FOJHAHEK@6?5NPushW?$AA@ 000000018022fbe8     FreeType:truetype.obj
 0003:0001cbf4       ??_C@_04LKGLHKJI@2?5WS?$AA@ 000000018022fbf4     FreeType:truetype.obj
 0003:0001cbfc       ??_C@_04LMKALIHD@2?5RS?$AA@ 000000018022fbfc     FreeType:truetype.obj
 0003:0001cc08       ??_C@_07DBICDMFN@5?5WCvtP?$AA@ 000000018022fc08     FreeType:truetype.obj
 0003:0001cc14       ??_C@_06OJEOGHJO@4?5RCvt?$AA@ 000000018022fc14     FreeType:truetype.obj
 0003:0001cc20       ??_C@_07KCDBBCHE@5?5GC?$FL0?$FN?$AA@ 000000018022fc20     FreeType:truetype.obj
 0003:0001cc30       ??_C@_07KDPDHIED@5?5GC?$FL1?$FN?$AA@ 000000018022fc30     FreeType:truetype.obj
 0003:0001cc3c       ??_C@_06CKIABJNL@4?5SCFS?$AA@ 000000018022fc3c     FreeType:truetype.obj
 0003:0001cc48       ??_C@_07LBIKONAC@5?5MD?$FL0?$FN?$AA@ 000000018022fc48     FreeType:truetype.obj
 0003:0001cc58       ??_C@_07LAEIIHDF@5?5MD?$FL1?$FN?$AA@ 000000018022fc58     FreeType:truetype.obj
 0003:0001cc68       ??_C@_07OLBDODKL@5?5MPPEM?$AA@ 000000018022fc68     FreeType:truetype.obj
 0003:0001cc74       ??_C@_05JJEGKEJM@3?5MPS?$AA@ 000000018022fc74     FreeType:truetype.obj
 0003:0001cc80       ??_C@_08PGHKCOL@6?5FlipON?$AA@ 000000018022fc80     FreeType:truetype.obj
 0003:0001cc90       ??_C@_09HACFIOFH@7?5FlipOFF?$AA@ 000000018022fc90     FreeType:truetype.obj
 0003:0001cca0       ??_C@_07HIMFHOHP@5?5DEBUG?$AA@ 000000018022fca0     FreeType:truetype.obj
 0003:0001ccac       ??_C@_04OFFJKAMO@2?5LT?$AA@ 000000018022fcac     FreeType:truetype.obj
 0003:0001ccb4       ??_C@_06DFIOKKHF@4?5LTEQ?$AA@ 000000018022fcb4     FreeType:truetype.obj
 0003:0001ccbc       ??_C@_04OJAMEPCP@2?5GT?$AA@ 000000018022fcbc     FreeType:truetype.obj
 0003:0001ccc4       ??_C@_06ECFOJLGE@4?5GTEQ?$AA@ 000000018022fcc4     FreeType:truetype.obj
 0003:0001cccc       ??_C@_04JHPPGPAE@2?5EQ?$AA@ 000000018022fccc     FreeType:truetype.obj
 0003:0001ccd4       ??_C@_05KDCIAIGL@3?5NEQ?$AA@ 000000018022fcd4     FreeType:truetype.obj
 0003:0001ccdc       ??_C@_05CNODODCN@3?5ODD?$AA@ 000000018022fcdc     FreeType:truetype.obj
 0003:0001cce4       ??_C@_06FPMNAOBB@4?5EVEN?$AA@ 000000018022fce4     FreeType:truetype.obj
 0003:0001ccec       ??_C@_04JLGGBCPG@2?5IF?$AA@ 000000018022fcec     FreeType:truetype.obj
 0003:0001ccf4       ??_C@_05HILAPCJI@3?5EIF?$AA@ 000000018022fcf4     FreeType:truetype.obj
 0003:0001ccfc       ??_C@_05MAKLBBMI@3?5AND?$AA@ 000000018022fcfc     FreeType:truetype.obj
 0003:0001cd04       ??_C@_04LBEFLJBB@2?5OR?$AA@ 000000018022fd04     FreeType:truetype.obj
 0003:0001cd0c       ??_C@_05NDMIHJPI@3?5NOT?$AA@ 000000018022fd0c     FreeType:truetype.obj
 0003:0001cd18       ??_C@_09DKONBDHE@7?5DeltaP1?$AA@ 000000018022fd18     FreeType:truetype.obj
 0003:0001cd24       ??_C@_05GBHGKMIM@3?5SDB?$AA@ 000000018022fd24     FreeType:truetype.obj
 0003:0001cd2c       ??_C@_05DCKPIPJM@3?5SDS?$AA@ 000000018022fd2c     FreeType:truetype.obj
 0003:0001cd34       ??_C@_05MNDMJEBO@3?5ADD?$AA@ 000000018022fd34     FreeType:truetype.obj
 0003:0001cd3c       ??_C@_05HMJCGFML@3?5SUB?$AA@ 000000018022fd3c     FreeType:truetype.obj
 0003:0001cd44       ??_C@_05IKMOIHKM@3?5DIV?$AA@ 000000018022fd44     FreeType:truetype.obj
 0003:0001cd4c       ??_C@_05FCNHGIOJ@3?5MUL?$AA@ 000000018022fd4c     FreeType:truetype.obj
 0003:0001cd54       ??_C@_05MMDCGMDK@3?5ABS?$AA@ 000000018022fd54     FreeType:truetype.obj
 0003:0001cd5c       ??_C@_05LPLALNLM@3?5NEG?$AA@ 000000018022fd5c     FreeType:truetype.obj
 0003:0001cd68       ??_C@_07OMHDKFGK@5?5FLOOR?$AA@ 000000018022fd68     FreeType:truetype.obj
 0003:0001cd78       ??_C@_09DDPOJDOI@7?5CEILING?$AA@ 000000018022fd78     FreeType:truetype.obj
 0003:0001cd88       ??_C@_0L@DLCLEDIE@8?5ROUND?$FL0?$FN?$AA@ 000000018022fd88     FreeType:truetype.obj
 0003:0001cd98       ??_C@_0L@DKOJCJLD@8?5ROUND?$FL1?$FN?$AA@ 000000018022fd98     FreeType:truetype.obj
 0003:0001cda8       ??_C@_0L@DIKPJHOK@8?5ROUND?$FL2?$FN?$AA@ 000000018022fda8     FreeType:truetype.obj
 0003:0001cdb8       ??_C@_0L@DJGNPNNN@8?5ROUND?$FL3?$FN?$AA@ 000000018022fdb8     FreeType:truetype.obj
 0003:0001cdc8       ??_C@_0M@HJOCCJNP@9?5NROUND?$FL0?$FN?$AA@ 000000018022fdc8     FreeType:truetype.obj
 0003:0001cdd8       ??_C@_0M@HICAEDOI@9?5NROUND?$FL1?$FN?$AA@ 000000018022fdd8     FreeType:truetype.obj
 0003:0001cde8       ??_C@_0M@HKGGPNLB@9?5NROUND?$FL2?$FN?$AA@ 000000018022fde8     FreeType:truetype.obj
 0003:0001cdf8       ??_C@_0M@HLKEJHIG@9?5NROUND?$FL3?$FN?$AA@ 000000018022fdf8     FreeType:truetype.obj
 0003:0001ce08       ??_C@_07CNBKIJIK@5?5WCvtF?$AA@ 000000018022fe08     FreeType:truetype.obj
 0003:0001ce18       ??_C@_09BBMAEALH@7?5DeltaP2?$AA@ 000000018022fe18     FreeType:truetype.obj
 0003:0001ce28       ??_C@_09INLHBPG@7?5DeltaP3?$AA@ 000000018022fe28     FreeType:truetype.obj
 0003:0001ce38       ??_C@_0N@POMONKLN@A?5DeltaCn?$FL0?$FN?$AA@ 000000018022fe38     FreeType:truetype.obj
 0003:0001ce48       ??_C@_0N@PPAMLAIK@A?5DeltaCn?$FL1?$FN?$AA@ 000000018022fe48     FreeType:truetype.obj
 0003:0001ce58       ??_C@_0N@PNEKAOND@A?5DeltaCn?$FL2?$FN?$AA@ 000000018022fe58     FreeType:truetype.obj
 0003:0001ce68       ??_C@_08CGLBHAEK@6?5SROUND?$AA@ 000000018022fe68     FreeType:truetype.obj
 0003:0001ce78       ??_C@_0L@LMJCBMBM@8?5S45Round?$AA@ 000000018022fe78     FreeType:truetype.obj
 0003:0001ce88       ??_C@_06OPEFHBJK@4?5JROT?$AA@ 000000018022fe88     FreeType:truetype.obj
 0003:0001ce90       ??_C@_06JHLBABEJ@4?5JROF?$AA@ 000000018022fe90     FreeType:truetype.obj
 0003:0001ce98       ??_C@_06GKIDGJMH@4?5ROFF?$AA@ 000000018022fe98     FreeType:truetype.obj
 0003:0001cea0       ??_C@_09MKCPJPDB@7?5INS_$7B?$AA@ 000000018022fea0     FreeType:truetype.obj
 0003:0001ceac       ??_C@_06FDJOJIGD@4?5RUTG?$AA@ 000000018022feac     FreeType:truetype.obj
 0003:0001ceb4       ??_C@_06LLDLKIJJ@4?5RDTG?$AA@ 000000018022feb4     FreeType:truetype.obj
 0003:0001cec0       ??_C@_07IMCADAGL@5?5SANGW?$AA@ 000000018022fec0     FreeType:truetype.obj
 0003:0001cecc       ??_C@_04NKDENFIJ@2?5AA?$AA@ 000000018022fecc     FreeType:truetype.obj
 0003:0001ced8       ??_C@_08KIDALMHN@6?5FlipPT?$AA@ 000000018022fed8     FreeType:truetype.obj
 0003:0001cee8       ??_C@_0L@IHFCNHHD@8?5FlipRgON?$AA@ 000000018022fee8     FreeType:truetype.obj
 0003:0001cef8       ??_C@_0M@PKBOIHAF@9?5FlipRgOFF?$AA@ 000000018022fef8     FreeType:truetype.obj
 0003:0001cf08       ??_C@_09PHFHJALL@7?5INS_$83?$AA@ 000000018022ff08     FreeType:truetype.obj
 0003:0001cf18       ??_C@_09LIBGAGHM@7?5INS_$84?$AA@ 000000018022ff18     FreeType:truetype.obj
 0003:0001cf28       ??_C@_0L@CLMAFELB@8?5ScanCTRL?$AA@ 000000018022ff28     FreeType:truetype.obj
 0003:0001cf38       ??_C@_0M@LNJLHCMG@9?5SDPvTL?$FL0?$FN?$AA@ 000000018022ff38     FreeType:truetype.obj
 0003:0001cf48       ??_C@_0M@LMFJBIPB@9?5SDPvTL?$FL1?$FN?$AA@ 000000018022ff48     FreeType:truetype.obj
 0003:0001cf58       ??_C@_09FDBANMIE@7?5GetINFO?$AA@ 000000018022ff58     FreeType:truetype.obj
 0003:0001cf64       ??_C@_06KIPEPGAM@4?5IDEF?$AA@ 000000018022ff64     FreeType:truetype.obj
 0003:0001cf6c       ??_C@_06JNPLAEJL@4?5ROLL?$AA@ 000000018022ff6c     FreeType:truetype.obj
 0003:0001cf74       ??_C@_05GHFGLEBA@3?5MAX?$AA@ 000000018022ff74     FreeType:truetype.obj
 0003:0001cf7c       ??_C@_05HFNNFAHP@3?5MIN?$AA@ 000000018022ff7c     FreeType:truetype.obj
 0003:0001cf88       ??_C@_0L@NJCMKINJ@8?5ScanTYPE?$AA@ 000000018022ff88     FreeType:truetype.obj
 0003:0001cf98       ??_C@_0L@NLCHCFJF@8?5InstCTRL?$AA@ 000000018022ff98     FreeType:truetype.obj
 0003:0001cfa8       ??_C@_09KFBPBNAI@7?5INS_$8F?$AA@ 000000018022ffa8     FreeType:truetype.obj
 0003:0001cfb8       ??_C@_09NNLIKJEP@7?5INS_$90?$AA@ 000000018022ffb8     FreeType:truetype.obj
 0003:0001cfc8       ??_C@_08LJLCABCD@6?5GETVAR?$AA@ 000000018022ffc8     FreeType:truetype.obj
 0003:0001cfd8       ??_C@_09LKNDGOFJ@7?5GETDATA?$AA@ 000000018022ffd8     FreeType:truetype.obj
 0003:0001cfe8       ??_C@_09PGJFPKIM@7?5INS_$93?$AA@ 000000018022ffe8     FreeType:truetype.obj
 0003:0001cff8       ??_C@_09LJNEGMEL@7?5INS_$94?$AA@ 000000018022fff8     FreeType:truetype.obj
 0003:0001d008       ??_C@_09KAMPFNAK@7?5INS_$95?$AA@ 0000000180230008     FreeType:truetype.obj
 0003:0001d018       ??_C@_09ILOCAOMJ@7?5INS_$96?$AA@ 0000000180230018     FreeType:truetype.obj
 0003:0001d028       ??_C@_09JCPJDPII@7?5INS_$97?$AA@ 0000000180230028     FreeType:truetype.obj
 0003:0001d038       ??_C@_09BFGBCDEH@7?5INS_$98?$AA@ 0000000180230038     FreeType:truetype.obj
 0003:0001d048       ??_C@_09MHKBCAG@7?5INS_$99?$AA@ 0000000180230048     FreeType:truetype.obj
 0003:0001d058       ??_C@_09OLJMOBPI@7?5INS_$9A?$AA@ 0000000180230058     FreeType:truetype.obj
 0003:0001d068       ??_C@_09MALBLCDL@7?5INS_$9B?$AA@ 0000000180230068     FreeType:truetype.obj
 0003:0001d078       ??_C@_09NJKKIDHK@7?5INS_$9C?$AA@ 0000000180230078     FreeType:truetype.obj
 0003:0001d088       ??_C@_09JGOLBFLN@7?5INS_$9D?$AA@ 0000000180230088     FreeType:truetype.obj
 0003:0001d098       ??_C@_09IPPACEPM@7?5INS_$9E?$AA@ 0000000180230098     FreeType:truetype.obj
 0003:0001f4b8       ??_C@_0BE@OJJAFABD@interpreter?9version?$AA@ 00000001802324b8     FreeType:truetype.obj
 0003:0001f4d0       ??_C@_0CI@DFPMECGB@tt_property_set?3?5missing?5propert@ 00000001802324d0     FreeType:truetype.obj
 0003:0001f500       ??_C@_0FH@FPMOIPKD@d?3?2dev?2visual?5studio?52015?2projec@ 0000000180232500     FreeType:truetype.obj
 0003:0001f568       ??_C@_0CI@CIHEGHMF@tt_property_get?3?5missing?5propert@ 0000000180232568     FreeType:truetype.obj
 0003:0001f598       ??_C@_04JAPIGAPK@sfnt?$AA@ 0000000180232598     FreeType:truetype.obj
 0003:0001f5a0       ??_C@_0L@CFBNLPCP@Locations?5?$AA@ 00000001802325a0     FreeType:truetype.obj
 0003:0001f5b0       ??_C@_0FG@EMPIGKOP@d?3?2dev?2visual?5studio?52015?2projec@ 00000001802325b0     FreeType:truetype.obj
 0003:0001f618       ??_C@_0BB@PLONJGLO@table?5too?5large?6?$AA@ 0000000180232618     FreeType:truetype.obj
 0003:0001f630       ??_C@_0CL@FKGHPAON@glyph?5count?5mismatch?$CB?5?5loca?3?5?$CFd?0@ 0000000180232630     FreeType:truetype.obj
 0003:0001f668       ??_C@_0BP@GGFJPGKJ@adjusting?5num_locations?5to?5?$CFd?6?$AA@ 0000000180232668     FreeType:truetype.obj
 0003:0001f690       ??_C@_0BM@FPNGBNAC@adjusting?5num_glyphs?5to?5?$CFd?6?$AA@ 0000000180232690     FreeType:truetype.obj
 0003:0001f6b8       ??_C@_07HGLECIFL@loaded?6?$AA@ 00000001802326b8     FreeType:truetype.obj
 0003:0001f6d0       ??_C@_0IH@IMADPDAK@tt_face_get_location?3?5too?5large?5@ 00000001802326d0     FreeType:truetype.obj
 0003:0001f780       ??_C@_0IJ@DDENFGPF@tt_face_get_location?3?5too?5large?5@ 0000000180232780     FreeType:truetype.obj
 0003:0001f824       ??_C@_04DGNJNIML@CVT?5?$AA@ 0000000180232824     FreeType:truetype.obj
 0003:0001f830       ??_C@_0M@NDFOJALC@is?5missing?6?$AA@ 0000000180232830     FreeType:truetype.obj
 0003:0001f840       ??_C@_0O@NNKDKBGN@Font?5program?5?$AA@ 0000000180232840     FreeType:truetype.obj
 0003:0001f850       ??_C@_0BE@JCLFNPKA@loaded?0?5?$CF12d?5bytes?6?$AA@ 0000000180232850     FreeType:truetype.obj
 0003:0001f868       ??_C@_0O@HBLDMHJP@Prep?5program?5?$AA@ 0000000180232868     FreeType:truetype.obj
 0003:0001f878       ??_C@_0CC@GHKIDEOD@?5?5advance?5width?5?$CIfont?5units?$CJ?3?5?$CFd@ 0000000180232878     FreeType:truetype.obj
 0003:0001f8a0       ??_C@_0CG@BOBMINFM@?5?5left?5side?5bearing?5?$CIfont?5units?$CJ@ 00000001802328a0     FreeType:truetype.obj
 0003:0001f8d0       ??_C@_0CD@EFKKHLDJ@?5?5advance?5height?5?$CIfont?5units?$CJ?3?5?$CF@ 00000001802328d0     FreeType:truetype.obj
 0003:0001f900       ??_C@_0CF@OJHICLND@?5?5top?5side?5bearing?5?$CIfont?5units?$CJ?3@ 0000000180232900     FreeType:truetype.obj
 0003:0001f930       ??_C@_0L@CCJFCGJC@Glyph?5?$CFld?6?$AA@ 0000000180232930     FreeType:truetype.obj
 0003:0001f940       ??_C@_0FG@DKIGFCNN@d?3?2dev?2visual?5studio?52015?2projec@ 0000000180232940     FreeType:truetype.obj
 0003:0001f9a8       ??_C@_0BF@FFONIHL@?5?5?$CD?5of?5contours?3?5?$CFd?6?$AA@ 00000001802329a8     FreeType:truetype.obj
 0003:0001f9c8       ??_C@_0BI@PLPDCJI@?5?5xMin?3?5?$CF4d?5?5xMax?3?5?$CF4d?6?$AA@ 00000001802329c8     FreeType:truetype.obj
 0003:0001f9e8       ??_C@_0BI@NJBJIJJI@?5?5yMin?3?5?$CF4d?5?5yMax?3?5?$CF4d?6?$AA@ 00000001802329e8     FreeType:truetype.obj
 0003:0001fa08       ??_C@_0BJ@KHGEHEJ@?5?5Instructions?5size?3?5?$CFu?6?$AA@ 0000000180232a08     FreeType:truetype.obj
 0003:0001fa28       ??_C@_0DC@CHNDPNNA@TT_Load_Simple_Glyph?3?5instructio@ 0000000180232a28     FreeType:truetype.obj
 0003:0001fa68       ??_C@_0BB@DOOHMHCG@?5?5?$CFd?5components?6?$AA@ 0000000180232a68     FreeType:truetype.obj
 0003:0001fa80       ??_C@_0CF@PCACDMCE@TT_Hint_Glyph?3?5too?5long?5instruct@ 0000000180232a80     FreeType:truetype.obj
 0003:0001fab0       ??_C@_0BM@MPOHJJHJ@?5?$CI0x?$CFlx?5byte?$CJ?5is?5truncated?6?$AA@ 0000000180232ab0     FreeType:truetype.obj
 0003:0001fad8       ??_C@_0BK@MIKHNDME@?5?5Instructions?5size?5?$DN?5?$CFd?6?$AA@ 0000000180232ad8     FreeType:truetype.obj
 0003:0001fb00       ??_C@_0FB@OKBIEGNL@TT_Process_Composite_Glyph?3?5too?5@ 0000000180232b00     FreeType:truetype.obj
 0003:0001fb68       ??_C@_0BF@JHJEKJGH@?5?5nesting?5level?3?5?$CFd?6?$AA@ 0000000180232b68     FreeType:truetype.obj
 0003:0001fb88       ??_C@_0DC@JNBEBBCC@load_truetype_glyph?3?5maxComponen@ 0000000180232b88     FreeType:truetype.obj
 0003:0001fbc8       ??_C@_0CL@BHCGKAAL@no?5?$GAglyf?8?5table?5but?5non?9zero?5?$GAlo@ 0000000180232bc8     FreeType:truetype.obj
 0003:0001fc00       ??_C@_0DG@GBOAIJEG@TT_Load_Composite_Glyph?3?5infinit@ 0000000180232c00     FreeType:truetype.obj
 0003:0001fc40       ??_C@_0EE@IINJBFEO@tt_loader_init?3?5subpixel?5hinting@ 0000000180232c40     FreeType:truetype.obj
 0003:0001fca0       ??_C@_0EO@OJGPPNGA@tt_loader_init?3?5grayscale?5subpix@ 0000000180232ca0     FreeType:truetype.obj
 0003:0001fd00       ??_C@_0EF@DLDDJLLP@tt_loader_init?3?5grayscale?5hintin@ 0000000180232d00     FreeType:truetype.obj
 0003:0001fd58       ??_C@_0CO@PBELKMDA@tt_loader_init?3?5could?5not?5access@ 0000000180232d58     FreeType:truetype.obj
 0003:0001fd90       ??_C@_0BP@PGJCGAOJ@TT_Load_Glyph?3?5glyph?5index?5?$CFd?6?$AA@ 0000000180232d90     FreeType:truetype.obj
 0003:0001fdb8       ??_C@_07JBKHDJHE@?4notdef?$AA@ 0000000180232db8     FreeType:truetype.obj
 0003:0001fdc8       ??_C@_0M@LFDIHEDK@TTF?5driver?6?$AA@ 0000000180232dc8     FreeType:truetype.obj
 0003:0001fdd8       ??_C@_0CL@KIBGNAPO@tt_face_init?3?5cannot?5access?5?$GAsfn@ 0000000180232dd8     FreeType:truetype.obj
 0003:0001fe10       ??_C@_0FF@OEHHCFKO@d?3?2dev?2visual?5studio?52015?2projec@ 0000000180232e10     FreeType:truetype.obj
 0003:0001fe78       ??_C@_0BC@JJINPPGC@?5?5not?5a?5TTF?5font?6?$AA@ 0000000180232e78     FreeType:truetype.obj
 0003:0001fe90       ??_C@_0GI@MMCLBIDK@tt_face_init?3?5Only?5the?5?$GA?4notdef?8@ 0000000180232e90     FreeType:truetype.obj
 0003:0001ff10       ??_C@_0BJ@PGIACECH@Executing?5?$GAfpgm?8?5table?4?6?$AA@ 0000000180232f10     FreeType:truetype.obj
 0003:0001ff30       ??_C@_0BJ@IBPFPBOF@Executing?5?$GAprep?8?5table?4?6?$AA@ 0000000180232f30     FreeType:truetype.obj
 0003:0001ff50       ??_C@_0FH@HOBHECLC@d?3?2dev?2visual?5studio?52015?2projec@ 0000000180232f50     FreeType:truetype.obj
 0003:0001ffb8       ??_C@_0CE@KIKCADGJ@Init_Context?3?5new?5object?5at?50x?$CF0@ 0000000180232fb8     FreeType:truetype.obj
 0003:0001ffe8       ??_C@_0CI@NMCPIOBJ@Init_Context?3?5not?5enough?5memory?5@ 0000000180232fe8     FreeType:truetype.obj
 0003:00020018       ??_C@_02KNHHEEKP@?5?5?$AA@ 0000000180233018     FreeType:truetype.obj
 0003:0002001c       ??_C@_05LHGHJCHM@?$CF06d?5?$AA@ 000000018023301c     FreeType:truetype.obj
 0003:00020024       ??_C@_01IPJKGB@?$CD?$AA@   0000000180233024     FreeType:truetype.obj
 0003:00020028       ??_C@_03HIJPJGOM@?$CF?$CKs?$AA@ 0000000180233028     FreeType:truetype.obj
 0003:00020030       ??_C@_0CH@EDANKCMM@?5?5The?5interpreter?5returned?5error@ 0000000180233030     FreeType:truetype.obj
 0003:00020060       ??_C@_0DF@LPFOMOLB@ft_var_readpackedpoints?3?5number?5@ 0000000180233060     FreeType:truetype.obj
 0003:000200a0       ??_C@_0DF@BLAOLLKE@ft_var_readpackeddeltas?3?5number?5@ 00000001802330a0     FreeType:truetype.obj
 0003:000200e0       ??_C@_05OEHOFMNK@AVAR?5?$AA@ 00000001802330e0     FreeType:truetype.obj
 0003:000200e8       ??_C@_0BD@DHGNCPNC@bad?5table?5version?6?$AA@ 00000001802330e8     FreeType:truetype.obj
 0003:00020100       ??_C@_0FN@HEGFLKLE@ft_var_load_avar?3?5number?5of?5axes@ 0000000180233100     FreeType:truetype.obj
 0003:00020170       ??_C@_0M@BECHFPMA@?5?5axis?5?$CFd?3?6?$AA@ 0000000180233170     FreeType:truetype.obj
 0003:00020180       ??_C@_0BK@GCFCCHAK@?5?5?5?5mapping?5?$CF?44f?5to?5?$CF?44f?6?$AA@ 0000000180233180     FreeType:truetype.obj
 0003:000201a0       ??_C@_05DCCHLPMH@GVAR?5?$AA@ 00000001802331a0     FreeType:truetype.obj
 0003:000201b0       ??_C@_0FG@PILMLBBA@d?3?2dev?2visual?5studio?52015?2projec@ 00000001802331b0     FreeType:truetype.obj
 0003:00020220       ??_C@_0FN@IOOOFPCN@ft_var_load_gvar?3?5number?5of?5axes@ 0000000180233220     FreeType:truetype.obj
 0003:00020290       ??_C@_0DI@BBDFAMHL@ft_var_load_gvar?3?5invalid?5number@ 0000000180233290     FreeType:truetype.obj
 0003:000202d8       ??_C@_0CM@LJOFHHIA@ft_var_load_gvar?3?5invalid?5number@ 00000001802332d8     FreeType:truetype.obj
 0003:00020310       ??_C@_0CI@OONAAFEJ@gvar?3?5there?5are?5?$CFd?5shared?5coordi@ 0000000180233310     FreeType:truetype.obj
 0003:00020340       ??_C@_04KNEDGNCL@?5?5?$FL?5?$AA@ 0000000180233340     FreeType:truetype.obj
 0003:00020348       ??_C@_05MBDKKHHK@?$CF?44f?5?$AA@ 0000000180233348     FreeType:truetype.obj
 0003:00020350       ??_C@_02JODFHDIE@?$FN?6?$AA@ 0000000180233350     FreeType:truetype.obj
 0003:00020358       ??_C@_0CA@CADEDFPN@?5?5?5?5axis?5coordinate?5?$CFd?5?$CI?$CF?44f?$CJ?3?6?$AA@ 0000000180233358     FreeType:truetype.obj
 0003:00020380       ??_C@_0DB@KFILFDKH@?5?5?5?5?5?5intermediate?5coordinates?5?$CF@ 0000000180233380     FreeType:truetype.obj
 0003:000203c0       ??_C@_0CJ@NJKKDFOO@?5?5?5?5?5?5tuple?5coordinate?5is?5zero?0?5@ 00000001802333c0     FreeType:truetype.obj
 0003:000203f8       ??_C@_0CF@JJEGFMCH@?5?5?5?5?5?5axis?5coordinate?5is?5zero?0?5s@ 00000001802333f8     FreeType:truetype.obj
 0003:00020428       ??_C@_0DC@LCEKGFCC@?5?5?5?5?5?5tuple?5coordinate?5value?5?$CF?44@ 0000000180233428     FreeType:truetype.obj
 0003:00020468       ??_C@_0DF@HGFOCKHF@?5?5?5?5?5?5tuple?5coordinate?5value?5?$CF?44@ 0000000180233468     FreeType:truetype.obj
 0003:000204a8       ??_C@_0CI@BJCLKCNE@?5?5?5?5?5?5tuple?5coordinate?5value?5?$CF?44@ 00000001802334a8     FreeType:truetype.obj
 0003:000204d8       ??_C@_0DO@FELAOAOP@?5?5?5?5?5?5intermediate?5tuple?5range?5?$FL@ 00000001802334d8     FreeType:truetype.obj
 0003:00020528       ??_C@_0DB@GECKMEBO@?5?5?5?5?5?5intermediate?5tuple?5range?5?$FL@ 0000000180233528     FreeType:truetype.obj
 0003:00020568       ??_C@_0BK@OAFPPNHC@?5?5?5?5apply?5factor?5is?5?$CF?44f?6?$AA@ 0000000180233568     FreeType:truetype.obj
 0003:00020588       ??_C@_05PJHLGMGC@FVAR?5?$AA@ 0000000180233588     FreeType:truetype.obj
 0003:00020590       ??_C@_0CJ@GPPKJHJJ@?6TT_Get_MM_Var?3?5?$GAgvar?8?5table?5is?5@ 0000000180233590     FreeType:truetype.obj
 0003:000205c8       ??_C@_0CH@JKPADEIO@?6TT_Get_MM_Var?3?5invalid?5?$GAfvar?8?5h@ 00000001802335c8     FreeType:truetype.obj
 0003:000205f8       ??_C@_0BN@NJICLHAH@number?5of?5GX?5style?5axes?3?5?$CFd?6?$AA@ 00000001802335f8     FreeType:truetype.obj
 0003:00020620       ??_C@_0DC@DPJEMAIF@?5?5?$CC?$CFs?$CC?3?5minimum?$DN?$CF?44f?0?5default?$DN?$CF?4@ 0000000180233620     FreeType:truetype.obj
 0003:0002065c       ??_C@_06ODJMJFLN@Weight?$AA@ 000000018023365c     FreeType:truetype.obj
 0003:00020664       ??_C@_05IBAMDCFI@Width?$AA@ 0000000180233664     FreeType:truetype.obj
 0003:00020670       ??_C@_0M@EDHPABCB@OpticalSize?$AA@ 0000000180233670     FreeType:truetype.obj
 0003:00020680       ??_C@_05BCGFHEPH@Slant?$AA@ 0000000180233680     FreeType:truetype.obj
 0003:00020688       ??_C@_0DI@HDEPCJMK@TT_Set_MM_Blend?3?5only?5using?5firs@ 0000000180233688     FreeType:truetype.obj
 0003:000206d0       ??_C@_0CA@CMJCJKPD@normalized?5design?5coordinates?3?6?$AA@ 00000001802336d0     FreeType:truetype.obj
 0003:000206f8       ??_C@_07EMHKEOFC@?5?5?$CF?44f?6?$AA@ 00000001802336f8     FreeType:truetype.obj
 0003:00020710       ??_C@_0FM@MBBGOLPB@TT_Set_MM_Blend?3?5normalized?5desi@ 0000000180233710     FreeType:truetype.obj
 0003:00020780       ??_C@_0DK@JPALEMBM@TT_Set_Var_Design?3?5only?5using?5fi@ 0000000180233780     FreeType:truetype.obj
 0003:000207c8       ??_C@_0BF@EDKHAEJK@design?5coordinates?3?6?$AA@ 00000001802337c8     FreeType:truetype.obj
 0003:000207f0       ??_C@_0GF@DAICIGLO@TT_Set_Var_Design?3?5normalized?5de@ 00000001802337f0     FreeType:truetype.obj
 0003:00020870       ??_C@_0DM@HPFHCCIP@normalized?5design?5coordinates?5be@ 0000000180233870     FreeType:truetype.obj
 0003:000208b8       ??_C@_05KJLGPNNB@CVAR?5?$AA@ 00000001802338b8     FreeType:truetype.obj
 0003:000208c0       ??_C@_0CH@IJNALGDF@?6tt_face_vary_cvt?3?5no?5blend?5spec@ 00000001802338c0     FreeType:truetype.obj
 0003:000208f0       ??_C@_0CE@EOLJDKFO@?6tt_face_vary_cvt?3?5no?5?$GAcvt?5?8?5tab@ 00000001802338f0     FreeType:truetype.obj
 0003:00020920       ??_C@_0DG@PMDNDPCN@tt_face_vary_cvt?3?5invalid?5CVT?5va@ 0000000180233920     FreeType:truetype.obj
 0003:00020960       ??_C@_0BM@GFBJFHKP@cvar?3?5there?5are?5?$CFd?5tuples?3?6?$AA@ 0000000180233960     FreeType:truetype.obj
 0003:00020988       ??_C@_0N@MCOMBOGE@?5?5tuple?5?$CFd?3?6?$AA@ 0000000180233988     FreeType:truetype.obj
 0003:00020998       ??_C@_0BB@FFPMGAAO@?5?5?5?5CVT?5deltas?3?6?$AA@ 0000000180233998     FreeType:truetype.obj
 0003:000209b0       ??_C@_0BE@PNMJMFBO@?5?5?5?5?5?5?$CFd?3?5?$CFd?5?9?$DO?5?$CFd?6?$AA@ 00000001802339b0     FreeType:truetype.obj
 0003:000209c8       ??_C@_0M@KHHGFIMB@?5?5?5?5?5?5none?6?$AA@ 00000001802339c8     FreeType:truetype.obj
 0003:000209d8       ??_C@_0DO@KNKNHGGE@TT_Vary_Apply_Glyph_Deltas?3?5no?5v@ 00000001802339d8     FreeType:truetype.obj
 0003:00020a30       ??_C@_0EC@BJADIFFK@TT_Vary_Apply_Glyph_Deltas?3?5inva@ 0000000180233a30     FreeType:truetype.obj
 0003:00020a80       ??_C@_0BM@GDMOKDNL@gvar?3?5there?5are?5?$CFd?5tuples?3?6?$AA@ 0000000180233a80     FreeType:truetype.obj
 0003:00020aa8       ??_C@_0DB@MJKEFJOF@TT_Vary_Apply_Glyph_Deltas?3?5inva@ 0000000180233aa8     FreeType:truetype.obj
 0003:00020ae8       ??_C@_0BD@LJPFNDDD@?5?5?5?5point?5deltas?3?6?$AA@ 0000000180233ae8     FreeType:truetype.obj
 0003:00020b00       ??_C@_0CA@LJGOGNFO@?5?5?5?5?5?5?$CFd?3?5?$CI?$CFd?0?5?$CFd?$CJ?5?9?$DO?5?$CI?$CFd?0?5?$CFd?$CJ?6?$AA@ 0000000180233b00     FreeType:truetype.obj
 0003:00020c10       t1_driver_class            0000000180233c10     FreeType:type1.obj
 0003:000217a8       ??_C@_07CPCPJPKL@version?$AA@ 00000001802347a8     FreeType:type1.obj
 0003:000217b4       ??_C@_06JHGCIHDH@Notice?$AA@ 00000001802347b4     FreeType:type1.obj
 0003:000217c0       ??_C@_08FPDCFGEH@FullName?$AA@ 00000001802347c0     FreeType:type1.obj
 0003:000217d0       ??_C@_0L@KKMPOENF@FamilyName?$AA@ 00000001802347d0     FreeType:type1.obj
 0003:000217e0       ??_C@_0M@ILCDBHGP@ItalicAngle?$AA@ 00000001802347e0     FreeType:type1.obj
 0003:000217f0       ??_C@_0N@OPLNPOL@isFixedPitch?$AA@ 00000001802347f0     FreeType:type1.obj
 0003:00021800       ??_C@_0BC@CCIMILPE@UnderlinePosition?$AA@ 0000000180234800     FreeType:type1.obj
 0003:00021818       ??_C@_0BD@KBICJDLM@UnderlineThickness?$AA@ 0000000180234818     FreeType:type1.obj
 0003:00021830       ??_C@_06FIINGLDE@FSType?$AA@ 0000000180234830     FreeType:type1.obj
 0003:00021838       ??_C@_08OMJGNOHD@UniqueID?$AA@ 0000000180234838     FreeType:type1.obj
 0003:00021844       ??_C@_05CIIKKFON@lenIV?$AA@ 0000000180234844     FreeType:type1.obj
 0003:00021850       ??_C@_0O@PJDGHDCK@LanguageGroup?$AA@ 0000000180234850     FreeType:type1.obj
 0003:00021860       ??_C@_08NLHBPEGP@password?$AA@ 0000000180234860     FreeType:type1.obj
 0003:00021870       ??_C@_09IPAGIEBG@BlueScale?$AA@ 0000000180234870     FreeType:type1.obj
 0003:00021880       ??_C@_09GDCMDLCO@BlueShift?$AA@ 0000000180234880     FreeType:type1.obj
 0003:00021890       ??_C@_08IPFLJFPM@BlueFuzz?$AA@ 0000000180234890     FreeType:type1.obj
 0003:000218a0       ??_C@_0L@DKDIMLOI@BlueValues?$AA@ 00000001802348a0     FreeType:type1.obj
 0003:000218b0       ??_C@_0L@CCJAIIMC@OtherBlues?$AA@ 00000001802348b0     FreeType:type1.obj
 0003:000218c0       ??_C@_0M@OIPOLIDA@FamilyBlues?$AA@ 00000001802348c0     FreeType:type1.obj
 0003:000218d0       ??_C@_0BB@FMLCJJDP@FamilyOtherBlues?$AA@ 00000001802348d0     FreeType:type1.obj
 0003:000218e4       ??_C@_05PHECBFLF@StdHW?$AA@ 00000001802348e4     FreeType:type1.obj
 0003:000218ec       ??_C@_05OBPKJLMP@StdVW?$AA@ 00000001802348ec     FreeType:type1.obj
 0003:000218f8       ??_C@_0L@NKGPCONN@MinFeature?$AA@ 00000001802348f8     FreeType:type1.obj
 0003:00021908       ??_C@_09NCKADFKP@StemSnapH?$AA@ 0000000180234908     FreeType:type1.obj
 0003:00021918       ??_C@_09GOBAKHA@StemSnapV?$AA@ 0000000180234918     FreeType:type1.obj
 0003:00021928       ??_C@_0BA@PKGIFANC@ExpansionFactor?$AA@ 0000000180234928     FreeType:type1.obj
 0003:00021940       ??_C@_09BDDIAPM@ForceBold?$AA@ 0000000180234940     FreeType:type1.obj
 0003:00021950       ??_C@_08MKFDOKHL@FontName?$AA@ 0000000180234950     FreeType:type1.obj
 0003:00021960       ??_C@_09PNDIDGHG@PaintType?$AA@ 0000000180234960     FreeType:type1.obj
 0003:00021970       ??_C@_08GBFACKAL@FontType?$AA@ 0000000180234970     FreeType:type1.obj
 0003:00021980       ??_C@_0M@GLGMDIGG@StrokeWidth?$AA@ 0000000180234980     FreeType:type1.obj
 0003:00021990       ??_C@_08EBMMLPNI@FontBBox?$AA@ 0000000180234990     FreeType:type1.obj
 0003:0002199c       ??_C@_03DOACNACD@NDV?$AA@  000000018023499c     FreeType:type1.obj
 0003:000219a0       ??_C@_03MMGIAIPO@CDV?$AA@  00000001802349a0     FreeType:type1.obj
 0003:000219a8       ??_C@_0N@PGGOPDKP@DesignVector?$AA@ 00000001802349a8     FreeType:type1.obj
 0003:000219b8       ??_C@_0L@LNCCOCBB@FontMatrix?$AA@ 00000001802349b8     FreeType:type1.obj
 0003:000219c8       ??_C@_08EJAHIGCJ@Encoding?$AA@ 00000001802349c8     FreeType:type1.obj
 0003:000219d4       ??_C@_05DHFNOCDJ@Subrs?$AA@ 00000001802349d4     FreeType:type1.obj
 0003:000219e0       ??_C@_0M@EKIFGBLL@CharStrings?$AA@ 00000001802349e0     FreeType:type1.obj
 0003:000219f0       ??_C@_07CFINJGKH@Private?$AA@ 00000001802349f0     FreeType:type1.obj
 0003:00021a00       ??_C@_0BF@BEKHBPMN@BlendDesignPositions?$AA@ 0000000180234a00     FreeType:type1.obj
 0003:00021a20       ??_C@_0P@FPDIEJKK@BlendDesignMap?$AA@ 0000000180234a20     FreeType:type1.obj
 0003:00021a38       ??_C@_0P@LEAACMFJ@BlendAxisTypes?$AA@ 0000000180234a38     FreeType:type1.obj
 0003:00021a50       ??_C@_0N@JPPBHHHF@WeightVector?$AA@ 0000000180234a50     FreeType:type1.obj
 0003:00021a60       ??_C@_0P@KEOGGALI@BuildCharArray?$AA@ 0000000180234a60     FreeType:type1.obj
 0003:00021a74       ??_C@_06JCBOBHIA@Type?51?$AA@ 0000000180234a74     FreeType:type1.obj
 0003:00021a80       ??_C@_0BA@EAOIOGJA@postscript?9info?$AA@ 0000000180234a80     FreeType:type1.obj
 0003:00023390       ??_C@_0FD@IBDCOMFJ@d?3?2dev?2visual?5studio?52015?2projec@ 0000000180236390     FreeType:type1.obj
 0003:000233f8       ??_C@_0P@EMKCEFJO@?$CF?$CBPS?9AdobeFont?$AA@ 00000001802363f8     FreeType:type1.obj
 0003:00023410       ??_C@_0L@LLIKMEDC@?$CF?$CBFontType?$AA@ 0000000180236410     FreeType:type1.obj
 0003:00023420       ??_C@_0BF@OBJOOMFD@?5?5not?5a?5Type?51?5font?6?$AA@ 0000000180236420     FreeType:type1.obj
 0003:00023440       ??_C@_0DJ@DIIACHLF@T1_Get_Private_Dict?3?5invalid?5pri@ 0000000180236440     FreeType:type1.obj
 0003:00023488       ??_C@_0DF@JKCBBGLP@T1_Get_Private_Dict?3?5could?5not?5f@ 0000000180236488     FreeType:type1.obj
 0003:000234c8       ??_C@_0DK@HIECIMME@T1_Get_Private_Dict?3?5premature?5e@ 00000001802364c8     FreeType:type1.obj
 0003:00023510       ??_C@_0DG@KENEOBOK@T1_Get_Private_Dict?3?5?$GAeexec?8?5not@ 0000000180236510     FreeType:type1.obj
 0003:00023550       ??_C@_0FC@BBKDOCOB@d?3?2dev?2visual?5studio?52015?2projec@ 0000000180236550     FreeType:type1.obj
 0003:000235b8       ??_C@_0DG@FDPLANGL@parse_blend_axis_types?3?5incorrec@ 00000001802365b8     FreeType:type1.obj
 0003:00023600       ??_C@_0EA@BIAPBMPL@parse_blend_axis_types?3?5overwrit@ 0000000180236600     FreeType:type1.obj
 0003:00023650       ??_C@_0DP@NHOIKMJF@parse_blend_design_positions?3?5in@ 0000000180236650     FreeType:type1.obj
 0003:000236a0       ??_C@_0DK@HLHOOLOJ@parse_blend_design_positions?3?5in@ 00000001802366a0     FreeType:type1.obj
 0003:000236e8       ??_C@_0CP@EKOMBMEB@parse_blend_design_positions?3?5in@ 00000001802366e8     FreeType:type1.obj
 0003:00023720       ??_C@_0DG@CDNMPEHM@parse_blend_design_map?3?5incorrec@ 0000000180236720     FreeType:type1.obj
 0003:00023760       ??_C@_0CJ@LFJMHIAI@parse_blend_design_map?3?5incorrec@ 0000000180236760     FreeType:type1.obj
 0003:00023798       ??_C@_0CJ@DIMDBJBP@parse_blend_design_map?3?5duplicat@ 0000000180236798     FreeType:type1.obj
 0003:000237d0       ??_C@_0DG@GHJNDPMD@parse_weight_vector?3?5incorrect?5n@ 00000001802367d0     FreeType:type1.obj
 0003:00023810       ??_C@_0HE@IECMEGI@parse_weight_vector?3?5?1BlendDesig@ 0000000180236810     FreeType:type1.obj
 0003:000238a0       ??_C@_0HN@DGGMHBJP@t1_load_keyword?3?5ignoring?5keywor@ 00000001802368a0     FreeType:type1.obj
 0003:00023938       ??_C@_0CG@MFJIEGCO@read_binary_data?3?5invalid?5size?5f@ 0000000180236938     FreeType:type1.obj
 0003:00023968       ??_C@_0CL@EBDFOJAM@t1_parse_font_matrix?3?5invalid?5fo@ 0000000180236968     FreeType:type1.obj
 0003:000239a0       ??_C@_0BP@KLKHBNPG@parse_encoding?3?5out?5of?5bounds?6?$AA@ 00000001802369a0     FreeType:type1.obj
 0003:000239c8       ??_C@_0CN@ICGKAAPE@parse_encoding?3?5invalid?5encoding@ 00000001802369c8     FreeType:type1.obj
 0003:00023a00       ??_C@_0O@NFMFMIMO@encoding?5end?6?$AA@ 0000000180236a00     FreeType:type1.obj
 0003:00023a10       ??_C@_0BB@MLEHKAJM@StandardEncoding?$AA@ 0000000180236a10     FreeType:type1.obj
 0003:00023a28       ??_C@_0P@LHOFAKJ@ExpertEncoding?$AA@ 0000000180236a28     FreeType:type1.obj
 0003:00023a40       ??_C@_0BC@OHHLKLPP@ISOLatin1Encoding?$AA@ 0000000180236a40     FreeType:type1.obj
 0003:00023a58       ??_C@_0DO@NFFLAFLN@parse_subrs?3?5adjusting?5number?5of@ 0000000180236a58     FreeType:type1.obj
 0003:00023aa4       ??_C@_03BHPKJDPK@dup?$AA@  0000000180236aa4     FreeType:type1.obj
 0003:00023aa8       ??_C@_03KMONJGDG@put?$AA@  0000000180236aa8     FreeType:type1.obj
 0003:00023ab0       ??_C@_0DP@MFOHHMLJ@parse_charstrings?3?5adjusting?5num@ 0000000180236ab0     FreeType:type1.obj
 0003:00023afc       ??_C@_05OJJBIBFE@eexec?$AA@ 0000000180236afc     FreeType:type1.obj
 0003:00023b08       ??_C@_09BJJLCLMA@closefile?$AA@ 0000000180236b08     FreeType:type1.obj
 0003:00023b18       ??_C@_0O@CJLBGMNG@FontDirectory?$AA@ 0000000180236b18     FreeType:type1.obj
 0003:00023b30       ??_C@_0EM@IJFOPHMP@parse_dict?3?5found?5?$GA?$CFs?8?5but?5ignor@ 0000000180236b30     FreeType:type1.obj
 0003:00023b90       ??_C@_0EM@IIPFEHK@T1_Open_Face?$CI?$CJ?3?5?1DesignVector?5co@ 0000000180236b90     FreeType:type1.obj
 0003:00023bf0       ??_C@_0CO@OLOEBBAC@T1_Open_Face?3?5cannot?5allocate?5Bu@ 0000000180236bf0     FreeType:type1.obj
 0003:00023c28       ??_C@_0CP@DEPHJMKA@T1_Open_Face?3?5no?5?$GA?1CharStrings?8?5@ 0000000180236c28     FreeType:type1.obj
 0003:00023c60       ??_C@_08MNGCAOLP@pshinter?$AA@ 0000000180236c60     FreeType:type1.obj
 0003:00023c70       ??_C@_0FC@CGMLLFJF@d?3?2dev?2visual?5studio?52015?2projec@ 0000000180236c70     FreeType:type1.obj
 0003:00023cd8       ??_C@_0BB@JIMLNENF@postscript?9cmaps?$AA@ 0000000180236cd8     FreeType:type1.obj
 0003:00023cec       ??_C@_05MNCLAAKB@psaux?$AA@ 0000000180236cec     FreeType:type1.obj
 0003:00023cf8       ??_C@_0CM@LOPNIGHG@T1_Face_Init?3?5cannot?5access?5?$GApsa@ 0000000180236cf8     FreeType:type1.obj
 0003:00023d30       ??_C@_0P@DGPEMFJJ@Type?51?5driver?6?$AA@ 0000000180236d30     FreeType:type1.obj
 0003:00023d48       ??_C@_0CC@BMKDPKIC@T1_Face_Init?3?5invalid?5face?5index@ 0000000180236d48     FreeType:type1.obj
 0003:00023d70       ??_C@_07FFHPBFOK@Regular?$AA@ 0000000180236d70     FreeType:type1.obj
 0003:00023d7c       ??_C@_04DIPHHIHJ@Bold?$AA@ 0000000180236d7c     FreeType:type1.obj
 0003:00023d84       ??_C@_05BPGNDIAE@Black?$AA@ 0000000180236d84     FreeType:type1.obj
 0003:00023d90       ??_C@_0FD@ILEPAHGJ@d?3?2dev?2visual?5studio?52015?2projec@ 0000000180236d90     FreeType:type1.obj
 0003:00023df8       ??_C@_0BP@MCGIIBIM@T1_Load_Glyph?3?5glyph?5index?5?$CFd?6?$AA@ 0000000180236df8     FreeType:type1.obj
 0003:00023e20       ??_C@_0FB@LFNAHKHA@d?3?2dev?2visual?5studio?52015?2projec@ 0000000180236e20     FreeType:type1.obj
 0003:00023e88       ??_C@_0DM@CMMDHPPN@T1_Read_Metrics?3?5Freeing?5previou@ 0000000180236e88     FreeType:type1.obj
 0003:00023fa0       cff_driver_class           0000000180236fa0     FreeType:cff.obj
 0003:000248d0       cff_cmap_encoding_class_rec 00000001802378d0     FreeType:cff.obj
 0003:00024920       cff_cmap_unicode_class_rec 0000000180237920     FreeType:cff.obj
 0003:00025564       ??_C@_03IFCOMOMB@CFF?$AA@  0000000180238564     FreeType:cff.obj
 0003:00025568       ??_C@_03LMEEOLHO@CID?$AA@  0000000180238568     FreeType:cff.obj
 0003:00025570       ??_C@_07NGFJPNPN@Version?$AA@ 0000000180238570     FreeType:cff.obj
 0003:00025580       ??_C@_09EGCMDBBB@Copyright?$AA@ 0000000180238580     FreeType:cff.obj
 0003:00025590       ??_C@_0P@IHAOFIJF@CharstringType?$AA@ 0000000180238590     FreeType:cff.obj
 0003:000255a8       ??_C@_07EAJPFAFH@charset?$AA@ 00000001802385a8     FreeType:cff.obj
 0003:000255b8       ??_C@_0O@EENDDJBG@SyntheticBase?$AA@ 00000001802385b8     FreeType:cff.obj
 0003:000255c8       ??_C@_0L@GLNNPNOK@PostScript?$AA@ 00000001802385c8     FreeType:cff.obj
 0003:000255d8       ??_C@_0P@NDNCHHAI@MultipleMaster?$AA@ 00000001802385d8     FreeType:cff.obj
 0003:000255ec       ??_C@_03FFOPCDKA@ROS?$AA@  00000001802385ec     FreeType:cff.obj
 0003:000255f0       ??_C@_0P@FDOGBFAP@CIDFontVersion?$AA@ 00000001802385f0     FreeType:cff.obj
 0003:00025608       ??_C@_0BA@GOIFFDIH@CIDFontRevision?$AA@ 0000000180238608     FreeType:cff.obj
 0003:00025620       ??_C@_0M@IBCFBNHK@CIDFontType?$AA@ 0000000180238620     FreeType:cff.obj
 0003:00025630       ??_C@_08LPCKMOBH@CIDCount?$AA@ 0000000180238630     FreeType:cff.obj
 0003:00025640       ??_C@_07CNNFHHEA@UIDBase?$AA@ 0000000180238640     FreeType:cff.obj
 0003:00025650       ??_C@_07PEKDNLEP@FDArray?$AA@ 0000000180238650     FreeType:cff.obj
 0003:00025660       ??_C@_08CFFGEPO@FDSelect?$AA@ 0000000180238660     FreeType:cff.obj
 0003:00025670       ??_C@_0BD@BGHMBBEO@ForceBoldThreshold?$AA@ 0000000180238670     FreeType:cff.obj
 0003:00025688       ??_C@_0BC@CKOEOLCM@initialRandomSeed?$AA@ 0000000180238688     FreeType:cff.obj
 0003:000256a0       ??_C@_0O@JDBOOHI@defaultWidthX?$AA@ 00000001802386a0     FreeType:cff.obj
 0003:000256b0       ??_C@_0O@KLFHKAFI@nominalWidthX?$AA@ 00000001802386b0     FreeType:cff.obj
 0003:00028350       ??_C@_0FC@OFHNCJKC@d?3?2dev?2visual?5studio?52015?2projec@ 000000018023b350     FreeType:cff.obj
 0003:000283b8       ??_C@_0CA@KCMFKLHB@cff_glyph_load?3?5glyph?5index?5?$CFd?6?$AA@ 000000018023b3b8     FreeType:cff.obj
 0003:000283e0       ??_C@_0CI@KABOCENH@?5?5idx?5?$CFd?3?5advance?5height?5?$CFd?5font@ 000000018023b3e0     FreeType:cff.obj
 0003:00028410       ??_C@_0CH@NPJOBBI@?5?5idx?5?$CFd?3?5advance?5width?5?$CFd?5font?5@ 000000018023b410     FreeType:cff.obj
 0003:00028440       ??_C@_0HB@NJOCEPIM@cff_get_glyph_name?3?5cannot?5get?5g@ 000000018023b440     FreeType:cff.obj
 0003:000284c8       ??_C@_0DD@IOKAALAE@cff_get_ros?3?5too?5large?5supplemen@ 000000018023b4c8     FreeType:cff.obj
 0003:00028508       ??_C@_0P@DGAAAJJA@hinting?9engine?$AA@ 000000018023b508     FreeType:cff.obj
 0003:0002851c       ??_C@_05NBLLDENH@adobe?$AA@ 000000018023b51c     FreeType:cff.obj
 0003:00028528       ??_C@_0CJ@ILDIEHLM@cff_property_set?3?5missing?5proper@ 000000018023b528     FreeType:cff.obj
 0003:00028560       ??_C@_0CJ@JGLAGCBI@cff_property_get?3?5missing?5proper@ 000000018023b560     FreeType:cff.obj
 0003:00028598       ??_C@_0BD@FHMLGBOP@?$CB?$CB?$CBEND?5OF?5DATA?3?$CB?$CB?$CB?$AA@ 000000018023b598     FreeType:cff.obj
 0003:000285b0       ??_C@_0BA@KOHOLLIM@?$CB?$CB?$CBOVERFLOW?3?$CB?$CB?$CB?$AA@ 000000018023b5b0     FreeType:cff.obj
 0003:000285c8       ??_C@_0BB@OMFJGOGF@?$CB?$CB?$CBUNDERFLOW?3?$CB?$CB?$CB?$AA@ 000000018023b5c8     FreeType:cff.obj
 0003:000285e0       ??_C@_0FC@CHIFICCO@d?3?2dev?2visual?5studio?52015?2projec@ 000000018023b5e0     FreeType:cff.obj
 0003:00028650       ??_C@_0HF@GJMCMIOB@cff_parse_font_matrix?3?5strange?5s@ 000000018023b650     FreeType:cff.obj
 0003:000286e0       ??_C@_0BG@BNEAPFAC@?5?$FL?$CFf?5?$CFf?5?$CFf?5?$CFf?5?$CFf?5?$CFf?$FN?6?$AA@ 000000018023b6e0     FreeType:cff.obj
 0003:00028700       ??_C@_0BA@IMLBGBBJ@?5?$FL?$CFd?5?$CFd?5?$CFd?5?$CFd?$FN?6?$AA@ 000000018023b700     FreeType:cff.obj
 0003:00028718       ??_C@_0DB@CLNNKLMO@cff_parse_private_dict?3?5Invalid?5@ 000000018023b718     FreeType:cff.obj
 0003:00028758       ??_C@_0DD@JIMHJAGB@cff_parse_private_dict?3?5Invalid?5@ 000000018023b758     FreeType:cff.obj
 0003:00028798       ??_C@_09HFPCLGAF@?5?$CFlu?5?$CFlu?6?$AA@ 000000018023b798     FreeType:cff.obj
 0003:000287b0       ??_C@_0EL@JDCPHBMF@Multiple?5Master?5CFFs?5not?5support@ 000000018023b7b0     FreeType:cff.obj
 0003:00028810       ??_C@_0DJ@HEIGFNPL@?5?$CInot?5supported?5yet?0?5handling?5fi@ 000000018023b810     FreeType:cff.obj
 0003:00028858       ??_C@_0DG@IDPNABFK@cff_parse_multiple_master?3?5Inval@ 000000018023b858     FreeType:cff.obj
 0003:00028898       ??_C@_0CP@NECNKDDM@cff_parse_cid_ros?3?5real?5suppleme@ 000000018023b898     FreeType:cff.obj
 0003:000288d0       ??_C@_0DE@NALBOPNG@cff_parse_cid_ros?3?5negative?5supp@ 000000018023b8d0     FreeType:cff.obj
 0003:00028910       ??_C@_0L@KOJFBLKH@?5?$CFd?5?$CFd?5?$CFd?6?$AA@ 000000018023b910     FreeType:cff.obj
 0003:00028920       ??_C@_04GCLKCGOG@?5?5?$CFs?$AA@ 000000018023b920     FreeType:cff.obj
 0003:00028928       ??_C@_04MDKIEGGJ@?5?$CFs?6?$AA@ 000000018023b928     FreeType:cff.obj
 0003:00028930       ??_C@_0M@KCFMPKOI@?5?$CFld?5?$CISID?$CJ?6?$AA@ 000000018023b930     FreeType:cff.obj
 0003:00028940       ??_C@_05IEHBDIND@?5?$CFld?6?$AA@ 000000018023b940     FreeType:cff.obj
 0003:00028948       ??_C@_04NJEFCHPC@?5?$CFf?6?$AA@ 000000018023b948     FreeType:cff.obj
 0003:00028950       ??_C@_02GBLMOEJC@?5?$FL?$AA@ 000000018023b950     FreeType:cff.obj
 0003:00028954       ??_C@_04CPKMOEAN@?5?$CFld?$AA@ 000000018023b954     FreeType:cff.obj
 0003:00028960       ??_C@_0FB@BKJKPCEE@d?3?2dev?2visual?5studio?52015?2projec@ 000000018023b960     FreeType:cff.obj
 0003:000289d0       ??_C@_0ED@DAPLMPOB@cff_index_get_pointers?3?5invalid?5@ 000000018023b9d0     FreeType:cff.obj
 0003:00028a20       ??_C@_0FE@ENEMOHLP@cff_index_access_element?3?5offset@ 000000018023ba20     FreeType:cff.obj
 0003:00028a88       ??_C@_0CK@BANGCJMB@CFF_Load_FD_Select?3?5empty?5FDSele@ 000000018023ba88     FreeType:cff.obj
 0003:00028ac0       ??_C@_0DM@GENJHLB@cff_charset_load?3?5invalid?5SID?5ra@ 000000018023bac0     FreeType:cff.obj
 0003:00028b08       ??_C@_0CI@EOOPAJJE@cff_charset_load?3?5invalid?5table?5@ 000000018023bb08     FreeType:cff.obj
 0003:00028b40       ??_C@_0FF@GKAPBCNH@cff_charset_load?3?5implicit?5chars@ 000000018023bb40     FreeType:cff.obj
 0003:00028bb0       ??_C@_0FC@PKBNJFNM@cff_charset_load?3?5implicit?5chars@ 000000018023bbb0     FreeType:cff.obj
 0003:00028c20       ??_C@_0FJ@HPFEHAJC@cff_charset_load?3?5implicit?5chars@ 000000018023bc20     FreeType:cff.obj
 0003:00028c90       ??_C@_0CJ@IOCHKLEE@cff_encoding_load?3?5invalid?5table@ 000000018023bc90     FreeType:cff.obj
 0003:00028cc8       ??_C@_0BC@EELEKAKH@?5top?5dictionary?3?6?$AA@ 000000018023bcc8     FreeType:cff.obj
 0003:00028ce0       ??_C@_0BG@CJKDMNLC@?5private?5dictionary?3?6?$AA@ 000000018023bce0     FreeType:cff.obj
 0003:00028d00       ??_C@_0BJ@OELAFMEA@?5?5not?5a?5CFF?5font?5header?6?$AA@ 000000018023bd00     FreeType:cff.obj
 0003:00028d20       ??_C@_0DN@LJNNLEPJ@cff_font_load?3?5invalid?5subfont?5i@ 000000018023bd20     FreeType:cff.obj
 0003:00028d70       ??_C@_0FH@CJOCMAHG@cff_font_load?3?5invalid?5CFF?5font?5@ 000000018023bd70     FreeType:cff.obj
 0003:00028dd8       ??_C@_0BD@CCJNIFKF@parsing?5top?9level?6?$AA@ 000000018023bdd8     FreeType:cff.obj
 0003:00028df0       ??_C@_0CP@FMGMLIID@cff_font_load?3?5FD?5array?5too?5larg@ 000000018023bdf0     FreeType:cff.obj
 0003:00028e28       ??_C@_0BE@PDMOIGFG@parsing?5subfont?5?$CFu?6?$AA@ 000000018023be28     FreeType:cff.obj
 0003:00028e40       ??_C@_0CG@PPGJGOEB@cff_font_load?3?5no?5charstrings?5of@ 000000018023be40     FreeType:cff.obj
 0003:00028e70       ??_C@_0CM@MMDJIEMP@cff_face_init?3?5cannot?5access?5?$GAsf@ 000000018023be70     FreeType:cff.obj
 0003:00028eb0       ??_C@_0FB@CNPCKFDA@d?3?2dev?2visual?5studio?52015?2projec@ 000000018023beb0     FreeType:cff.obj
 0003:00028f18       ??_C@_0M@DLCCANED@CFF?5driver?6?$AA@ 000000018023bf18     FreeType:cff.obj
 0003:00028f28       ??_C@_0BM@EHLJIHDG@?5?5not?5an?5OpenType?1CFF?5font?6?$AA@ 000000018023bf28     FreeType:cff.obj
 0003:00028f50       ??_C@_0FI@GMFCILJE@cff_face_init?3?5cannot?5open?5CFF?5?$CG@ 000000018023bf50     FreeType:cff.obj
 0003:00028fbc       ??_C@_05CJOKOPNE@SIDs?6?$AA@ 000000018023bfbc     FreeType:cff.obj
 0003:00028fc8       ??_C@_09PDAEPDPK@?5?5?$CF5d?5?$CFs?6?$AA@ 000000018023bfc8     FreeType:cff.obj
 0003:00028fd4       ??_C@_06LOAMPDJC@?5?5?$CF5d?5?$AA@ 000000018023bfd4     FreeType:cff.obj
 0003:00028fdc       ??_C@_02HAOIJKIC@?$CFc?$AA@ 000000018023bfdc     FreeType:cff.obj
 0003:00028fe0       ??_C@_0DA@MKHDHELB@cff_decoder_prepare?3?5invalid?5CID@ 000000018023bfe0     FreeType:cff.obj
 0003:00029020       ??_C@_0FC@CNPIGJBO@d?3?2dev?2visual?5studio?52015?2projec@ 000000018023c020     FreeType:cff.obj
 0003:00029088       ??_C@_0BC@DFMCOEBB@?5?5in?5subfont?5?$CFd?3?6?$AA@ 000000018023c088     FreeType:cff.obj
 0003:000290a0       ??_C@_0FB@HOGBODGO@d?3?2dev?2visual?5studio?52015?2projec@ 000000018023c0a0     FreeType:cff.obj
 0003:00029110       ??_C@_0FC@GLJBFEI@d?3?2dev?2visual?5studio?52015?2projec@ 000000018023c110     FreeType:cff.obj
 0003:00029178       ??_C@_0CP@GHJMCGOG@cf2_blues_init?3?5ignoring?5negativ@ 000000018023c178     FreeType:cff.obj
 0003:000291b0       ??_C@_0FC@NAKFJPBL@d?3?2dev?2visual?5studio?52015?2projec@ 000000018023c1b0     FreeType:cff.obj
 0003:00029220       ??_C@_0EP@ELNEKBKC@d?3?2dev?2visual?5studio?52015?2projec@ 000000018023c220     FreeType:cff.obj
 0003:00029280       ??_C@_0FC@CHMMOABO@d?3?2dev?2visual?5studio?52015?2projec@ 000000018023c280     FreeType:cff.obj
 0003:000292e8       ??_C@_0CL@DCBEKAKO@cf2_hintmap_insertHint?3?5too?5many@ 000000018023c2e8     FreeType:cff.obj
 0003:00029320       ??_C@_0FC@BBHJKFLN@d?3?2dev?2visual?5studio?52015?2projec@ 000000018023c320     FreeType:cff.obj
 0003:00029388       ??_C@_0N@PPLCOAIJ@?5?$CImaskbytes?3?$AA@ 000000018023c388     FreeType:cff.obj
 0003:00029398       ??_C@_07IADONGEJ@?50x?$CF02X?$AA@ 000000018023c398     FreeType:cff.obj
 0003:000293a4       ??_C@_02MNMNLDAI@?$CJ?6?$AA@ 000000018023c3a4     FreeType:cff.obj
 0003:000293a8       ??_C@_0BC@NIIHAFPM@?5unknown?5op?5?$CI?$CFd?$CJ?6?$AA@ 000000018023c3a8     FreeType:cff.obj
 0003:000293c0       ??_C@_09PDICJHKO@?5hstemhm?6?$AA@ 000000018023c3c0     FreeType:cff.obj
 0003:000293d0       ??_C@_07OMAOMOOK@?5hstem?6?$AA@ 000000018023c3d0     FreeType:cff.obj
 0003:000293e0       ??_C@_0DG@DJOFBKNF@cf2_interpT2CharString?3?5invalid?5@ 000000018023c3e0     FreeType:cff.obj
 0003:00029420       ??_C@_09JHIAAOEN@?5vstemhm?6?$AA@ 000000018023c420     FreeType:cff.obj
 0003:00029430       ??_C@_07NLOPCJHJ@?5vstem?6?$AA@ 000000018023c430     FreeType:cff.obj
 0003:00029440       ??_C@_0DE@FIKDMLEJ@cf2_interpT2CharString?3?5invalid?5@ 000000018023c440     FreeType:cff.obj
 0003:00029480       ??_C@_09DHBBOCNN@?5vmoveto?6?$AA@ 000000018023c480     FreeType:cff.obj
 0003:00029490       ??_C@_09CKACAGID@?5rlineto?6?$AA@ 000000018023c490     FreeType:cff.obj
 0003:000294a0       ??_C@_09BDOMMOGM@?5hlineto?6?$AA@ 000000018023c4a0     FreeType:cff.obj
 0003:000294b0       ??_C@_09HHOOFHIP@?5vlineto?6?$AA@ 000000018023c4b0     FreeType:cff.obj
 0003:000294c0       ??_C@_0N@LLCIPIGM@?5rcurveline?6?$AA@ 000000018023c4c0     FreeType:cff.obj
 0003:000294d0       ??_C@_0M@ODNAPKNF@?5rrcurveto?6?$AA@ 000000018023c4d0     FreeType:cff.obj
 0003:000294e0       ??_C@_0L@JEGIJFM@?5callgsubr?$AA@ 000000018023c4e0     FreeType:cff.obj
 0003:000294f0       ??_C@_09KNGOKOCG@?5callsubr?$AA@ 000000018023c4f0     FreeType:cff.obj
 0003:00029500       ??_C@_0BO@BCDALPAM@?5?$CIidx?5?$CFd?0?5entering?5level?5?$CFd?$CJ?6?$AA@ 000000018023c500     FreeType:cff.obj
 0003:00029528       ??_C@_0BM@GCFJPJHJ@?5return?5?$CIleaving?5level?5?$CFd?$CJ?6?$AA@ 000000018023c528     FreeType:cff.obj
 0003:00029550       ??_C@_0N@GACGFGEK@?5dotsection?6?$AA@ 000000018023c550     FreeType:cff.obj
 0003:00029560       ??_C@_05IDALAONB@?5and?6?$AA@ 000000018023c560     FreeType:cff.obj
 0003:00029568       ??_C@_04DGMDJEAH@?5or?6?$AA@ 000000018023c568     FreeType:cff.obj
 0003:00029570       ??_C@_05KFMBFNBF@?5not?6?$AA@ 000000018023c570     FreeType:cff.obj
 0003:00029578       ??_C@_05NALEAEJM@?5abs?6?$AA@ 000000018023c578     FreeType:cff.obj
 0003:00029580       ??_C@_05OMLGOOLF@?5add?6?$AA@ 000000018023c580     FreeType:cff.obj
 0003:00029588       ??_C@_05BKLOGGBP@?5sub?6?$AA@ 000000018023c588     FreeType:cff.obj
 0003:00029590       ??_C@_05MJJOMOAG@?5div?6?$AA@ 000000018023c590     FreeType:cff.obj
 0003:00029598       ??_C@_05NEBMKAFI@?5neg?6?$AA@ 000000018023c598     FreeType:cff.obj
 0003:000295a0       ??_C@_04FLDIMKDK@?5eq?6?$AA@ 000000018023c5a0     FreeType:cff.obj
 0003:000295a8       ??_C@_06HAACIAHB@?5drop?6?$AA@ 000000018023c5a8     FreeType:cff.obj
 0003:000295b0       ??_C@_05EFLFMDAN@?5put?6?$AA@ 000000018023c5b0     FreeType:cff.obj
 0003:000295b8       ??_C@_05MHGMNPAA@?5get?6?$AA@ 000000018023c5b8     FreeType:cff.obj
 0003:000295c0       ??_C@_08HFEHEBCL@?5ifelse?6?$AA@ 000000018023c5c0     FreeType:cff.obj
 0003:000295d0       ??_C@_08NPFKFAEF@?5random?6?$AA@ 000000018023c5d0     FreeType:cff.obj
 0003:000295e0       ??_C@_0DG@DPAICGPG@cf2_interpT2CharString?3?5operator@ 000000018023c5e0     FreeType:cff.obj
 0003:00029620       ??_C@_05MPPAGCPG@?5mul?6?$AA@ 000000018023c620     FreeType:cff.obj
 0003:00029628       ??_C@_06IMALOPBM@?5sqrt?6?$AA@ 000000018023c628     FreeType:cff.obj
 0003:00029630       ??_C@_05NHNMFKJD@?5dup?6?$AA@ 000000018023c630     FreeType:cff.obj
 0003:00029638       ??_C@_06KJANAGAF@?5exch?6?$AA@ 000000018023c638     FreeType:cff.obj
 0003:00029640       ??_C@_07IPDMCCAC@?5index?6?$AA@ 000000018023c640     FreeType:cff.obj
 0003:0002964c       ??_C@_06DKHEMHDO@?5roll?6?$AA@ 000000018023c64c     FreeType:cff.obj
 0003:00029658       ??_C@_07PFGIOABK@?5hflex?6?$AA@ 000000018023c658     FreeType:cff.obj
 0003:00029664       ??_C@_06IDLELJEF@?5flex?6?$AA@ 000000018023c664     FreeType:cff.obj
 0003:00029670       ??_C@_08CPEGHDGB@?5hflex1?6?$AA@ 000000018023c670     FreeType:cff.obj
 0003:00029680       ??_C@_07NEOEODFN@?5flex1?6?$AA@ 000000018023c680     FreeType:cff.obj
 0003:00029690       ??_C@_0BG@NAMNIKJA@?5unknown?5op?5?$CI12?0?5?$CFd?$CJ?6?$AA@ 000000018023c690     FreeType:cff.obj
 0003:000296b0       ??_C@_09PGGGAPGH@?5endchar?6?$AA@ 000000018023c6b0     FreeType:cff.obj
 0003:000296c0       ??_C@_09JPOMIELM@?5cntrmask?$AA@ 000000018023c6c0     FreeType:cff.obj
 0003:000296d0       ??_C@_09CILDDOF@?5hintmask?$AA@ 000000018023c6d0     FreeType:cff.obj
 0003:000296e0       ??_C@_0CL@DODOLLDE@cf2_interpT2CharString?3?5invalid?5@ 000000018023c6e0     FreeType:cff.obj
 0003:00029718       ??_C@_09GKPNLDNB@?5rmoveto?6?$AA@ 000000018023c718     FreeType:cff.obj
 0003:00029728       ??_C@_09FDBDHLDO@?5hmoveto?6?$AA@ 000000018023c728     FreeType:cff.obj
 0003:00029738       ??_C@_0N@GIBGFFOL@?5rlinecurve?6?$AA@ 000000018023c738     FreeType:cff.obj
 0003:00029748       ??_C@_0M@FKOCCJCN@?5vvcurveto?6?$AA@ 000000018023c748     FreeType:cff.obj
 0003:00029758       ??_C@_0M@JPAFHHLL@?5hhcurveto?6?$AA@ 000000018023c758     FreeType:cff.obj
 0003:00029768       ??_C@_0M@KGGCMGOA@?5hvcurveto?6?$AA@ 000000018023c768     FreeType:cff.obj
 0003:00029778       ??_C@_0M@GDIFJIHG@?5vhcurveto?6?$AA@ 000000018023c778     FreeType:cff.obj
 0003:00029788       ??_C@_05BEBFNOMM@?5?$CF?42f?$AA@ 000000018023c788     FreeType:cff.obj
 0003:00029790       ??_C@_0DK@NNMCKAKM@cf2_interpT2CharString?3?5?5charstr@ 000000018023c790     FreeType:cff.obj
 0003:000297e0       ??_C@_0FB@FNIMMLIN@d?3?2dev?2visual?5studio?52015?2projec@ 000000018023c7e0     FreeType:cff.obj
 0003:00029850       ??_C@_0FC@LGCPLGFK@d?3?2dev?2visual?5studio?52015?2projec@ 000000018023c850     FreeType:cff.obj
 0003:000298b8       __real@408f400000000000    000000018023c8b8     FreeType:cff.obj
 0003:0002a300       t1cid_driver_class         000000018023d300     FreeType:type1cid.obj
 0003:0002a5d8       ??_C@_0L@DDPIBKML@CID?5Type?51?$AA@ 000000018023d5d8     FreeType:type1cid.obj
 0003:0002a5e8       ??_C@_05CNMLIGFM@t1cid?$AA@ 000000018023d5e8     FreeType:type1cid.obj
 0003:0002a5f0       ??_C@_0M@CKCGNNAK@CIDFontName?$AA@ 000000018023d5f0     FreeType:type1cid.obj
 0003:0002a600       ??_C@_08EPBENDNC@Registry?$AA@ 000000018023d600     FreeType:type1cid.obj
 0003:0002a610       ??_C@_08HMKBFHBJ@Ordering?$AA@ 000000018023d610     FreeType:type1cid.obj
 0003:0002a620       ??_C@_0L@EJNILPMC@Supplement?$AA@ 000000018023d620     FreeType:type1cid.obj
 0003:0002a630       ??_C@_0N@LBMCPKAC@CIDMapOffset?$AA@ 000000018023d630     FreeType:type1cid.obj
 0003:0002a640       ??_C@_07NNGKIHHK@FDBytes?$AA@ 000000018023d640     FreeType:type1cid.obj
 0003:0002a650       ??_C@_07BBMAIHOE@GDBytes?$AA@ 000000018023d650     FreeType:type1cid.obj
 0003:0002a660       ??_C@_0O@DKIHOHFK@SubrMapOffset?$AA@ 000000018023d660     FreeType:type1cid.obj
 0003:0002a670       ??_C@_07OJDBLIDF@SDBytes?$AA@ 000000018023d670     FreeType:type1cid.obj
 0003:0002a680       ??_C@_09NKAONILE@SubrCount?$AA@ 000000018023d680     FreeType:type1cid.obj
 0003:0002a690       ??_C@_0BC@HBJENNOG@lenBuildCharArray?$AA@ 000000018023d690     FreeType:type1cid.obj
 0003:0002ae30       ??_C@_0CA@JGHPJJJF@?$CF?$CBPS?9Adobe?93?40?5Resource?9CIDFont?$AA@ 000000018023de30     FreeType:type1cid.obj
 0003:0002ae58       ??_C@_0BI@NIGNLBAO@?5?5not?5a?5CID?9keyed?5font?6?$AA@ 000000018023de58     FreeType:type1cid.obj
 0003:0002ae80       ??_C@_0FC@MOLAPAJI@d?3?2dev?2visual?5studio?52015?2projec@ 000000018023de80     FreeType:type1cid.obj
 0003:0002aee8       ??_C@_09BFOLOCGO@StartData?$AA@ 000000018023dee8     FreeType:type1cid.obj
 0003:0002aef4       ??_C@_06EMLBPOPP@?1sfnts?$AA@ 000000018023def4     FreeType:type1cid.obj
 0003:0002af00       ??_C@_0CO@NAPDPACI@cid_parser_new?3?5no?5?$GAStartData?8?5k@ 000000018023df00     FreeType:type1cid.obj
 0003:0002af38       ??_C@_05NPBNGLLN@?$CIHex?$CJ?$AA@ 000000018023df38     FreeType:type1cid.obj
 0003:0002af40       ??_C@_0CM@ICPFPIHE@cid_parser_new?3?5invalid?5length?5o@ 000000018023df40     FreeType:type1cid.obj
 0003:0002af78       ??_C@_0CN@LHLBALAL@cid_parser_new?3?5cannot?5handle?5Ty@ 000000018023df78     FreeType:type1cid.obj
 0003:0002afb0       ??_C@_0CH@LPCJOMPF@cid_load_keyword?3?5invalid?5use?5of@ 000000018023dfb0     FreeType:type1cid.obj
 0003:0002afe0       ??_C@_0FB@EMENHBEC@d?3?2dev?2visual?5studio?52015?2projec@ 000000018023dfe0     FreeType:type1cid.obj
 0003:0002b048       ??_C@_0CM@ODILPBDG@cid_parse_font_matrix?3?5invalid?5f@ 000000018023e048     FreeType:type1cid.obj
 0003:0002b080       ??_C@_0DA@GDAEAOAK@parse_fd_array?3?5invalid?5number?5o@ 000000018023e080     FreeType:type1cid.obj
 0003:0002b0c0       ??_C@_0DI@KBAPPAHK@parse_fd_array?3?5adjusting?5FDArra@ 000000018023e0c0     FreeType:type1cid.obj
 0003:0002b108       ??_C@_0BC@JBBEDJNJ@?$CFADOBeginFontDict?$AA@ 000000018023e108     FreeType:type1cid.obj
 0003:0002b120       ??_C@_0CK@JNOEOLNE@cid_parse_dict?3?5No?5font?5dictiona@ 000000018023e120     FreeType:type1cid.obj
 0003:0002b158       ??_C@_0CJ@CDNAIFMA@cid_read_subrs?3?5offsets?5are?5not?5@ 000000018023e158     FreeType:type1cid.obj
 0003:0002b190       ??_C@_0CL@FLDCIMJJ@cid_read_subrs?3?5too?5large?5?$GAsubrs@ 000000018023e190     FreeType:type1cid.obj
 0003:0002b1d0       ??_C@_0FF@EOOLPGAO@cid_face_open?3?5adjusting?5length?5@ 000000018023e1d0     FreeType:type1cid.obj
 0003:0002b238       ??_C@_0DG@HKMNBGME@cid_parse_dict?3?5Invalid?5?$GAFDBytes@ 000000018023e238     FreeType:type1cid.obj
 0003:0002b280       ??_C@_0GC@OCAEEICL@cid_parse_dict?3?5Values?5of?5?$GAFDByt@ 000000018023e280     FreeType:type1cid.obj
 0003:0002b2f8       ??_C@_0CJ@PMCMMLOO@cid_parse_dict?3?5Invalid?5?$GASDBytes@ 000000018023e2f8     FreeType:type1cid.obj
 0003:0002b330       ??_C@_0EF@GCCNDEHF@cid_parse_dict?3?5Values?5of?5?$GASDByt@ 000000018023e330     FreeType:type1cid.obj
 0003:0002b388       ??_C@_0CP@FCBPNLAM@cid_parse_dict?3?5Invalid?5?$GASubrMap@ 000000018023e388     FreeType:type1cid.obj
 0003:0002b3c0       ??_C@_0CL@OMBPIPGK@cid_parse_dict?3?5Invalid?5?$GASubrCou@ 000000018023e3c0     FreeType:type1cid.obj
 0003:0002b3f8       ??_C@_0CO@ONLFMGLJ@cid_parse_dict?3?5Invalid?5?$GACIDMapO@ 000000018023e3f8     FreeType:type1cid.obj
 0003:0002b430       ??_C@_0CK@HJLNCKC@cid_parse_dict?3?5Invalid?5?$GACIDCoun@ 000000018023e430     FreeType:type1cid.obj
 0003:0002b468       ??_C@_0CN@JBBCEMJC@cid_face_init?3?5cannot?5access?5?$GAps@ 000000018023e468     FreeType:type1cid.obj
 0003:0002b4a0       ??_C@_0FB@HLCFCGDG@d?3?2dev?2visual?5studio?52015?2projec@ 000000018023e4a0     FreeType:type1cid.obj
 0003:0002b508       ??_C@_0M@KMCPCJLI@CID?5driver?6?$AA@ 000000018023e508     FreeType:type1cid.obj
 0003:0002b518       ??_C@_0CD@OOMDKOJA@cid_face_init?3?5invalid?5face?5inde@ 000000018023e518     FreeType:type1cid.obj
 0003:0002b548       ??_C@_0CA@OICIAGP@cid_load_glyph?3?5glyph?5index?5?$CFd?6?$AA@ 000000018023e548     FreeType:type1cid.obj
 0003:0002b570       ??_C@_0CO@OHCEKKIG@cid_load_glyph?3?5invalid?5glyph?5st@ 000000018023e570     FreeType:type1cid.obj
 0003:0002b5b0       ??_C@_0FC@MEMNBLKI@d?3?2dev?2visual?5studio?52015?2projec@ 000000018023e5b0     FreeType:type1cid.obj
 0003:0002b6a0       pfr_driver_class           000000018023e6a0     FreeType:pfr.obj
 0003:0002b790       pfr_cmap_class_rec         000000018023e790     FreeType:pfr.obj
 0003:0002b8a0       ??_C@_0M@BAGPBJNL@pfr?9metrics?$AA@ 000000018023e8a0     FreeType:pfr.obj
 0003:0002b8b0       ??_C@_03OJCMOBOF@PFR?$AA@  000000018023e8b0     FreeType:pfr.obj
 0003:0002b8b4       ??_C@_03OENHCMJJ@pfr?$AA@  000000018023e8b4     FreeType:pfr.obj
 0003:0002c448       ??_C@_0DC@BKFOBILN@pfr_extra_items_parse?3?5invalid?5e@ 000000018023f448     FreeType:pfr.obj
 0003:0002c490       ??_C@_0FB@DLDPDIEK@d?3?2dev?2visual?5studio?52015?2projec@ 000000018023f490     FreeType:pfr.obj
 0003:0002c4f8       ??_C@_0DF@FDJONKIP@pfr_log_font_count?3?5invalid?5numb@ 000000018023f4f8     FreeType:pfr.obj
 0003:0002c538       ??_C@_0CP@EHKGCINN@pfr_log_font_load?3?5invalid?5logic@ 000000018023f538     FreeType:pfr.obj
 0003:0002c570       ??_C@_0DM@EPPBEFLF@pfr_extra_item_load_bitmap_info?3@ 000000018023f570     FreeType:pfr.obj
 0003:0002c5b8       ??_C@_0DK@LGICJGLE@pfr_extra_item_load_stem_snaps?3?5@ 000000018023f5b8     FreeType:pfr.obj
 0003:0002c600       ??_C@_0EA@IIPIOAFH@pfr_extra_item_load_kerning_pair@ 000000018023f600     FreeType:pfr.obj
 0003:0002c650       ??_C@_0DA@DCDGMNEM@pfr_phy_font_load?3?5invalid?5physi@ 000000018023f650     FreeType:pfr.obj
 0003:0002c690       ??_C@_0FC@MKGBOBND@d?3?2dev?2visual?5studio?52015?2projec@ 000000018023f690     FreeType:pfr.obj
 0003:0002c6f8       ??_C@_0CH@COHDKJKI@pfr_glyph_line_to?3?5invalid?5glyph@ 000000018023f6f8     FreeType:pfr.obj
 0003:0002c728       ??_C@_0M@BKIKKNMJ@?9?5end?5glyph?$AA@ 000000018023f728     FreeType:pfr.obj
 0003:0002c738       ??_C@_0P@KOBPEOJK@?9?5general?5line?$AA@ 000000018023f738     FreeType:pfr.obj
 0003:0002c750       ??_C@_0BB@FDOBGPCE@?9?5move?5to?5inside?$AA@ 000000018023f750     FreeType:pfr.obj
 0003:0002c768       ??_C@_0BC@EDJBFGJO@?9?5move?5to?5outside?$AA@ 000000018023f768     FreeType:pfr.obj
 0003:0002c780       ??_C@_0BL@LGNGKDAN@?9?5horizontal?5line?5to?5cx?4?$CFd?$AA@ 000000018023f780     FreeType:pfr.obj
 0003:0002c7a0       ??_C@_0BJ@DBOJNGOL@?9?5vertical?5line?5to?5cy?4?$CFd?$AA@ 000000018023f7a0     FreeType:pfr.obj
 0003:0002c7c0       ??_C@_0M@MLLIFLFA@?9?5hv?5curve?5?$AA@ 000000018023f7c0     FreeType:pfr.obj
 0003:0002c7d0       ??_C@_0L@OPLFEGIC@?9?5vh?5curve?$AA@ 000000018023f7d0     FreeType:pfr.obj
 0003:0002c7e0       ??_C@_0BA@FIBHMHKO@?9?5general?5curve?$AA@ 000000018023f7e0     FreeType:pfr.obj
 0003:0002c7f4       ??_C@_06GHHMOFJP@?5cx?$CD?$CFd?$AA@ 000000018023f7f4     FreeType:pfr.obj
 0003:0002c7fc       ??_C@_05PPMJACMB@?5x?4?$CFd?$AA@ 000000018023f7fc     FreeType:pfr.obj
 0003:0002c804       ??_C@_06IIBDANPK@?5dx?4?$CFd?$AA@ 000000018023f804     FreeType:pfr.obj
 0003:0002c80c       ??_C@_02LLHJFGPH@?5?$HM?$AA@ 000000018023f80c     FreeType:pfr.obj
 0003:0002c810       ??_C@_06FKBMMMCP@?5cy?$CD?$CFd?$AA@ 000000018023f810     FreeType:pfr.obj
 0003:0002c818       ??_C@_05MCKJCLHB@?5y?4?$CFd?$AA@ 000000018023f818     FreeType:pfr.obj
 0003:0002c820       ??_C@_06LFHDCEEK@?5dy?4?$CFd?$AA@ 000000018023f820     FreeType:pfr.obj
 0003:0002c828       ??_C@_02BINJDKOC@?5?9?$AA@ 000000018023f828     FreeType:pfr.obj
 0003:0002c830       ??_C@_0CL@HFCPKENB@pfr_glyph_load_simple?3?5invalid?5g@ 000000018023f830     FreeType:pfr.obj
 0003:0002c868       ??_C@_0DO@ELFMHDGC@pfr_glyph_load_compound?3?5too?5man@ 000000018023f868     FreeType:pfr.obj
 0003:0002c8b8       ??_C@_0CN@KOEFLHAO@pfr_glyph_load_compound?3?5invalid@ 000000018023f8b8     FreeType:pfr.obj
 0003:0002c8f0       ??_C@_0CP@HHCGFANJ@compound?5glyph?5with?5?$CFd?5elements?5@ 000000018023f8f0     FreeType:pfr.obj
 0003:0002c928       ??_C@_0BA@OKOFJGNE@?5?5subglyph?5?$CFd?3?6?$AA@ 000000018023f928     FreeType:pfr.obj
 0003:0002c940       ??_C@_0CF@BKCBGEIA@end?5compound?5glyph?5with?5?$CFd?5eleme@ 000000018023f940     FreeType:pfr.obj
 0003:0002c970       ??_C@_0BL@KEPACAAP@simple?5glyph?5?$CIoffset?5?$CFlu?$CJ?6?$AA@ 000000018023f970     FreeType:pfr.obj
 0003:0002c990       ??_C@_0FB@FPMECJGA@d?3?2dev?2visual?5studio?52015?2projec@ 000000018023f990     FreeType:pfr.obj
 0003:0002c9f8       ??_C@_0M@GOOBBDNN@PFR?5driver?6?$AA@ 000000018023f9f8     FreeType:pfr.obj
 0003:0002ca08       ??_C@_0BC@OKKBAKDO@?5?5not?5a?5PFR?5font?6?$AA@ 000000018023fa08     FreeType:pfr.obj
 0003:0002ca20       ??_C@_0FB@MFHGPDO@d?3?2dev?2visual?5studio?52015?2projec@ 000000018023fa20     FreeType:pfr.obj
 0003:0002ca88       ??_C@_0CD@EFOCINCJ@pfr_face_init?3?5invalid?5face?5inde@ 000000018023fa88     FreeType:pfr.obj
 0003:0002cab8       ??_C@_0CM@HLIONOE@pfr_face_init?3?5font?5doesn?8t?5cont@ 000000018023fab8     FreeType:pfr.obj
 0003:0002caf0       ??_C@_0BP@KHOOPOBC@pfr_slot_load?3?5glyph?5index?5?$CFd?6?$AA@ 000000018023faf0     FreeType:pfr.obj
 0003:0002cb20       ??_C@_0HO@MJNKLLPI@pfr_lookup_bitmap_data?3?5number?5o@ 000000018023fb20     FreeType:pfr.obj
 0003:0002cbc0       ??_C@_0HJ@GCNPCLP@pfr_lookup_bitmap_data?3?5bitmap?5r@ 000000018023fbc0     FreeType:pfr.obj
 0003:0002cc60       ??_C@_0FB@HGFONLON@d?3?2dev?2visual?5studio?52015?2projec@ 000000018023fc60     FreeType:pfr.obj
 0003:0002ccc8       ??_C@_0CN@KEFJHBGC@pfr_load_bitmap_metrics?3?5invalid@ 000000018023fcc8     FreeType:pfr.obj
 0003:0002cd00       ??_C@_0CK@JIJKJCFM@pfr_slot_load_bitmap?3?5invalid?5im@ 000000018023fd00     FreeType:pfr.obj
 0003:0002cd38       ??_C@_0DB@JBGNCMA@pfr_slot_load_bitmap?3?5invalid?5bi@ 000000018023fd38     FreeType:pfr.obj
 0003:0002cd78       ??_C@_0BG@BLDLGPJM@pfr_slot_load_bitmap?3?$AA@ 000000018023fd78     FreeType:pfr.obj
 0003:0002cd98       ??_C@_0CL@MPABOBKE@huge?5bitmap?5glyph?5?$CFdx?$CFd?5over?5FT_@ 000000018023fd98     FreeType:pfr.obj
 0003:0002d210       t42_driver_class           0000000180240210     FreeType:type42.obj
 0003:0002d3c8       ??_C@_07GJBALKN@Type?542?$AA@ 00000001802403c8     FreeType:type42.obj
 0003:0002d3d4       ??_C@_05FJOKMJFH@sfnts?$AA@ 00000001802403d4     FreeType:type42.obj
 0003:0002d9b8       ??_C@_0CK@JKHMFEOJ@T42_Open_Face?3?5cannot?5handle?5Fon@ 00000001802409b8     FreeType:type42.obj
 0003:0002d9f0       ??_C@_0FE@JBEHJJII@d?3?2dev?2visual?5studio?52015?2projec@ 00000001802409f0     FreeType:type42.obj
 0003:0002da58       ??_C@_0CN@MCPPGLNG@T42_Open_Face?3?5no?5charstrings?5ar@ 0000000180240a58     FreeType:type42.obj
 0003:0002da90       ??_C@_0CN@MAKIMJMP@T42_Face_Init?3?5cannot?5access?5?$GAps@ 0000000180240a90     FreeType:type42.obj
 0003:0002dac8       ??_C@_0BA@DPJJGDHJ@Type?542?5driver?6?$AA@ 0000000180240ac8     FreeType:type42.obj
 0003:0002dae0       ??_C@_0CD@PBHBCFME@T42_Face_Init?3?5invalid?5face?5inde@ 0000000180240ae0     FreeType:type42.obj
 0003:0002db10       ??_C@_0DC@FAIOLLMM@T42_Driver_Init?3?5cannot?5access?5?$GA@ 0000000180240b10     FreeType:type42.obj
 0003:0002db50       ??_C@_0CE@JMNGIHJE@T42_GlyphSlot_Load?3?5glyph?5index?5@ 0000000180240b50     FreeType:type42.obj
 0003:0002db80       ??_C@_0BC@IJJLOJBO@?$CF?$CBPS?9TrueTypeFont?$AA@ 0000000180240b80     FreeType:type42.obj
 0003:0002db98       ??_C@_0BF@JODNPIMN@?5?5not?5a?5Type42?5font?6?$AA@ 0000000180240b98     FreeType:type42.obj
 0003:0002dbc0       ??_C@_0FF@OCIDAMKM@d?3?2dev?2visual?5studio?52015?2projec@ 0000000180240bc0     FreeType:type42.obj
 0003:0002dc28       ??_C@_0CM@GPBFAAKL@t42_parse_font_matrix?3?5invalid?5f@ 0000000180240c28     FreeType:type42.obj
 0003:0002dc60       ??_C@_0CD@GEPNNAKD@t42_parse_encoding?3?5out?5of?5bound@ 0000000180240c60     FreeType:type42.obj
 0003:0002dc90       ??_C@_0DB@JPBEBLBN@t42_parse_encoding?3?5invalid?5enco@ 0000000180240c90     FreeType:type42.obj
 0003:0002dcd0       ??_C@_0DD@OGBHJDN@t42_parse_sfnts?3?5can?8t?5find?5begi@ 0000000180240cd0     FreeType:type42.obj
 0003:0002dd10       ??_C@_0CO@PMKANJDE@t42_parse_sfnts?3?5invalid?5data?5in@ 0000000180240d10     FreeType:type42.obj
 0003:0002dd48       ??_C@_0DM@KBNPAEAA@t42_parse_sfnts?3?5can?8t?5handle?5mi@ 0000000180240d48     FreeType:type42.obj
 0003:0002dd90       ??_C@_0CG@CHKPOLCH@t42_parse_sfnts?3?5invalid?5string?5@ 0000000180240d90     FreeType:type42.obj
 0003:0002ddc0       ??_C@_0CH@NPJNOFME@t42_parse_sfnts?3?5too?5much?5binary@ 0000000180240dc0     FreeType:type42.obj
 0003:0002ddf0       ??_C@_0CB@NDOOGBOD@t42_parse_sfnts?3?5invalid?5string?6@ 0000000180240df0     FreeType:type42.obj
 0003:0002de18       ??_C@_0CG@HLGHJJOG@t42_parse_charstrings?3?5out?5of?5bo@ 0000000180240e18     FreeType:type42.obj
 0003:0002de48       ??_C@_0CO@EAACJHO@t42_parse_encoding?3?5invalid?5numb@ 0000000180240e48     FreeType:type42.obj
 0003:0002de80       ??_C@_0ED@JBBHGPBD@t42_parse_charstrings?3?5adjusting@ 0000000180240e80     FreeType:type42.obj
 0003:0002ded0       ??_C@_0CG@JIJEJPKJ@t42_parse_charstrings?3?5invalid?5t@ 0000000180240ed0     FreeType:type42.obj
 0003:0002df00       ??_C@_0DL@KDMOKHJI@t42_parse_charstrings?3?5only?5one?5@ 0000000180240f00     FreeType:type42.obj
 0003:0002df48       ??_C@_0CK@PFGHLDNE@t42_parse_charstrings?3?5no?5?1?4notd@ 0000000180240f48     FreeType:type42.obj
 0003:0002df7c       ??_C@_05MDIJLHEA@known?$AA@ 0000000180240f7c     FreeType:type42.obj
 0003:0002e0e0       winfnt_driver_class        00000001802410e0     FreeType:winfnt.obj
 0003:0002e2b8       ??_C@_0M@FPCOPFGH@Windows?5FNT?$AA@ 00000001802412b8     FreeType:winfnt.obj
 0003:0002e2c8       ??_C@_08NAMFKPDH@winfonts?$AA@ 00000001802412c8     FreeType:winfnt.obj
 0003:0002e8b8       ??_C@_0BK@ICKIODJD@?5?5not?5a?5Windows?5FNT?5file?6?$AA@ 00000001802418b8     FreeType:winfnt.obj
 0003:0002e8e0       ??_C@_0FF@CPJCFHOB@d?3?2dev?2visual?5studio?52015?2projec@ 00000001802418e0     FreeType:winfnt.obj
 0003:0002e948       ??_C@_0CB@EKJMPNAG@?$FLcan?8t?5handle?5vector?5FNT?5fonts?$FN?6@ 0000000180241948     FreeType:winfnt.obj
 0003:0002e970       ??_C@_0BE@GIKLCEAB@MZ?5signature?5found?6?$AA@ 0000000180241970     FreeType:winfnt.obj
 0003:0002e988       ??_C@_0BE@JHNPMEAP@NE?5signature?5found?6?$AA@ 0000000180241988     FreeType:winfnt.obj
 0003:0002e9a0       ??_C@_0DB@JDBDNJPE@invalid?5alignment?5shift?5count?5fo@ 00000001802419a0     FreeType:winfnt.obj
 0003:0002e9e0       ??_C@_0CN@EJOGEPIK@this?5file?5doesn?8t?5contain?5any?5FN@ 00000001802419e0     FreeType:winfnt.obj
 0003:0002ea18       ??_C@_0BJ@HGIMDOPD@invalid?5number?5of?5faces?6?$AA@ 0000000180241a18     FreeType:winfnt.obj
 0003:0002ea38       ??_C@_0BE@GOOBCEEN@PE?5signature?5found?6?$AA@ 0000000180241a38     FreeType:winfnt.obj
 0003:0002ea50       ??_C@_0IK@JKJLNFFJ@magic?5?$CF04lx?0?5machine?5?$CF02x?0?5numbe@ 0000000180241a50     FreeType:winfnt.obj
 0003:0002eaf8       ??_C@_0CE@LCFMCIAM@this?5file?5has?5an?5invalid?5PE?5head@ 0000000180241af8     FreeType:winfnt.obj
 0003:0002eb28       ??_C@_0CP@OECOELNO@name?5?$CF?48s?0?5va?5?$CF04lx?0?5size?5?$CF04lx?0@ 0000000180241b28     FreeType:winfnt.obj
 0003:0002eb60       ??_C@_0CJ@JJKGIDAB@this?5file?5doesn?8t?5contain?5any?5re@ 0000000180241b60     FreeType:winfnt.obj
 0003:0002eb98       ??_C@_0BO@GLDCMBH@found?5resources?5section?5?$CF?48s?6?$AA@ 0000000180241b98     FreeType:winfnt.obj
 0003:0002ebc0       ??_C@_0DD@JCCODEEE@found?5font?5?$CD?$CFlu?0?5offset?5?$CF04lx?0?5s@ 0000000180241bc0     FreeType:winfnt.obj
 0003:0002ec00       ??_C@_0BJ@CKGBPFLK@font?5?$CD?$CFlu?5load?5error?5?$CFd?6?$AA@ 0000000180241c00     FreeType:winfnt.obj
 0003:0002ec20       ??_C@_0BP@JIBKMFEB@font?5?$CD?$CFlu?5successfully?5loaded?6?$AA@ 0000000180241c20     FreeType:winfnt.obj
 0003:0002ec48       ??_C@_0DB@PCIFMECM@this?5file?5doesn?8t?5contain?5any?5RT@ 0000000180241c48     FreeType:winfnt.obj
 0003:0002ec88       ??_C@_0BE@DOCBHFBI@Windows?5FNT?5driver?6?$AA@ 0000000180241c88     FreeType:winfnt.obj
 0003:0002eca0       ??_C@_0BG@NANLIKGL@invalid?5pixel?5height?6?$AA@ 0000000180241ca0     FreeType:winfnt.obj
 0003:0002ecc0       ??_C@_0CI@KDIJKEBA@use?5pixel_height?5as?5the?5nominal?5@ 0000000180241cc0     FreeType:winfnt.obj
 0003:0002ecf0       ??_C@_0BK@KFCFBMAC@invalid?5number?5of?5glyphs?6?$AA@ 0000000180241cf0     FreeType:winfnt.obj
 0003:0002ed10       ??_C@_0BM@DBMALMDP@invalid?5family?5name?5offset?6?$AA@ 0000000180241d10     FreeType:winfnt.obj
 0003:0002ed38       ??_C@_0M@DFCIIFPB@Bold?5Italic?$AA@ 0000000180241d38     FreeType:winfnt.obj
 0003:0002ed48       ??_C@_06PPMHIBHB@Italic?$AA@ 0000000180241d48     FreeType:winfnt.obj
 0003:0002ed50       ??_C@_0CA@DODFCPFF@FNT_Load_Glyph?3?5glyph?5index?5?$CFd?6?$AA@ 0000000180241d50     FreeType:winfnt.obj
 0003:0002ed78       ??_C@_0BE@CKOHBAHK@invalid?5FNT?5offset?6?$AA@ 0000000180241d78     FreeType:winfnt.obj
 0003:0002ed90       ??_C@_0BG@CNAIIIPE@invalid?5bitmap?5width?6?$AA@ 0000000180241d90     FreeType:winfnt.obj
 0003:0002edb0       pcf_driver_class           0000000180241db0     FreeType:pcf.obj
 0003:0002f0ec       ??_C@_03DDONLALG@bdf?$AA@  00000001802420ec     FreeType:pcf.obj
 0003:0002f0f0       ??_C@_03MBEJPEFL@PCF?$AA@  00000001802420f0     FreeType:pcf.obj
 0003:0002f0f4       ??_C@_03MMLCDJCH@pcf?$AA@  00000001802420f4     FreeType:pcf.obj
 0003:0002f0f8       ??_C@_04GNINHFNB@prop?$AA@ 00000001802420f8     FreeType:pcf.obj
 0003:0002f100       ??_C@_04DHMFFPCA@accl?$AA@ 0000000180242100     FreeType:pcf.obj
 0003:0002f108       ??_C@_05HJLADDIM@mtrcs?$AA@ 0000000180242108     FreeType:pcf.obj
 0003:0002f110       ??_C@_04EDIAEBHE@bmps?$AA@ 0000000180242110     FreeType:pcf.obj
 0003:0002f118       ??_C@_06ELDAEEGH@imtrcs?$AA@ 0000000180242118     FreeType:pcf.obj
 0003:0002f120       ??_C@_03NONKPJJM@enc?$AA@  0000000180242120     FreeType:pcf.obj
 0003:0002f124       ??_C@_06HHIOIDAF@swidth?$AA@ 0000000180242124     FreeType:pcf.obj
 0003:0002f12c       ??_C@_05FLNDGCKL@names?$AA@ 000000018024212c     FreeType:pcf.obj
 0003:0002f134       ??_C@_05PNMAPKLD@accel?$AA@ 0000000180242134     FreeType:pcf.obj
 0003:0002faa0       ??_C@_0FB@NBCODLB@d?3?2dev?2visual?5studio?52015?2projec@ 0000000180242aa0     FreeType:pcf.obj
 0003:0002fb08       ??_C@_0DK@DEBBJEJN@pcf_read_TOC?3?5adjusting?5number?5o@ 0000000180242b08     FreeType:pcf.obj
 0003:0002fb50       ??_C@_01OGPIMHDM@?$DP?$AA@ 0000000180242b50     FreeType:pcf.obj
 0003:0002fb58       ??_C@_0P@HCJPDACA@pcf_read_TOC?3?6?$AA@ 0000000180242b58     FreeType:pcf.obj
 0003:0002fb70       ??_C@_0BJ@GJLGODPG@?5?5number?5of?5tables?3?5?$CFld?6?$AA@ 0000000180242b70     FreeType:pcf.obj
 0003:0002fb90       ??_C@_0EC@ELCFBNEH@?5?5?$CFd?3?5type?$DN?$CFs?0?5format?$DN0x?$CFX?0?5size@ 0000000180242b90     FreeType:pcf.obj
 0003:0002fbe0       ??_C@_0BF@BMLMFMIP@pcf_get_properties?3?6?$AA@ 0000000180242be0     FreeType:pcf.obj
 0003:0002fc00       ??_C@_0BA@OLPHMDDF@?5?5format?5?$DN?5?$CFld?6?$AA@ 0000000180242c00     FreeType:pcf.obj
 0003:0002fc18       ??_C@_0CC@GJMPFJH@?5?5nprop?5?$DN?5?$CFd?5?$CItruncate?5?$CFd?5props?$CJ@ 0000000180242c18     FreeType:pcf.obj
 0003:0002fc40       ??_C@_0BF@GDNOIGOI@?5?5string_size?5?$DN?5?$CFld?6?$AA@ 0000000180242c40     FreeType:pcf.obj
 0003:0002fc5c       ??_C@_05GMKCCDBC@?5?5?$CFs?3?$AA@ 0000000180242c5c     FreeType:pcf.obj
 0003:0002fc64       ??_C@_06BCJMABKO@?5?$GA?$CFs?8?6?$AA@ 0000000180242c64     FreeType:pcf.obj
 0003:0002fc6c       ??_C@_04NKMBPDJM@?5?$CFd?6?$AA@ 0000000180242c6c     FreeType:pcf.obj
 0003:0002fc78       ??_C@_0BC@MNAEHFID@pcf_get_metrics?3?6?$AA@ 0000000180242c78     FreeType:pcf.obj
 0003:0002fc90       ??_C@_0BJ@OBKLIAMH@?5?5number?5of?5metrics?3?5?$CFd?6?$AA@ 0000000180242c90     FreeType:pcf.obj
 0003:0002fcb0       ??_C@_0EG@BDDHEMBN@?5?5idx?5?$CFd?3?5width?$DN?$CFd?0?5lsb?$DN?$CFd?0?5rsb?$DN@ 0000000180242cb0     FreeType:pcf.obj
 0003:0002fd08       ??_C@_0CP@PICKKEH@pcf_get_metrics?3?5invalid?5metrics@ 0000000180242d08     FreeType:pcf.obj
 0003:0002fd40       ??_C@_0BC@IALOFOAC@pcf_get_bitmaps?3?6?$AA@ 0000000180242d40     FreeType:pcf.obj
 0003:0002fd58       ??_C@_0BJ@FMJIFGMG@?5?5number?5of?5bitmaps?3?5?$CFd?6?$AA@ 0000000180242d58     FreeType:pcf.obj
 0003:0002fd78       ??_C@_0CB@PAKFNJJL@?5?5bitmap?5?$CFd?3?5offset?5?$CFld?5?$CI0x?$CFlX?$CJ?6@ 0000000180242d78     FreeType:pcf.obj
 0003:0002fda0       ??_C@_0CE@MMOPKGHL@?5?5padding?5?$CFd?5implies?5a?5size?5of?5?$CF@ 0000000180242da0     FreeType:pcf.obj
 0003:0002fdd0       ??_C@_0CB@LJNKNPOK@?5?5?$CFd?5bitmaps?0?5padding?5index?5?$CFld?6@ 0000000180242dd0     FreeType:pcf.obj
 0003:0002fdf8       ??_C@_0BE@BJJPBJHC@?5?5bitmap?5size?5?$DN?5?$CFd?6?$AA@ 0000000180242df8     FreeType:pcf.obj
 0003:0002fe10       ??_C@_0DM@JHCKNBBM@pcf_get_bitmaps?3?5invalid?5offset?5@ 0000000180242e10     FreeType:pcf.obj
 0003:0002fe58       ??_C@_0BE@ECLFPBAD@pdf_get_encodings?3?6?$AA@ 0000000180242e58     FreeType:pcf.obj
 0003:0002fe70       ??_C@_0DE@OCLLIDHM@?5?5firstCol?5?$CFd?0?5lastCol?5?$CFd?0?5first@ 0000000180242e70     FreeType:pcf.obj
 0003:0002feb0       ??_C@_0BM@NLLOBMOO@?5?5code?5?$CFd?5?$CI0x?$CF04X?$CJ?3?5idx?5?$CFd?6?$AA@ 0000000180242eb0     FreeType:pcf.obj
 0003:0002fed4       ??_C@_05NOFPJGIP@SLANT?$AA@ 0000000180242ed4     FreeType:pcf.obj
 0003:0002fee0       ??_C@_07EGOIFKG@Oblique?$AA@ 0000000180242ee0     FreeType:pcf.obj
 0003:0002fef0       ??_C@_0M@FCJHKPGH@WEIGHT_NAME?$AA@ 0000000180242ef0     FreeType:pcf.obj
 0003:0002ff00       ??_C@_0O@DANCJNNA@SETWIDTH_NAME?$AA@ 0000000180242f00     FreeType:pcf.obj
 0003:0002ff10       ??_C@_0P@BLEODLOA@ADD_STYLE_NAME?$AA@ 0000000180242f10     FreeType:pcf.obj
 0003:0002ff28       ??_C@_0M@FBEHGJKE@FAMILY_NAME?$AA@ 0000000180242f28     FreeType:pcf.obj
 0003:0002ff38       ??_C@_0CA@MHMAJBKG@pcf_load_font?3?5negative?5height?6?$AA@ 0000000180242f38     FreeType:pcf.obj
 0003:0002ff60       ??_C@_0O@KPOPAFON@AVERAGE_WIDTH?$AA@ 0000000180242f60     FreeType:pcf.obj
 0003:0002ff70       ??_C@_0CH@GNOGDMDH@pcf_load_font?3?5negative?5average?5@ 0000000180242f70     FreeType:pcf.obj
 0003:0002ffa0       ??_C@_0L@JCJJGPJF@POINT_SIZE?$AA@ 0000000180242fa0     FreeType:pcf.obj
 0003:0002ffb0       ??_C@_0CE@OKMDGANC@pcf_load_font?3?5negative?5point?5si@ 0000000180242fb0     FreeType:pcf.obj
 0003:0002ffe0       ??_C@_0L@CNGHIHBP@PIXEL_SIZE?$AA@ 0000000180242fe0     FreeType:pcf.obj
 0003:0002fff0       ??_C@_0CE@OHBBPEAE@pcf_load_font?3?5negative?5pixel?5si@ 0000000180242ff0     FreeType:pcf.obj
 0003:00030020       ??_C@_0N@NBDHNJFJ@RESOLUTION_X?$AA@ 0000000180243020     FreeType:pcf.obj
 0003:00030030       ??_C@_0CG@GJGBEHLC@pcf_load_font?3?5negative?5X?5resolu@ 0000000180243030     FreeType:pcf.obj
 0003:00030060       ??_C@_0N@MICMOIBI@RESOLUTION_Y?$AA@ 0000000180243060     FreeType:pcf.obj
 0003:00030070       ??_C@_0CG@PEGOKGME@pcf_load_font?3?5negative?5Y?5resolu@ 0000000180243070     FreeType:pcf.obj
 0003:000300a0       ??_C@_0BB@OHIDJKBJ@CHARSET_REGISTRY?$AA@ 00000001802430a0     FreeType:pcf.obj
 0003:000300b8       ??_C@_0BB@OBJAMPOC@CHARSET_ENCODING?$AA@ 00000001802430b8     FreeType:pcf.obj
 0003:000300d0       ??_C@_0CO@LGKELEDN@pcf_cmap_char_next?3?5charcode?50x?$CF@ 00000001802430d0     FreeType:pcf.obj
 0003:00030108       ??_C@_0M@DBPDJOAN@PCF?5driver?6?$AA@ 0000000180243108     FreeType:pcf.obj
 0003:00030118       ??_C@_0CD@MFEOMOJM@PCF_Face_Init?3?5invalid?5face?5inde@ 0000000180243118     FreeType:pcf.obj
 0003:00030150       ??_C@_0FC@OFPMNLHH@d?3?2dev?2visual?5studio?52015?2projec@ 0000000180243150     FreeType:pcf.obj
 0003:000301b4       ??_C@_05FPAEEJJG@10646?$AA@ 00000001802431b4     FreeType:pcf.obj
 0003:000301bc       ??_C@_04LBDHIBCK@8859?$AA@ 00000001802431bc     FreeType:pcf.obj
 0003:000301c4       ??_C@_01HIHLOKLC@1?$AA@    00000001802431c4     FreeType:pcf.obj
 0003:000301c8       ??_C@_0BC@GAGKIEMM@?5?5not?5a?5PCF?5file?6?$AA@ 00000001802431c8     FreeType:pcf.obj
 0003:000301e0       ??_C@_0CA@CBDNAOGG@PCF_Glyph_Load?3?5glyph?5index?5?$CFd?6?$AA@ 00000001802431e0     FreeType:pcf.obj
 0003:00030208       ??_C@_0CN@MCMMALEK@BIT_ORDER?5?$CFd?5?$DL?5BYTE_ORDER?5?$CFd?5?$DL?5G@ 0000000180243208     FreeType:pcf.obj
 0003:00030240       ??_C@_0BH@DKMPHCLM@pcf_get_bdf_property?3?5?$AA@ 0000000180243240     FreeType:pcf.obj
 0003:00030260       ??_C@_0CF@JIJNIFLI@too?5large?5integer?50x?$CFx?5is?5trunca@ 0000000180243260     FreeType:pcf.obj
 0003:00030310       ps_table_funcs             0000000180243310     FreeType:psaux.obj
 0003:00030330       ps_parser_funcs            0000000180243330     FreeType:psaux.obj
 0003:00030398       t1_decoder_funcs           0000000180243398     FreeType:psaux.obj
 0003:000303b0       t1_builder_funcs           00000001802433b0     FreeType:psaux.obj
 0003:000303f0       t1_cmap_standard_class_rec 00000001802433f0     FreeType:psaux.obj
 0003:00030440       t1_cmap_expert_class_rec   0000000180243440     FreeType:psaux.obj
 0003:00030490       t1_cmap_custom_class_rec   0000000180243490     FreeType:psaux.obj
 0003:000304e0       t1_cmap_unicode_class_rec  00000001802434e0     FreeType:psaux.obj
 0003:00030530       afm_parser_funcs           0000000180243530     FreeType:psaux.obj
 0003:00030548       t1_cmap_classes            0000000180243548     FreeType:psaux.obj
 0003:000305a0       psaux_module_class         00000001802435a0     FreeType:psaux.obj
 0003:000309d8       ??_C@_08NBPEBJDA@Ascender?$AA@ 00000001802439d8     FreeType:psaux.obj
 0003:000309e8       ??_C@_09POOBGNPO@AxisLabel?$AA@ 00000001802439e8     FreeType:psaux.obj
 0003:000309f8       ??_C@_08KLONHBMG@AxisType?$AA@ 00000001802439f8     FreeType:psaux.obj
 0003:00030a04       ??_C@_01HMGJMAIH@B?$AA@    0000000180243a04     FreeType:psaux.obj
 0003:00030a08       ??_C@_01GFHCPBMG@C?$AA@    0000000180243a08     FreeType:psaux.obj
 0003:00030a0c       ??_C@_02KJDGAJLC@CC?$AA@   0000000180243a0c     FreeType:psaux.obj
 0003:00030a10       ??_C@_02EKMCNAHJ@CH?$AA@   0000000180243a10     FreeType:psaux.obj
 0003:00030a18       ??_C@_09JOCJHGEG@CapHeight?$AA@ 0000000180243a18     FreeType:psaux.obj
 0003:00030a28       ??_C@_09CGMEAFLF@CharWidth?$AA@ 0000000180243a28     FreeType:psaux.obj
 0003:00030a38       ??_C@_0N@LHPDLMAH@CharacterSet?$AA@ 0000000180243a38     FreeType:psaux.obj
 0003:00030a48       ??_C@_0L@EMODJLOD@Characters?$AA@ 0000000180243a48     FreeType:psaux.obj
 0003:00030a58       ??_C@_09JMDLBBJN@Descender?$AA@ 0000000180243a58     FreeType:psaux.obj
 0003:00030a68       ??_C@_0P@JNPLONMI@EncodingScheme?$AA@ 0000000180243a68     FreeType:psaux.obj
 0003:00030a80       ??_C@_07DLEALFPL@EndAxis?$AA@ 0000000180243a80     FreeType:psaux.obj
 0003:00030a90       ??_C@_0P@GFNMGKCM@EndCharMetrics?$AA@ 0000000180243a90     FreeType:psaux.obj
 0003:00030aa8       ??_C@_0O@JABMALCH@EndComposites?$AA@ 0000000180243aa8     FreeType:psaux.obj
 0003:00030ab8       ??_C@_0N@FNMEONKF@EndDirection?$AA@ 0000000180243ab8     FreeType:psaux.obj
 0003:00030ac8       ??_C@_0P@FGFFCKLI@EndFontMetrics?$AA@ 0000000180243ac8     FreeType:psaux.obj
 0003:00030ae0       ??_C@_0M@HKHGIIOM@EndKernData?$AA@ 0000000180243ae0     FreeType:psaux.obj
 0003:00030af0       ??_C@_0N@IJIACAAI@EndKernPairs?$AA@ 0000000180243af0     FreeType:psaux.obj
 0003:00030b00       ??_C@_0N@FEBBJBLC@EndTrackKern?$AA@ 0000000180243b00     FreeType:psaux.obj
 0003:00030b10       ??_C@_07BNJNBMEL@EscChar?$AA@ 0000000180243b10     FreeType:psaux.obj
 0003:00030b20       ??_C@_0L@PAHDJIHN@IsBaseFont?$AA@ 0000000180243b20     FreeType:psaux.obj
 0003:00030b30       ??_C@_09OIFAOJEJ@IsCIDFont?$AA@ 0000000180243b30     FreeType:psaux.obj
 0003:00030b40       ??_C@_0N@LNIFJEBO@IsFixedPitch?$AA@ 0000000180243b40     FreeType:psaux.obj
 0003:00030b50       ??_C@_08CHFNODLO@IsFixedV?$AA@ 0000000180243b50     FreeType:psaux.obj
 0003:00030b5c       ??_C@_02MGMKBJJI@KP?$AA@   0000000180243b5c     FreeType:psaux.obj
 0003:00030b60       ??_C@_03MGLCBEGC@KPH?$AA@  0000000180243b60     FreeType:psaux.obj
 0003:00030b64       ??_C@_03IMHAAGDD@KPX?$AA@  0000000180243b64     FreeType:psaux.obj
 0003:00030b68       ??_C@_03JFGLDHHC@KPY?$AA@  0000000180243b68     FreeType:psaux.obj
 0003:00030b6c       ??_C@_01OCOKONAJ@L?$AA@    0000000180243b6c     FreeType:psaux.obj
 0003:00030b70       ??_C@_0O@NDBFHPJC@MappingScheme?$AA@ 0000000180243b70     FreeType:psaux.obj
 0003:00030b80       ??_C@_0M@PGHPLBFB@MetricsSets?$AA@ 0000000180243b80     FreeType:psaux.obj
 0003:00030b90       ??_C@_01NANMIPIL@N?$AA@    0000000180243b90     FreeType:psaux.obj
 0003:00030b94       ??_C@_03LMDOAABO@PCC?$AA@  0000000180243b94     FreeType:psaux.obj
 0003:00030b98       ??_C@_09JMBADFPL@StartAxis?$AA@ 0000000180243b98     FreeType:psaux.obj
 0003:00030ba8       ??_C@_0BB@JDMDJAID@StartCharMetrics?$AA@ 0000000180243ba8     FreeType:psaux.obj
 0003:00030bc0       ??_C@_0BA@DGMAPPPC@StartComposites?$AA@ 0000000180243bc0     FreeType:psaux.obj
 0003:00030bd8       ??_C@_0P@DNGHFPAA@StartDirection?$AA@ 0000000180243bd8     FreeType:psaux.obj
 0003:00030bf0       ??_C@_0BB@KAEKNABH@StartFontMetrics?$AA@ 0000000180243bf0     FreeType:psaux.obj
 0003:00030c08       ??_C@_0O@GJEKPIHD@StartKernData?$AA@ 0000000180243c08     FreeType:psaux.obj
 0003:00030c18       ??_C@_0P@OJCDJCKN@StartKernPairs?$AA@ 0000000180243c18     FreeType:psaux.obj
 0003:00030c30       ??_C@_0BA@HHMIMKDE@StartKernPairs0?$AA@ 0000000180243c30     FreeType:psaux.obj
 0003:00030c48       ??_C@_0BA@GONDPLHF@StartKernPairs1?$AA@ 0000000180243c48     FreeType:psaux.obj
 0003:00030c60       ??_C@_0P@DELCCDBH@StartTrackKern?$AA@ 0000000180243c60     FreeType:psaux.obj
 0003:00030c78       ??_C@_09DJCDMHFC@TrackKern?$AA@ 0000000180243c78     FreeType:psaux.obj
 0003:00030c84       ??_C@_02IEGOIODN@VV?$AA@   0000000180243c84     FreeType:psaux.obj
 0003:00030c88       ??_C@_07HFOFDFIM@VVector?$AA@ 0000000180243c88     FreeType:psaux.obj
 0003:00030c94       ??_C@_01ELNMCGJD@W?$AA@    0000000180243c94     FreeType:psaux.obj
 0003:00030c98       ??_C@_02LGALCICL@W0?$AA@   0000000180243c98     FreeType:psaux.obj
 0003:00030c9c       ??_C@_03NOGICFDE@W0X?$AA@  0000000180243c9c     FreeType:psaux.obj
 0003:00030ca0       ??_C@_03MHHDBEHF@W0Y?$AA@  0000000180243ca0     FreeType:psaux.obj
 0003:00030ca4       ??_C@_02KPBABJGK@W1?$AA@   0000000180243ca4     FreeType:psaux.obj
 0003:00030ca8       ??_C@_03NPKKEPAD@W1X?$AA@  0000000180243ca8     FreeType:psaux.obj
 0003:00030cac       ??_C@_03MGLBHOEC@W1Y?$AA@  0000000180243cac     FreeType:psaux.obj
 0003:00030cb0       ??_C@_02BLCPMJIE@WX?$AA@   0000000180243cb0     FreeType:psaux.obj
 0003:00030cb4       ??_C@_02CDEPIMF@WY?$AA@    0000000180243cb4     FreeType:psaux.obj
 0003:00030cb8       ??_C@_07MIHJBPO@XHeight?$AA@ 0000000180243cb8     FreeType:psaux.obj
 0003:00032018       ??_C@_0BN@GELKHPDM@ps_table_add?3?5invalid?5index?6?$AA@ 0000000180245018     FreeType:psaux.obj
 0003:00032040       ??_C@_0FC@IAFICLDI@d?3?2dev?2visual?5studio?52015?2projec@ 0000000180245040     FreeType:psaux.obj
 0003:000320a8       ??_C@_0CM@NJEEGKFJ@skip_string?3?5missing?5closing?5del@ 00000001802450a8     FreeType:psaux.obj
 0003:000320e0       ??_C@_0DL@OAPJNHO@ps_parser_skip_PS_token?3?5unexpec@ 00000001802450e0     FreeType:psaux.obj
 0003:00032130       ??_C@_0HM@CKKIDGNO@ps_parser_skip_PS_token?3?5current@ 0000000180245130     FreeType:psaux.obj
 0003:000321d0       ??_C@_0GK@EBFPAJAB@ps_parser_load_field?3?5expected?5a@ 00000001802451d0     FreeType:psaux.obj
 0003:00032250       ??_C@_0CM@DDJHLJEN@ps_parser_load_field?3?5overwritin@ 0000000180245250     FreeType:psaux.obj
 0003:00032288       ??_C@_0DO@LOOFCFNL@ps_parser_load_field?3?5expected?5f@ 0000000180245288     FreeType:psaux.obj
 0003:000322d4       ??_C@_05NIGAKFML@first?$AA@ 00000001802452d4     FreeType:psaux.obj
 0003:000322dc       ??_C@_06BJCFNGJP@second?$AA@ 00000001802452dc     FreeType:psaux.obj
 0003:000322e4       ??_C@_05GHAGIHBD@third?$AA@ 00000001802452e4     FreeType:psaux.obj
 0003:000322ec       ??_C@_06HNIPMCFK@fourth?$AA@ 00000001802452ec     FreeType:psaux.obj
 0003:000322f4       ??_C@_01LKDEMHDF@s?$AA@    00000001802452f4     FreeType:psaux.obj
 0003:00032300       ??_C@_0HM@KKBKAHFP@ps_parser_load_field?3?5expected?5?$CF@ 0000000180245300     FreeType:psaux.obj
 0003:00032398       ??_C@_0DE@COKEPDPO@ps_parser_to_bytes?3?5Missing?5star@ 0000000180245398     FreeType:psaux.obj
 0003:000323d8       ??_C@_0DD@BGGGJIHK@ps_parser_to_bytes?3?5Missing?5clos@ 00000001802453d8     FreeType:psaux.obj
 0003:00032418       ??_C@_0DF@IFLONPMO@t1_builder_add_contour?3?5no?5outli@ 0000000180245418     FreeType:psaux.obj
 0003:00032458       ??_C@_0CG@POJNIAJI@t1operator_seac?3?5invalid?5nested?5@ 0000000180245458     FreeType:psaux.obj
 0003:00032490       ??_C@_0FE@LDICDNLB@d?3?2dev?2visual?5studio?52015?2projec@ 0000000180245490     FreeType:psaux.obj
 0003:000324f8       ??_C@_0CC@NODANDOE@t1operator_seac?3?5unexpected?5seac@ 00000001802454f8     FreeType:psaux.obj
 0003:00032520       ??_C@_0DP@GFLBMBEI@t1operator_seac?3?5glyph?5names?5tab@ 0000000180245520     FreeType:psaux.obj
 0003:00032570       ??_C@_0DI@GBBODPEO@t1operator_seac?3?5invalid?5seac?5ch@ 0000000180245570     FreeType:psaux.obj
 0003:000325b8       ??_C@_0BD@JJKNBGPI@?6Start?5charstring?6?$AA@ 00000001802455b8     FreeType:psaux.obj
 0003:000325d0       ??_C@_05CEFEJMLE@?5?$CI?$CFd?$CJ?$AA@ 00000001802455d0     FreeType:psaux.obj
 0003:000325d8       ??_C@_0DH@IGJNCNMJ@t1_decoder_parse_charstrings?3?5in@ 00000001802455d8     FreeType:psaux.obj
 0003:00032620       ??_C@_0DG@LNAJFAMA@t1_decoder_parse_charstrings?3?5in@ 0000000180245620     FreeType:psaux.obj
 0003:00032660       ??_C@_0DJ@OLDOMFEO@t1_decoder_parse_charstrings?3?5un@ 0000000180245660     FreeType:psaux.obj
 0003:000326a8       ??_C@_0DM@OMJDEAMG@t1_decoder_parse_charstrings?3?5no@ 00000001802456a8     FreeType:psaux.obj
 0003:000326f0       ??_C@_0DB@GEFAPPII@t1_decoder_parse_charstrings?3?5in@ 00000001802456f0     FreeType:psaux.obj
 0003:00032730       ??_C@_0CO@KOBFIAOA@t1_decoder_parse_charstrings?3?5st@ 0000000180245730     FreeType:psaux.obj
 0003:00032768       ??_C@_0BA@EHADLMKP@?5callothersubr?6?$AA@ 0000000180245768     FreeType:psaux.obj
 0003:00032780       ??_C@_0DD@EINJFADG@t1_decoder_parse_charstrings?3?5un@ 0000000180245780     FreeType:psaux.obj
 0003:000327c0       ??_C@_0DC@ICFCHEGP@t1_decoder_parse_charstrings?3?5mi@ 00000001802457c0     FreeType:psaux.obj
 0003:00032800       ??_C@_0EE@MAABODPO@t1_decoder_parse_charstrings?3?5un@ 0000000180245800     FreeType:psaux.obj
 0003:00032860       ??_C@_0EO@PEGLJDKI@t1_decoder_parse_charstrings?3?5in@ 0000000180245860     FreeType:psaux.obj
 0003:000328c0       ??_C@_0EH@GAEHKPOM@t1_decoder_parse_charstrings?3?5un@ 00000001802458c0     FreeType:psaux.obj
 0003:00032918       ??_C@_0DJ@IFEMBGPG@t1_decoder_parse_charstrings?3?5in@ 0000000180245918     FreeType:psaux.obj
 0003:00032960       ??_C@_0FF@LAKOBLEN@t1_decoder_parse_charstrings?3?5to@ 0000000180245960     FreeType:psaux.obj
 0003:000329c8       ??_C@_0BE@HHNHFCOF@BuildCharArray?5?$DN?5?$FL?5?$AA@ 00000001802459c8     FreeType:psaux.obj
 0003:000329e0       ??_C@_03JDANDILB@?$CFd?5?$AA@ 00000001802459e0     FreeType:psaux.obj
 0003:000329e4       ??_C@_05LCHEJIOL@?5hsbw?$AA@ 00000001802459e4     FreeType:psaux.obj
 0003:000329ec       ??_C@_04KKLLNIOL@?5sbw?$AA@ 00000001802459ec     FreeType:psaux.obj
 0003:000329f8       ??_C@_0L@JKIFLLMF@?5closepath?$AA@ 00000001802459f8     FreeType:psaux.obj
 0003:00032a08       ??_C@_08GAIDNDAG@?5hlineto?$AA@ 0000000180245a08     FreeType:psaux.obj
 0003:00032a18       ??_C@_08EADNOHOM@?5hmoveto?$AA@ 0000000180245a18     FreeType:psaux.obj
 0003:00032a28       ??_C@_0L@DOEEGOLL@?5hvcurveto?$AA@ 0000000180245a28     FreeType:psaux.obj
 0003:00032a38       ??_C@_08INPIPOOF@?5rlineto?$AA@ 0000000180245a38     FreeType:psaux.obj
 0003:00032a48       ??_C@_08KNEGMKAP@?5rmoveto?$AA@ 0000000180245a48     FreeType:psaux.obj
 0003:00032a58       ??_C@_0L@FDCECOJG@?5rrcurveto?$AA@ 0000000180245a58     FreeType:psaux.obj
 0003:00032a68       ??_C@_0L@GDCBEGAD@?5vhcurveto?$AA@ 0000000180245a68     FreeType:psaux.obj
 0003:00032a78       ??_C@_08JLCPABP@?5vlineto?$AA@ 0000000180245a78     FreeType:psaux.obj
 0003:00032a88       ??_C@_08CJAMMEPF@?5vmoveto?$AA@ 0000000180245a88     FreeType:psaux.obj
 0003:00032a94       ??_C@_04HCDLGJGN@?5div?$AA@ 0000000180245a94     FreeType:psaux.obj
 0003:00032aa0       ??_C@_0DD@OINDMPPL@t1_decoder_parse_charstrings?3?5in@ 0000000180245aa0     FreeType:psaux.obj
 0003:00032ae0       ??_C@_0DF@HCNFGFJA@t1_decoder_parse_charstrings?3?5to@ 0000000180245ae0     FreeType:psaux.obj
 0003:00032b20       ??_C@_0DE@IHCGNKEN@t1_decoder_parse_charstrings?3?5in@ 0000000180245b20     FreeType:psaux.obj
 0003:00032b60       ??_C@_04PPJHHCJB@?5pop?$AA@ 0000000180245b60     FreeType:psaux.obj
 0003:00032b68       ??_C@_0DO@KNDLOCKM@t1_decoder_parse_charstrings?3?5no@ 0000000180245b68     FreeType:psaux.obj
 0003:00032bb8       ??_C@_07LMNNPBJN@?5return?$AA@ 0000000180245bb8     FreeType:psaux.obj
 0003:00032bc8       ??_C@_0DB@HGEABPPN@t1_decoder_parse_charstrings?3?5un@ 0000000180245bc8     FreeType:psaux.obj
 0003:00032c08       ??_C@_0M@HGANHGIB@?5dotsection?$AA@ 0000000180245c08     FreeType:psaux.obj
 0003:00032c18       ??_C@_06INOJCFNP@?5hstem?$AA@ 0000000180245c18     FreeType:psaux.obj
 0003:00032c20       ??_C@_07OCIKEDFA@?5hstem3?$AA@ 0000000180245c20     FreeType:psaux.obj
 0003:00032c2c       ??_C@_06LEDFEGDE@?5vstem?$AA@ 0000000180245c2c     FreeType:psaux.obj
 0003:00032c38       ??_C@_07NFGLKEMD@?5vstem3?$AA@ 0000000180245c38     FreeType:psaux.obj
 0003:00032c48       ??_C@_0BB@KDIDIPNA@?5setcurrentpoint?$AA@ 0000000180245c48     FreeType:psaux.obj
 0003:00032c60       ??_C@_0L@DHHACBCM@?5opcode_15?$AA@ 0000000180245c60     FreeType:psaux.obj
 0003:00032c70       ??_C@_0DD@BCBNJFPE@t1_decoder_parse_charstrings?3?5un@ 0000000180245c70     FreeType:psaux.obj
 0003:00032cb0       ??_C@_09BOFBANME@?4?4end?4?4?6?6?$AA@ 0000000180245cb0     FreeType:psaux.obj
 0003:00032cc0       ??_C@_0DI@FLHHPBJB@t1_decoder_init?3?5the?5?$GApsnames?8?5m@ 0000000180245cc0     FreeType:psaux.obj
 0003:00032d10       ??_C@_0FC@OFJPPJPK@d?3?2dev?2visual?5studio?52015?2projec@ 0000000180245d10     FreeType:psaux.obj
 0003:00032d80       ??_C@_0FE@FFAEAKOD@d?3?2dev?2visual?5studio?52015?2projec@ 0000000180245d80     FreeType:psaux.obj
 0003:00032de8       ??_C@_0BE@DDNPCMFO@?$CB?$CB?$CBINVALID?5BASE?3?$CB?$CB?$CB?$AA@ 0000000180245de8     FreeType:psaux.obj
 0003:00032e00       psnames_module_class       0000000180245e00     FreeType:psmodule.obj
 0003:00045248       ??_C@_07POODEHEH@psnames?$AA@ 0000000180258248     FreeType:psmodule.obj
 0003:000453a0       ??_C@_0FG@GMBJEILM@d?3?2dev?2visual?5studio?52015?2projec@ 00000001802583a0     FreeType:psmodule.obj
 0003:00045420       pshinter_module_class      0000000180258420     FreeType:pshinter.obj
 0003:00045e08       ??_C@_0DH@CPJKBLHK@ps_mask_table_merge?3?5ignoring?5in@ 0000000180258e08     FreeType:pshinter.obj
 0003:00045e50       ??_C@_0CM@KHLDNAGM@ps_hints_stem?3?5invalid?5dimension@ 0000000180258e50     FreeType:pshinter.obj
 0003:00045e88       ??_C@_0DK@GKNKPEKG@ps_hints_stem?3?5could?5not?5add?5ste@ 0000000180258e88     FreeType:pshinter.obj
 0003:00045ed0       ??_C@_0CP@FMBBOBED@ps_hints_t1stem3?3?5invalid?5dimens@ 0000000180258ed0     FreeType:pshinter.obj
 0003:00045f08       ??_C@_0DB@GCDGEBGC@ps_hints_t1stem3?3?5called?5with?5in@ 0000000180258f08     FreeType:pshinter.obj
 0003:00045f50       ??_C@_0FF@GBCPIFKL@d?3?2dev?2visual?5studio?52015?2projec@ 0000000180258f50     FreeType:pshinter.obj
 0003:00045fb8       ??_C@_0DI@DMIKENBL@ps_hints_t1stem3?3?5could?5not?5add?5@ 0000000180258fb8     FreeType:pshinter.obj
 0003:00046000       ??_C@_0EC@MEDNBIJC@ps_hints_t2mask?3?5called?5with?5inv@ 0000000180259000     FreeType:pshinter.obj
 0003:00046050       ??_C@_0EF@HAEHOBPD@ps_hints_t2counter?3?5called?5with?5@ 0000000180259050     FreeType:pshinter.obj
 0003:000460a8       ??_C@_0CO@JKPANHOK@psh_hint_table_record?3?5invalid?5h@ 00000001802590a8     FreeType:pshinter.obj
 0003:000460e0       ??_C@_0DF@NFHOHEHE@psh_hint_table_record?3?5too?5many?5@ 00000001802590e0     FreeType:pshinter.obj
 0003:00046120       ??_C@_0DD@DBNEHGNP@psh_hint_table_init?3?5missing?1inc@ 0000000180259120     FreeType:pshinter.obj
 0003:00046160       ??_C@_0DE@KDCBFKMG@psh_hint_tableactivate_mask?3?5too@ 0000000180259160     FreeType:pshinter.obj
 0003:000461a0       ??_C@_07EFFNHEPH@raster1?$AA@ 00000001802591a0     FreeType:raster.obj
 0003:000461b0       ft_standard_raster         00000001802591b0     FreeType:raster.obj
 0003:000461e0       ft_raster1_renderer_class  00000001802591e0     FreeType:raster.obj
 0003:00046880       ??_C@_0BI@MGIFCGPI@Set_High_Precision?$CI?$CFs?$CJ?6?$AA@ 0000000180259880     FreeType:raster.obj
 0003:000468a0       ??_C@_0FF@MMLDAGDJ@d?3?2dev?2visual?5studio?52015?2projec@ 00000001802598a0     FreeType:raster.obj
 0003:00046908       ??_C@_0BO@DINLEIBM@?5?5new?5ascending?5profile?5?$DN?5?$CFp?6?$AA@ 0000000180259908     FreeType:raster.obj
 0003:00046930       ??_C@_0BP@MJGJHKM@?5?5new?5descending?5profile?5?$DN?5?$CFp?6?$AA@ 0000000180259930     FreeType:raster.obj
 0003:00046958       ??_C@_0CI@BGPDJEGO@New_Profile?3?5invalid?5profile?5dir@ 0000000180259958     FreeType:raster.obj
 0003:00046988       ??_C@_0CK@CFDFDNDC@End_Profile?3?5negative?5height?5enc@ 0000000180259988     FreeType:raster.obj
 0003:000469c0       ??_C@_0DA@FLIKLCED@?5?5ending?5profile?5?$CFp?0?5start?5?$DN?5?$CFld@ 00000001802599c0     FreeType:raster.obj
 0003:00046a00       ??_C@_0BJ@NHAHLGCP@overflow?5in?5End_Profile?6?$AA@ 0000000180259a00     FreeType:raster.obj
 0003:00046a20       ??_C@_0CE@DFHCMDKI@?5?5y?$DN?$CFd?5x?$DN?$FL?$CF?412f?$DL?$CF?412f?$FN?0?5drop?9out@ 0000000180259a20     FreeType:raster.obj
 0003:00046a50       ??_C@_0O@FBGMHPNG@?5?9?$DO?5x?$DN?$FL?$CFd?$DL?$CFd?$FN?$AA@ 0000000180259a50     FreeType:raster.obj
 0003:00046a60       ??_C@_0BH@PPOIFHIB@?5?5y?$DN?$CFd?5x?$DN?$FL?$CF?412f?$DL?$CF?412f?$FN?$AA@ 0000000180259a60     FreeType:raster.obj
 0003:00046a80       ??_C@_0O@FCJIJPHH@?0?5drop?9out?$DN?$CFd?$AA@ 0000000180259a80     FreeType:raster.obj
 0003:00046a90       ??_C@_0BE@IINICOEN@?5?9?$DO?5x?$DN?$CFd?5?$CIdrop?9out?$CJ?$AA@ 0000000180259a90     FreeType:raster.obj
 0003:00046aa8       ??_C@_0BH@MOFKEFIO@?5?5x?$DN?$CFd?5y?$DN?$FL?$CF?412f?$DL?$CF?412f?$FN?$AA@ 0000000180259aa8     FreeType:raster.obj
 0003:00046ac8       ??_C@_0BE@CGLALPNM@?5?9?$DO?5y?$DN?$CFd?5?$CIdrop?9out?$CJ?$AA@ 0000000180259ac8     FreeType:raster.obj
 0003:00046ae0       ??_C@_0N@OLFABDNE@?0?5dropout?$DN?$CFd?$AA@ 0000000180259ae0     FreeType:raster.obj
 0003:00046af0       ??_C@_0BK@OEEGKNP@Vertical?5pass?5?$CIftraster?$CJ?6?$AA@ 0000000180259af0     FreeType:raster.obj
 0003:00046b10       ??_C@_0BM@NPBLPECB@Horizontal?5pass?5?$CIftraster?$CJ?6?$AA@ 0000000180259b10     FreeType:raster.obj
 0003:00046b40       ??_C@_0FE@CEDDEAOL@d?3?2dev?2visual?5studio?52015?2projec@ 0000000180259b40     FreeType:raster.obj
 0003:00046c48       sfnt_module_class          0000000180259c48     FreeType:sfnt.obj
 0003:00046c80       tt_cmap12_class_rec        0000000180259c80     FreeType:sfnt.obj
 0003:00046d00       tt_cmap14_class_rec        0000000180259d00     FreeType:sfnt.obj
 0003:00046de0       tt_cmap4_class_rec         0000000180259de0     FreeType:sfnt.obj
 0003:00046ea0       tt_cmap0_class_rec         0000000180259ea0     FreeType:sfnt.obj
 0003:00046f40       tt_cmap6_class_rec         0000000180259f40     FreeType:sfnt.obj
 0003:00046fc0       tt_cmap13_class_rec        0000000180259fc0     FreeType:sfnt.obj
 0003:00047250       tt_cmap2_class_rec         000000018025a250     FreeType:sfnt.obj
 0003:000472c0       tt_cmap8_class_rec         000000018025a2c0     FreeType:sfnt.obj
 0003:000473a0       tt_cmap10_class_rec        000000018025a3a0     FreeType:sfnt.obj
 0003:00048be8       ??_C@_0CL@MFKLBIHA@tt_face_lookup_table?3?5?$CF08p?0?5?$GA?$CFc?$CF@ 000000018025bbe8     FreeType:sfnt.obj
 0003:00048c20       ??_C@_0O@EPIPEIMI@found?5table?4?6?$AA@ 000000018025bc20     FreeType:sfnt.obj
 0003:00048c30       ??_C@_0BG@IAJDEAEF@ignoring?5empty?5table?6?$AA@ 000000018025bc30     FreeType:sfnt.obj
 0003:00048c50       ??_C@_0BG@MHBJFBAN@could?5not?5find?5table?6?$AA@ 000000018025bc50     FreeType:sfnt.obj
 0003:00048c70       ??_C@_0FB@GDCLFDFA@d?3?2dev?2visual?5studio?52015?2projec@ 000000018025bc70     FreeType:sfnt.obj
 0003:00048ce0       ??_C@_0ED@EPOGLPMF@check_table_dir?3?5can?5read?5only?5?$CF@ 000000018025bce0     FreeType:sfnt.obj
 0003:00048d30       ??_C@_0CJ@FLLNGMPK@check_table_dir?3?5table?5entry?5?$CFd?5@ 000000018025bd30     FreeType:sfnt.obj
 0003:00048d68       ??_C@_0DD@KDFLLBIO@check_table_dir?3?5?$GAhead?8?5or?5?$GAbhed@ 000000018025bd68     FreeType:sfnt.obj
 0003:00048db0       ??_C@_0EB@HACBCHIK@check_table_dir?3?5invalid?5magic?5n@ 000000018025bdb0     FreeType:sfnt.obj
 0003:00048e00       ??_C@_0CI@HPBLKFJ@check_table_dir?3?5no?5valid?5tables@ 000000018025be00     FreeType:sfnt.obj
 0003:00048e30       ??_C@_0BB@IDPEGBNA@check_table_dir?3?$AA@ 000000018025be30     FreeType:sfnt.obj
 0003:00048e48       ??_C@_0DB@IIJHKNKO@?5neither?5?$GAhead?8?0?5?$GAbhed?8?0?5nor?5?$GAsi@ 000000018025be48     FreeType:sfnt.obj
 0003:00048e88       ??_C@_0BN@CHICAENP@tt_face_load_font_dir?3?5?$CF08p?6?$AA@ 000000018025be88     FreeType:sfnt.obj
 0003:00048eb0       ??_C@_0BL@NHFPEKII@?9?9?5Number?5of?5tables?3?5?$CF10u?6?$AA@ 000000018025beb0     FreeType:sfnt.obj
 0003:00048ed0       ??_C@_0BO@OALIFCCP@?9?9?5Format?5version?3?5?5?50x?$CF08lx?6?$AA@ 000000018025bed0     FreeType:sfnt.obj
 0003:00048ef8       ??_C@_0DN@PPONPIPP@tt_face_load_font_dir?3?5invalid?5t@ 000000018025bef8     FreeType:sfnt.obj
 0003:00048f50       ??_C@_0EM@IIGIPBPJ@?6?5?5tag?5?5?5?5offset?5?5?5?5length?5?5?5che@ 000000018025bf50     FreeType:sfnt.obj
 0003:00048fb0       ??_C@_0ED@HIFPJPOG@?5?5?$CFc?$CFc?$CFc?$CFc?5?5?$CF08lx?5?5?$CF08lx?5?5?$CF08lx?5@ 000000018025bfb0     FreeType:sfnt.obj
 0003:00049000       ??_C@_0CA@POBDGHFO@?5?5?$CFc?$CFc?$CFc?$CFc?5?5?$CF08lx?5?5?$CF08lx?5?5?$CF08lx?$AA@ 000000018025c000     FreeType:sfnt.obj
 0003:00049028       ??_C@_0BI@MGHCFACD@?5?5?$CIduplicate?0?5ignored?$CJ?6?$AA@ 000000018025c028     FreeType:sfnt.obj
 0003:00049048       ??_C@_0BJ@KEOAEPMB@table?5directory?5loaded?6?6?$AA@ 000000018025c048     FreeType:sfnt.obj
 0003:00049068       ??_C@_0BD@GIBJDOAC@Units?5per?5EM?3?5?$CF4u?6?$AA@ 000000018025c068     FreeType:sfnt.obj
 0003:00049080       ??_C@_0BD@FAOKJHJC@IndexToLoc?3?5?5?5?$CF4d?6?$AA@ 000000018025c080     FreeType:sfnt.obj
 0003:000490a0       ??_C@_0HL@PJCDKHJG@tt_face_load_maxp?3?5too?5much?5twil@ 000000018025c0a0     FreeType:sfnt.obj
 0003:00049138       ??_C@_0P@MBCPJGML@numGlyphs?3?5?$CFu?6?$AA@ 000000018025c138     FreeType:sfnt.obj
 0003:00049150       ??_C@_0CJ@MIJAPJH@tt_face_load_name?3?5invalid?5?$GAname@ 000000018025c150     FreeType:sfnt.obj
 0003:00049188       ??_C@_0BF@PJOLDGB@sTypoAscender?3?5?5?$CF4d?6?$AA@ 000000018025c188     FreeType:sfnt.obj
 0003:000491a8       ??_C@_0BF@FIIAGEKP@sTypoDescender?3?5?$CF4d?6?$AA@ 000000018025c1a8     FreeType:sfnt.obj
 0003:000491c8       ??_C@_0BF@KLDGDLFB@usWinAscent?3?5?5?5?5?$CF4u?6?$AA@ 000000018025c1c8     FreeType:sfnt.obj
 0003:000491e8       ??_C@_0BF@PFPGIJPG@usWinDescent?3?5?5?5?$CF4u?6?$AA@ 000000018025c1e8     FreeType:sfnt.obj
 0003:00049208       ??_C@_0BH@DMHJKBIA@fsSelection?3?5?5?5?50x?$CF2x?6?$AA@ 000000018025c208     FreeType:sfnt.obj
 0003:00049228       ??_C@_0BE@OINBJNHM@FormatType?3?5?5?50x?$CFx?6?$AA@ 000000018025c228     FreeType:sfnt.obj
 0003:00049240       ??_C@_05NEGJLIIG@?5?5yes?$AA@ 000000018025c240     FreeType:sfnt.obj
 0003:00049248       ??_C@_05IIEOEKBC@?5?5?5no?$AA@ 000000018025c248     FreeType:sfnt.obj
 0003:00049250       ??_C@_0BE@BLJNHHPM@isFixedPitch?3?5?5?5?$CFs?6?$AA@ 000000018025c250     FreeType:sfnt.obj
 0003:00049268       ??_C@_0P@INGOBNI@numRanges?3?5?$CFu?6?$AA@ 000000018025c268     FreeType:sfnt.obj
 0003:00049280       ??_C@_0DI@KFMOBEKD@gaspRange?5?$CFd?3?5rangeMaxPPEM?5?$CF5d?0?5@ 000000018025c280     FreeType:sfnt.obj
 0003:000492c8       ??_C@_0BI@PDIKHCDG@Ascender?3?5?5?5?5?5?5?5?5?5?5?$CF5d?6?$AA@ 000000018025c2c8     FreeType:sfnt.obj
 0003:000492e8       ??_C@_0BI@EBCNGKMI@Descender?3?5?5?5?5?5?5?5?5?5?$CF5d?6?$AA@ 000000018025c2e8     FreeType:sfnt.obj
 0003:00049308       ??_C@_0BI@GOMALKPP@number_Of_Metrics?3?5?$CF5u?6?$AA@ 000000018025c308     FreeType:sfnt.obj
 0003:00049330       ??_C@_0FB@HNAECHK@d?3?2dev?2visual?5studio?52015?2projec@ 000000018025c330     FreeType:sfnt.obj
 0003:00049398       ??_C@_0DL@JJHILCEG@tt_face_build_cmaps?3?5unsupported@ 000000018025c398     FreeType:sfnt.obj
 0003:000493e0       ??_C@_0DE@GBEIEEOP@tt_face_build_cmaps?3?5broken?5cmap@ 000000018025c3e0     FreeType:sfnt.obj
 0003:00049420       ??_C@_0DJ@NBCEBNID@tt_face_build_cmaps?3?5unsupported@ 000000018025c420     FreeType:sfnt.obj
 0003:00049468       ??_C@_0DJ@MLEDOBHN@tt_face_load_kern?3?5kerning?5table@ 000000018025c468     FreeType:sfnt.obj
 0003:000494b0       ??_C@_0FB@EPOKEDIO@d?3?2dev?2visual?5studio?52015?2projec@ 000000018025c4b0     FreeType:sfnt.obj
 0003:00049518       ??_C@_0DE@CLAOKAPF@tt_face_load_kern?3?5could?5not?5ext@ 000000018025c518     FreeType:sfnt.obj
 0003:00049560       ??_C@_0FB@OLMFPLL@d?3?2dev?2visual?5studio?52015?2projec@ 000000018025c560     FreeType:sfnt.obj
 0003:000495c8       ??_C@_0CF@PAJKEGME@woff_font_open?3?5invalid?5WOFF?5hea@ 000000018025c5c8     FreeType:sfnt.obj
 0003:00049600       ??_C@_0FO@IIFHOJIK@?6?5?5tag?5?5?5?5offset?5?5?5?5compLen?5?5ori@ 000000018025c600     FreeType:sfnt.obj
 0003:00049670       ??_C@_0CI@NOCPJGGL@?5?5?$CFc?$CFc?$CFc?$CFc?5?5?$CF08lx?5?5?$CF08lx?5?5?$CF08lx?5@ 000000018025c670     FreeType:sfnt.obj
 0003:000496a0       ??_C@_0CL@PEFFMMFE@woff_font_open?3?5table?5tags?5are?5n@ 000000018025c6a0     FreeType:sfnt.obj
 0003:000496d8       ??_C@_0CH@CMFOEOFP@woff_font_open?3?5invalid?5table?5of@ 000000018025c6d8     FreeType:sfnt.obj
 0003:00049708       ??_C@_0DF@LILHFFAH@woff_font_open?3?5invalid?5?$GAmetadat@ 000000018025c708     FreeType:sfnt.obj
 0003:00049748       ??_C@_0DE@OMADAGBD@woff_font_open?3?5invalid?5?$GAprivate@ 000000018025c748     FreeType:sfnt.obj
 0003:00049788       ??_C@_0DA@DCOEJPLL@woff_font_open?3?5invalid?5?$GAsfnt?8?5t@ 000000018025c788     FreeType:sfnt.obj
 0003:000497c8       ??_C@_0DC@HKNHBINE@woff_font_open?3?5compressed?5table@ 000000018025c7c8     FreeType:sfnt.obj
 0003:00049808       ??_C@_0DD@EBPHMKEO@sfnt_open_font?3?5file?5is?5a?5WOFF?$DL?5@ 000000018025c808     FreeType:sfnt.obj
 0003:00049848       ??_C@_0CO@CDKEJLKM@?5?5not?5a?5font?5using?5the?5SFNT?5cont@ 000000018025c848     FreeType:sfnt.obj
 0003:00049880       ??_C@_0CG@GHJPLPOB@sfnt_open_font?3?5file?5is?5a?5collec@ 000000018025c880     FreeType:sfnt.obj
 0003:000498b0       ??_C@_0CA@CLBLEALO@sfnt_open_font?3?5synthesize?5TTC?6?$AA@ 000000018025c8b0     FreeType:sfnt.obj
 0003:000498d8       ??_C@_0CN@FMHEADDH@sfnt_init_face?3?5cannot?5access?5?$GAs@ 000000018025c8d8     FreeType:sfnt.obj
 0003:00049910       ??_C@_0N@PKPIBBJB@SFNT?5driver?6?$AA@ 000000018025c910     FreeType:sfnt.obj
 0003:00049920       ??_C@_0BL@LDODPMPE@sfnt_init_face?3?5?$CF08p?0?5?$CFld?6?$AA@ 000000018025c920     FreeType:sfnt.obj
 0003:00049940       ??_C@_0BH@LEODIEGM@sfnt_load_face?3?5?$CF08p?6?6?$AA@ 000000018025c940     FreeType:sfnt.obj
 0003:00049960       ??_C@_07PPKILMHI@?$GAbhed?8?5?$AA@ 000000018025c960     FreeType:sfnt.obj
 0003:0004996c       ??_C@_04IGMOLEKE@?9?9?$DO?6?$AA@ 000000018025c96c     FreeType:sfnt.obj
 0003:00049974       ??_C@_06IILMCCFO@loaded?$AA@ 000000018025c974     FreeType:sfnt.obj
 0003:00049980       ??_C@_07NCACNKHJ@missing?$AA@ 000000018025c980     FreeType:sfnt.obj
 0003:00049990       ??_C@_0P@KDDBDKEH@failed?5to?5load?$AA@ 000000018025c990     FreeType:sfnt.obj
 0003:000499a8       ??_C@_07BCMGFGCI@?$GAhead?8?5?$AA@ 000000018025c9a8     FreeType:sfnt.obj
 0003:000499b8       ??_C@_07GJOEAOKC@?$GAmaxp?8?5?$AA@ 000000018025c9b8     FreeType:sfnt.obj
 0003:000499c8       ??_C@_07CDOJEAHH@?$GAcmap?8?5?$AA@ 000000018025c9c8     FreeType:sfnt.obj
 0003:000499d8       ??_C@_07JHMLKLGA@?$GAname?8?5?$AA@ 000000018025c9d8     FreeType:sfnt.obj
 0003:000499e8       ??_C@_07KNFFDEJK@?$GApost?8?5?$AA@ 000000018025c9e8     FreeType:sfnt.obj
 0003:000499f8       ??_C@_09BBLFBEP@?$GA?$CFshhea?8?5?$AA@ 000000018025c9f8     FreeType:sfnt.obj
 0003:00049a08       ??_C@_09CBEHGGNL@?$GA?$CFshmtx?8?5?$AA@ 000000018025ca08     FreeType:sfnt.obj
 0003:00049a18       ??_C@_0BL@CGOEDHCG@This?5is?5an?5SFNT?5Mac?5font?4?6?$AA@ 000000018025ca18     FreeType:sfnt.obj
 0003:00049a38       ??_C@_09KBDOBBOH@vertical?5?$AA@ 000000018025ca38     FreeType:sfnt.obj
 0003:00049a44       ??_C@_06FMFBAPBJ@?$GAos2?8?5?$AA@ 000000018025ca44     FreeType:sfnt.obj
 0003:00049a50       ??_C@_07LFDPLFI@?$GAeblc?8?5?$AA@ 000000018025ca50     FreeType:sfnt.obj
 0003:00049a60       ??_C@_07DICHPELC@?$GApclt?8?5?$AA@ 000000018025ca60     FreeType:sfnt.obj
 0003:00049a70       ??_C@_07LKEEGAPN@?$GAgasp?8?5?$AA@ 000000018025ca70     FreeType:sfnt.obj
 0003:00049a80       ??_C@_07GLNDEBID@?$GAkern?8?5?$AA@ 000000018025ca80     FreeType:sfnt.obj
 0003:00049a90       ??_C@_0BG@ICCDACNE@sfnt_load_face?3?5done?6?$AA@ 000000018025ca90     FreeType:sfnt.obj
 0003:00049ab0       ??_C@_0FD@NIKLBLFO@d?3?2dev?2visual?5studio?52015?2projec@ 000000018025cab0     FreeType:sfnt.obj
 0003:00049b18       ??_C@_0DE@MABHGHLP@Ignore?5glyph?5names?5for?5invalid?5G@ 000000018025cb18     FreeType:sfnt.obj
 0003:00049b58       ??_C@_0CM@LIPCEJLG@tt_face_load_sbit_strikes?3?5table@ 000000018025cb58     FreeType:sfnt.obj
 0003:00049b90       ??_C@_0FB@COEKLAPH@d?3?2dev?2visual?5studio?52015?2projec@ 000000018025cb90     FreeType:sfnt.obj
 0003:00049c00       ??_C@_0HD@HFGLLPEJ@tt_face_load_sbit_strikes?3?5sbix?5@ 000000018025cc00     FreeType:sfnt.obj
 0003:00049c90       ??_C@_0BG@BFBBMCNL@sbit_num_strikes?3?5?$CFu?6?$AA@ 000000018025cc90     FreeType:sfnt.obj
 0003:00049cb0       ??_C@_0IL@PFGIODGP@tt_face_load_strike_metrics?3?5san@ 000000018025ccb0     FreeType:sfnt.obj
 0003:00049d60       ??_C@_0GP@PDJKNEEL@tt_face_load_strike_metrics?3?5san@ 000000018025cd60     FreeType:sfnt.obj
 0003:00049de8       ??_C@_0CM@GENAMILE@tt_sbit_decoder_load_metrics?3?5br@ 000000018025cde8     FreeType:sfnt.obj
 0003:00049e20       ??_C@_0DO@OBKNPPOC@tt_sbit_decoder_load_byte_aligne@ 000000018025ce20     FreeType:sfnt.obj
 0003:00049e70       ??_C@_0DC@EJMIPKNG@tt_sbit_decoder_load_byte_aligne@ 000000018025ce70     FreeType:sfnt.obj
 0003:00049eb0       ??_C@_0CL@MBLAPJLN@tt_sbit_decoder_load_byte_aligne@ 000000018025ceb0     FreeType:sfnt.obj
 0003:00049ee8       ??_C@_0DN@CMJAIJLB@tt_sbit_decoder_load_bit_aligned@ 000000018025cee8     FreeType:sfnt.obj
 0003:00049f38       ??_C@_0DB@HOGKMILJ@tt_sbit_decoder_load_bit_aligned@ 000000018025cf38     FreeType:sfnt.obj
 0003:00049f78       ??_C@_0CK@GPJNOIJH@tt_sbit_decoder_load_bit_aligned@ 000000018025cf78     FreeType:sfnt.obj
 0003:00049fb0       ??_C@_0CN@DPFLEEKK@tt_sbit_decoder_load_compound?3?5b@ 000000018025cfb0     FreeType:sfnt.obj
 0003:00049fe8       ??_C@_0DG@PBMCOCHC@tt_sbit_decoder_load_compound?3?5l@ 000000018025cfe8     FreeType:sfnt.obj
 0003:0004a028       ??_C@_0CF@NKDEPFML@tt_sbit_decoder_load_compound?3?5d@ 000000018025d028     FreeType:sfnt.obj
 0003:0004a058       ??_C@_0DG@LHKINJNE@tt_sbit_decoder_load_image?3?5recu@ 000000018025d058     FreeType:sfnt.obj
 0003:0004a0a0       ??_C@_0EH@OCMKCNMI@tt_sbit_decoder_load_image?3?5foun@ 000000018025d0a0     FreeType:sfnt.obj
 0003:0004a0f8       ??_C@_0DO@OIHGOFLO@tt_sbit_decoder_load_image?3?5no?5s@ 000000018025d0f8     FreeType:sfnt.obj
 0003:0004a150       ??_C@_0FB@IJGMDGJH@d?3?2dev?2visual?5studio?52015?2projec@ 000000018025d150     FreeType:sfnt.obj
 0003:0004a1b8       ??_C@_0CM@MABCLHAJ@load_format_20?3?5?$CFd?5byte?5left?5in?5@ 000000018025d1b8     FreeType:sfnt.obj
 0003:0004a1f0       ??_C@_0FO@KECODNIJ@load_format_20?3?5exceeding?5string@ 000000018025d1f0     FreeType:sfnt.obj
 0003:0004a260       ??_C@_0GA@LDEHPDAP@load_format_20?3?5all?5entries?5in?5p@ 000000018025d260     FreeType:sfnt.obj
 0003:0004a2e0       ??_C@_0FA@BBFDOIHJ@d?3?2dev?2visual?5studio?52015?2projec@ 000000018025d2e0     FreeType:sfnt.obj
 0003:0004a370       ft_smooth_renderer_class   000000018025d370     FreeType:smooth.obj
 0003:0004a3e0       ft_smooth_lcd_renderer_class 000000018025d3e0     FreeType:smooth.obj
 0003:0004a448       ft_grays_raster            000000018025d448     FreeType:smooth.obj
 0003:0004a480       ft_smooth_lcdv_renderer_class 000000018025d480     FreeType:smooth.obj
 0003:0004a53c       ??_C@_06INICNAFJ@smooth?$AA@ 000000018025d53c     FreeType:smooth.obj
 0003:0004a548       ??_C@_0L@KCJBAIJI@smooth?9lcd?$AA@ 000000018025d548     FreeType:smooth.obj
 0003:0004a558       ??_C@_0M@IHBDFEAO@smooth?9lcdv?$AA@ 000000018025d558     FreeType:smooth.obj
 0003:0004aa70       ??_C@_0BD@BBCNCFCG@gray_sweep?3?5start?6?$AA@ 000000018025da70     FreeType:smooth.obj
 0003:0004aa88       ??_C@_0BB@JBKFABFN@gray_sweep?3?5end?6?$AA@ 000000018025da88     FreeType:smooth.obj
 0003:0004aaa0       ??_C@_0BJ@NGBCKLNE@band?5?$FL?$CFd?4?4?$CFd?$FN?3?5?$CFd?5cells?6?$AA@ 000000018025daa0     FreeType:smooth.obj
 0003:0004aac0       ??_C@_0FE@GNANPPNH@d?3?2dev?2visual?5studio?52015?2projec@ 000000018025dac0     FreeType:smooth.obj
 0003:0004ab28       ??_C@_0BP@DCAACNJH@band?5?$FL?$CFd?4?4?$CFd?$FN?3?5to?5be?5bisected?6?$AA@ 000000018025db28     FreeType:smooth.obj
 0003:0004ab50       ??_C@_0CC@KMMLIIMO@gray_convert_glyph?3?5rotten?5glyph@ 000000018025db50     FreeType:smooth.obj
 0003:0004ab80       ??_C@_0FF@PDBABNKP@d?3?2dev?2visual?5studio?52015?2projec@ 000000018025db80     FreeType:smooth.obj
 0003:0004abe8       ??_C@_0DE@MAGFHKIJ@ft_smooth_render_generic?3?5glyph?5@ 000000018025dbe8     FreeType:smooth.obj
 0003:0004ac28       ??_C@_0BC@DEIBICAG@AVG_CAPITAL_WIDTH?$AA@ 000000018025dc28     FreeType:bdf.obj
 0003:0004ac40       ??_C@_0BE@FDPIDJIH@AVG_LOWERCASE_WIDTH?$AA@ 000000018025dc40     FreeType:bdf.obj
 0003:0004ac58       ??_C@_0L@IPPBEDCK@CAP_HEIGHT?$AA@ 000000018025dc58     FreeType:bdf.obj
 0003:0004ac68       ??_C@_0BE@KNHMGHPI@CHARSET_COLLECTIONS?$AA@ 000000018025dc68     FreeType:bdf.obj
 0003:0004ac80       ??_C@_07JEDAPFNH@COMMENT?$AA@ 000000018025dc80     FreeType:bdf.obj
 0003:0004ac90       ??_C@_09DJIAAPDG@COPYRIGHT?$AA@ 000000018025dc90     FreeType:bdf.obj
 0003:0004aca0       ??_C@_0N@LOGJBDOF@DEFAULT_CHAR?$AA@ 000000018025dca0     FreeType:bdf.obj
 0003:0004acb0       ??_C@_0M@LFJMPFGC@DESTINATION?$AA@ 000000018025dcb0     FreeType:bdf.obj
 0003:0004acc0       ??_C@_0BB@PJMJCLEI@DEVICE_FONT_NAME?$AA@ 000000018025dcc0     FreeType:bdf.obj
 0003:0004acd8       ??_C@_09GEIPNEKC@END_SPACE?$AA@ 000000018025dcd8     FreeType:bdf.obj
 0003:0004ace8       ??_C@_09DLOGKOHL@FACE_NAME?$AA@ 000000018025dce8     FreeType:bdf.obj
 0003:0004acf8       ??_C@_0N@LCIIJFB@FIGURE_WIDTH?$AA@ 000000018025dcf8     FreeType:bdf.obj
 0003:0004ad08       ??_C@_04IJMKNFPK@FONT?$AA@ 000000018025dd08     FreeType:bdf.obj
 0003:0004ad10       ??_C@_0BC@LNICJLFI@FONTNAME_REGISTRY?$AA@ 000000018025dd10     FreeType:bdf.obj
 0003:0004ad28       ??_C@_0M@ECCDLGDC@FONT_ASCENT?$AA@ 000000018025dd28     FreeType:bdf.obj
 0003:0004ad38       ??_C@_0N@BAIKBLGK@FONT_DESCENT?$AA@ 000000018025dd38     FreeType:bdf.obj
 0003:0004ad48       ??_C@_07GMNLECKJ@FOUNDRY?$AA@ 000000018025dd48     FreeType:bdf.obj
 0003:0004ad58       ??_C@_09IGHCOKHJ@FULL_NAME?$AA@ 000000018025dd58     FreeType:bdf.obj
 0003:0004ad68       ??_C@_0N@LHJKBLMB@ITALIC_ANGLE?$AA@ 000000018025dd68     FreeType:bdf.obj
 0003:0004ad78       ??_C@_09IDPFHPOD@MAX_SPACE?$AA@ 000000018025dd78     FreeType:bdf.obj
 0003:0004ad88       ??_C@_09ICPJOFFH@MIN_SPACE?$AA@ 000000018025dd88     FreeType:bdf.obj
 0003:0004ad98       ??_C@_0L@CKCFAFFG@NORM_SPACE?$AA@ 000000018025dd98     FreeType:bdf.obj
 0003:0004ada8       ??_C@_06FMPEGAHJ@NOTICE?$AA@ 000000018025dda8     FreeType:bdf.obj
 0003:0004adb0       ??_C@_0L@MANNMNIK@QUAD_WIDTH?$AA@ 000000018025ddb0     FreeType:bdf.obj
 0003:0004adc0       ??_C@_0L@CAMLDNCF@RAW_ASCENT?$AA@ 000000018025ddc0     FreeType:bdf.obj
 0003:0004add0       ??_C@_0BC@LNOEENJF@RAW_AVERAGE_WIDTH?$AA@ 000000018025ddd0     FreeType:bdf.obj
 0003:0004ade8       ??_C@_0BG@PEMOHOIO@RAW_AVG_CAPITAL_WIDTH?$AA@ 000000018025dde8     FreeType:bdf.obj
 0003:0004ae08       ??_C@_0BI@BEKJFFLM@RAW_AVG_LOWERCASE_WIDTH?$AA@ 000000018025de08     FreeType:bdf.obj
 0003:0004ae28       ??_C@_0P@PDBKEGFB@RAW_CAP_HEIGHT?$AA@ 000000018025de28     FreeType:bdf.obj
 0003:0004ae40       ??_C@_0M@JDDLHGCG@RAW_DESCENT?$AA@ 000000018025de40     FreeType:bdf.obj
 0003:0004ae50       ??_C@_0O@FDGFBIGM@RAW_END_SPACE?$AA@ 000000018025de50     FreeType:bdf.obj
 0003:0004ae60       ??_C@_0BB@LHIJKBAI@RAW_FIGURE_WIDTH?$AA@ 000000018025de60     FreeType:bdf.obj
 0003:0004ae78       ??_C@_0O@LEBPLDCN@RAW_MAX_SPACE?$AA@ 000000018025de78     FreeType:bdf.obj
 0003:0004ae88       ??_C@_0O@LFBDCJJJ@RAW_MIN_SPACE?$AA@ 000000018025de88     FreeType:bdf.obj
 0003:0004ae98       ??_C@_0P@FGMOAACN@RAW_NORM_SPACE?$AA@ 000000018025de98     FreeType:bdf.obj
 0003:0004aeb0       ??_C@_0P@FBIMICGE@RAW_PIXEL_SIZE?$AA@ 000000018025deb0     FreeType:bdf.obj
 0003:0004aec8       ??_C@_0P@OOHCGKOO@RAW_POINT_SIZE?$AA@ 000000018025dec8     FreeType:bdf.obj
 0003:0004aee0       ??_C@_0O@HNFKKCGD@RAW_PIXELSIZE?$AA@ 000000018025dee0     FreeType:bdf.obj
 0003:0004aef0       ??_C@_0O@FDNDDOFA@RAW_POINTSIZE?$AA@ 000000018025def0     FreeType:bdf.obj
 0003:0004af00       ??_C@_0P@LMDGMIPB@RAW_QUAD_WIDTH?$AA@ 000000018025df00     FreeType:bdf.obj
 0003:0004af18       ??_C@_0BD@HHNHPPKD@RAW_SMALL_CAP_SIZE?$AA@ 000000018025df18     FreeType:bdf.obj
 0003:0004af30       ??_C@_0BF@DLAIFMIE@RAW_STRIKEOUT_ASCENT?$AA@ 000000018025df30     FreeType:bdf.obj
 0003:0004af50       ??_C@_0BG@DCPBCGDJ@RAW_STRIKEOUT_DESCENT?$AA@ 000000018025df50     FreeType:bdf.obj
 0003:0004af70       ??_C@_0BD@FGAMCDPE@RAW_SUBSCRIPT_SIZE?$AA@ 000000018025df70     FreeType:bdf.obj
 0003:0004af88       ??_C@_0BA@ICOMKGEO@RAW_SUBSCRIPT_X?$AA@ 000000018025df88     FreeType:bdf.obj
 0003:0004afa0       ??_C@_0BA@JLPHJHAP@RAW_SUBSCRIPT_Y?$AA@ 000000018025dfa0     FreeType:bdf.obj
 0003:0004afb8       ??_C@_0BF@ILCJEECH@RAW_SUPERSCRIPT_SIZE?$AA@ 000000018025dfb8     FreeType:bdf.obj
 0003:0004afd8       ??_C@_0BC@EMCLOPNI@RAW_SUPERSCRIPT_X?$AA@ 000000018025dfd8     FreeType:bdf.obj
 0003:0004aff0       ??_C@_0BC@FFDANOJJ@RAW_SUPERSCRIPT_Y?$AA@ 000000018025dff0     FreeType:bdf.obj
 0003:0004b008       ??_C@_0BH@LIHCGIBB@RAW_UNDERLINE_POSITION?$AA@ 000000018025e008     FreeType:bdf.obj
 0003:0004b028       ??_C@_0BI@OEPMFPAK@RAW_UNDERLINE_THICKNESS?$AA@ 000000018025e028     FreeType:bdf.obj
 0003:0004b048       ??_C@_0N@LFICGJOL@RAW_X_HEIGHT?$AA@ 000000018025e048     FreeType:bdf.obj
 0003:0004b058       ??_C@_0BC@JMGAMBDF@RELATIVE_SETWIDTH?$AA@ 000000018025e058     FreeType:bdf.obj
 0003:0004b070       ??_C@_0BA@NKHOPHOP@RELATIVE_WEIGHT?$AA@ 000000018025e070     FreeType:bdf.obj
 0003:0004b088       ??_C@_0L@JGAABLGD@RESOLUTION?$AA@ 000000018025e088     FreeType:bdf.obj
 0003:0004b098       ??_C@_0P@CJBLANOF@SMALL_CAP_SIZE?$AA@ 000000018025e098     FreeType:bdf.obj
 0003:0004b0b0       ??_C@_07JKNGKIOL@SPACING?$AA@ 000000018025e0b0     FreeType:bdf.obj
 0003:0004b0c0       ??_C@_0BB@MOJIHJPL@STRIKEOUT_ASCENT?$AA@ 000000018025e0c0     FreeType:bdf.obj
 0003:0004b0d8       ??_C@_0BC@PCLONKLB@STRIKEOUT_DESCENT?$AA@ 000000018025e0d8     FreeType:bdf.obj
 0003:0004b0f0       ??_C@_0P@IMANBLC@SUBSCRIPT_SIZE?$AA@ 000000018025e0f0     FreeType:bdf.obj
 0003:0004b108       ??_C@_0M@EFEHOFPP@SUBSCRIPT_X?$AA@ 000000018025e108     FreeType:bdf.obj
 0003:0004b118       ??_C@_0M@FMFMNELO@SUBSCRIPT_Y?$AA@ 000000018025e118     FreeType:bdf.obj
 0003:0004b128       ??_C@_0BB@HOLJGBFI@SUPERSCRIPT_SIZE?$AA@ 000000018025e128     FreeType:bdf.obj
 0003:0004b140       ??_C@_0O@FOCAKHKA@SUPERSCRIPT_X?$AA@ 000000018025e140     FreeType:bdf.obj
 0003:0004b150       ??_C@_0O@EHDLJGOB@SUPERSCRIPT_Y?$AA@ 000000018025e150     FreeType:bdf.obj
 0003:0004b160       ??_C@_0BD@FLNBCMPP@UNDERLINE_POSITION?$AA@ 000000018025e160     FreeType:bdf.obj
 0003:0004b178       ??_C@_0BE@KDKNDDDB@UNDERLINE_THICKNESS?$AA@ 000000018025e178     FreeType:bdf.obj
 0003:0004b190       ??_C@_06CIAKHCPD@WEIGHT?$AA@ 000000018025e190     FreeType:bdf.obj
 0003:0004b198       ??_C@_08IHHFFHAA@X_HEIGHT?$AA@ 000000018025e198     FreeType:bdf.obj
 0003:0004b1a8       ??_C@_0BG@NJJHMBCE@_MULE_BASELINE_OFFSET?$AA@ 000000018025e1a8     FreeType:bdf.obj
 0003:0004b1c8       ??_C@_0BH@EGBLCDE@_MULE_RELATIVE_COMPOSE?$AA@ 000000018025e1c8     FreeType:bdf.obj
 0003:0004b200       bdf_driver_class           000000018025e200     FreeType:bdf.obj
 0003:0004bdd4       ??_C@_03DOBGHNMK@BDF?$AA@  000000018025edd4     FreeType:bdf.obj
 0003:0004c960       ??_C@_0FA@FFEBDOMC@d?3?2dev?2visual?5studio?52015?2projec@ 000000018025f960     FreeType:bdf.obj
 0003:0004c9c0       ??_C@_0DC@DLBACEAA@_bdf_readstream?3?5?$FLline?5?$CFld?$FN?5Inpu@ 000000018025f9c0     FreeType:bdf.obj
 0003:0004ca00       ??_C@_0DK@EDMDNOHE@_bdf_set_default_spacing?3?5?$FLline?5@ 000000018025fa00     FreeType:bdf.obj
 0003:0004ca48       ??_C@_01JOAMLHOP@?9?$AA@   000000018025fa48     FreeType:bdf.obj
 0003:0004ca50       ??_C@_0DD@DCHAPBD@_bdf_add_property?3?5?$FLline?5?$CFld?$FN?5In@ 000000018025fa50     FreeType:bdf.obj
 0003:0004ca90       ??_C@_05HCHEPOAH@CHARS?$AA@ 000000018025fa90     FreeType:bdf.obj
 0003:0004ca98       ??_C@_0DC@DDOGKPDM@_bdf_parse_glyphs?3?5?$FLline?5?$CFld?$FN?5Mi@ 000000018025fa98     FreeType:bdf.obj
 0003:0004cad4       ??_C@_02EOIDJNGE@?5?$CL?$AA@ 000000018025fad4     FreeType:bdf.obj
 0003:0004cad8       ??_C@_0DH@FNLFCGDG@_bdf_parse_glyphs?3?5Adjusting?5num@ 000000018025fad8     FreeType:bdf.obj
 0003:0004cb20       ??_C@_0DD@GMPJEGEF@_bdf_parse_glyphs?3?5?$FLline?5?$CFld?$FN?5?$GA?$CF@ 000000018025fb20     FreeType:bdf.obj
 0003:0004cb60       ??_C@_07MLEKHHFJ@ENDFONT?$AA@ 000000018025fb60     FreeType:bdf.obj
 0003:0004cb70       ??_C@_07MDHLCACL@ENDCHAR?$AA@ 000000018025fb70     FreeType:bdf.obj
 0003:0004cb80       ??_C@_09BPKMEANO@STARTCHAR?$AA@ 000000018025fb80     FreeType:bdf.obj
 0003:0004cb90       ??_C@_0DD@KLDEHACG@_bdf_parse_glyphs?3?5?$FLline?5?$CFld?$FN?5In@ 000000018025fb90     FreeType:bdf.obj
 0003:0004cbd0       ??_C@_0M@FFOBOMLB@?5?5?$FL?$CF6ld?$FN?5?$CFs?$AA@ 000000018025fbd0     FreeType:bdf.obj
 0003:0004cbe0       ??_C@_08LEFKDKKN@ENCODING?$AA@ 000000018025fbe0     FreeType:bdf.obj
 0003:0004cbf0       ??_C@_09PICCMFLC@?5?$CI0x?$CFlX?$CJ?6?$AA@ 000000018025fbf0     FreeType:bdf.obj
 0003:0004cc00       ??_C@_0EG@MJNBKJNE@_bdf_parse_glyphs?3?5Duplicate?5enc@ 000000018025fc00     FreeType:bdf.obj
 0003:0004cc58       ??_C@_0DC@GOOCBNOJ@_bdf_parse_glyphs?3?5Glyph?5?$CFld?5ext@ 000000018025fc58     FreeType:bdf.obj
 0003:0004cca0       ??_C@_0EF@KGEBKPJK@_bdf_parse_glyphs?3?5Glyph?5?$CFld?5mis@ 000000018025fca0     FreeType:bdf.obj
 0003:0004ccf8       ??_C@_0DF@HPJDBJMP@_bdf_parse_glyphs?3?5Glyph?5?$CFld?5ext@ 000000018025fcf8     FreeType:bdf.obj
 0003:0004cd38       ??_C@_06HDKFFNNH@SWIDTH?$AA@ 000000018025fd38     FreeType:bdf.obj
 0003:0004cd40       ??_C@_06NBNMPPJH@DWIDTH?$AA@ 000000018025fd40     FreeType:bdf.obj
 0003:0004cd50       ??_C@_0EK@BMLMGGMM@_bdf_parse_glyphs?3?5SWIDTH?5field?5@ 000000018025fd50     FreeType:bdf.obj
 0003:0004cda8       ??_C@_03OONKDOKH@BBX?$AA@  000000018025fda8     FreeType:bdf.obj
 0003:0004cdb0       ??_C@_0EL@OOKPCJLE@_bdf_parse_glyphs?3?5DWIDTH?5field?5@ 000000018025fdb0     FreeType:bdf.obj
 0003:0004ce0c       ??_C@_06PGFOEMDN@BITMAP?$AA@ 000000018025fe0c     FreeType:bdf.obj
 0003:0004ce18       ??_C@_0CM@OCICBMMH@_bdf_parse_glyphs?3?5?$FLline?5?$CFld?$FN?5BB@ 000000018025fe18     FreeType:bdf.obj
 0003:0004ce50       ??_C@_0DA@FNFEDBOI@_bdf_parse_glyphs?3?5?$FLline?5?$CFld?$FN?5In@ 000000018025fe50     FreeType:bdf.obj
 0003:0004ce90       ??_C@_0O@JFDPHGFD@ENDPROPERTIES?$AA@ 000000018025fe90     FreeType:bdf.obj
 0003:0004cea0       ??_C@_03OACELNE@?$CFhd?$AA@ 000000018025fea0     FreeType:bdf.obj
 0003:0004ceb0       ??_C@_0FA@MHOOANLD@_bdf_parse_properties?3?5FONT_ASCE@ 000000018025feb0     FreeType:bdf.obj
 0003:0004cf10       ??_C@_0FC@OOLBPPB@_bdf_parse_properties?3?5FONT_DESC@ 000000018025ff10     FreeType:bdf.obj
 0003:0004cf78       ??_C@_0BG@NDMEGDOA@_XFREE86_GLYPH_RANGES?$AA@ 000000018025ff78     FreeType:bdf.obj
 0003:0004cf98       ??_C@_09BHJNBHKM@STARTFONT?$AA@ 000000018025ff98     FreeType:bdf.obj
 0003:0004cfa8       ??_C@_0BA@HGECMEMA@STARTPROPERTIES?$AA@ 000000018025ffa8     FreeType:bdf.obj
 0003:0004cfc0       ??_C@_0BA@PIDAKDPC@FONTBOUNDINGBOX?$AA@ 000000018025ffc0     FreeType:bdf.obj
 0003:0004cfd8       ??_C@_0DB@PPLLGEHM@_bdf_parse_start?3?5?$FLline?5?$CFld?$FN?5Mis@ 000000018025ffd8     FreeType:bdf.obj
 0003:0004d014       ??_C@_04EMFHLKGI@SIZE?$AA@ 0000000180260014     FreeType:bdf.obj
 0003:0004d020       ??_C@_0DC@NNCEGMHN@_bdf_parse_start?3?5?$FLline?5?$CFld?$FN?5Inv@ 0000000180260020     FreeType:bdf.obj
 0003:0004d060       ??_C@_0DO@EMAEPNNN@_bdf_parse_start?3?5SIZE?5bits?5per?5@ 0000000180260060     FreeType:bdf.obj
 0003:0004d0b0       ??_C@_0CP@DPIBLPNJ@_bdf_parse_start?3?5?$FLline?5?$CFld?$FN?5Inv@ 00000001802600b0     FreeType:bdf.obj
 0003:0004d0f0       ??_C@_0EE@MADKNNKC@bdf_load_font?3?5Incorrect?5glyph?5c@ 00000001802600f0     FreeType:bdf.obj
 0003:0004d150       ??_C@_0EA@KBJJKEEG@bdf_load_font?3?5Font?5width?5?$CB?$DN?5act@ 0000000180260150     FreeType:bdf.obj
 0003:0004d1a0       ??_C@_0EO@CFDGAKHK@bdf_load_font?3?5Font?5left?5bearing@ 00000001802601a0     FreeType:bdf.obj
 0003:0004d200       ??_C@_0EC@IBNOIPBM@bdf_load_font?3?5Font?5ascent?5?$CB?$DN?5ac@ 0000000180260200     FreeType:bdf.obj
 0003:0004d250       ??_C@_0EE@KFBCIHOC@bdf_load_font?3?5Font?5descent?5?$CB?$DN?5a@ 0000000180260250     FreeType:bdf.obj
 0003:0004d2b0       ??_C@_0EB@BJDOKJCG@bdf_load_font?3?5Font?5height?5?$CB?$DN?5ac@ 00000001802602b0     FreeType:bdf.obj
 0003:0004d300       ??_C@_0EA@OANGMKP@bdf_load_font?3?5Glyph?5scalable?5wi@ 0000000180260300     FreeType:bdf.obj
 0003:0004d350       ??_C@_0EE@KCMAOHJO@bdf_load_font?3?5?$FLline?5?$CFld?$FN?5Font?5h@ 0000000180260350     FreeType:bdf.obj
 0003:0004d3b0       ??_C@_0EE@ONIDKJPN@bdf_load_font?3?5?$FLline?5?$CFld?$FN?5Font?5g@ 00000001802603b0     FreeType:bdf.obj
 0003:0004d408       ??_C@_0CO@EGKPGEJ@bdf_cmap_char_next?3?5charcode?50x?$CF@ 0000000180260408     FreeType:bdf.obj
 0003:0004d440       ??_C@_0M@PIOLPION@BDF?5driver?6?$AA@ 0000000180260440     FreeType:bdf.obj
 0003:0004d450       ??_C@_0BC@CHFALINA@?5?5not?5a?5BDF?5file?6?$AA@ 0000000180260450     FreeType:bdf.obj
 0003:0004d468       ??_C@_0CD@DBHGBEIE@BDF_Face_Init?3?5invalid?5face?5inde@ 0000000180260468     FreeType:bdf.obj
 0003:0004d4a0       ??_C@_0FC@HIJDDJBK@d?3?2dev?2visual?5studio?52015?2projec@ 00000001802604a0     FreeType:bdf.obj
 0003:0004d508       ??_C@_0CM@BNFDELFJ@?5?5number?5of?5glyphs?3?5allocated?5?$CFd@ 0000000180260508     FreeType:bdf.obj
 0003:0004d540       ??_C@_0DG@LFIMIPLI@?5?5number?5of?5unencoded?5glyphs?3?5al@ 0000000180260540     FreeType:bdf.obj
 0003:0004d580       ??_C@_0BF@CECOLGPK@?5?5idx?5?$CFd?0?5val?50x?$CFlX?6?$AA@ 0000000180260580     FreeType:bdf.obj
 0003:0004d5a0       ??_C@_0DE@MDPBGMHJ@BDF_Face_Init?3?5idx?5?$CFd?5is?5too?5lar@ 00000001802605a0     FreeType:bdf.obj
 0003:0004d5e0       ??_C@_0CA@CMBGPHKN@BDF_Glyph_Load?3?5glyph?5index?5?$CFd?6?$AA@ 00000001802605e0     FreeType:bdf.obj
 0003:0004d608       ??_C@_0DB@DFIGKFPK@BDF_Glyph_Load?3?5too?5large?5pitch?5@ 0000000180260608     FreeType:bdf.obj
 0003:0004d648       ??_C@_0DL@OLPFOBLL@bdf_get_bdf_property?3?5too?5large?5@ 0000000180260648     FreeType:bdf.obj
 0003:0004d690       ??_C@_0DM@BKEIKPHP@bdf_get_bdf_property?3?5too?5large?5@ 0000000180260690     FreeType:bdf.obj
 0003:0004d6e0       ??_C@_0FD@FMBBKHND@d?3?2dev?2visual?5studio?52015?2projec@ 00000001802606e0     FreeType:ftsystem.obj
 0003:0004d748       ??_C@_0CF@LMIGAOPM@FT_Stream_Open?3?5could?5not?5open?5?$GA@ 0000000180260748     FreeType:ftsystem.obj
 0003:0004d778       ??_C@_0BA@KAPCMOHL@FT_Stream_Open?3?$AA@ 0000000180260778     FreeType:ftsystem.obj
 0003:0004d790       ??_C@_0BN@JBDDLAFC@?5opened?5?$GA?$CFs?8?5but?5zero?9sized?6?$AA@ 0000000180260790     FreeType:ftsystem.obj
 0003:0004d7b8       ??_C@_0CG@GFJCIDNE@?5opened?5?$GA?$CFs?8?5?$CI?$CFd?5bytes?$CJ?5successf@ 00000001802607b8     FreeType:ftsystem.obj
 0003:0004d7e8       ??_C@_03OBJFJEBA@any?$AA@  00000001802607e8     FreeType:ftdebug.obj
 0003:0004d7ec       ??_C@_04GLMIJPDJ@calc?$AA@ 00000001802607ec     FreeType:ftdebug.obj
 0003:0004d7f4       ??_C@_06HLKELJGF@memory?$AA@ 00000001802607f4     FreeType:ftdebug.obj
 0003:0004d7fc       ??_C@_06DJAMKFID@stream?$AA@ 00000001802607fc     FreeType:ftdebug.obj
 0003:0004d804       ??_C@_02KFNNKBCK@io?$AA@   0000000180260804     FreeType:ftdebug.obj
 0003:0004d808       ??_C@_04DONFEANM@list?$AA@ 0000000180260808     FreeType:ftdebug.obj
 0003:0004d810       ??_C@_04HKFDNBLD@init?$AA@ 0000000180260810     FreeType:ftdebug.obj
 0003:0004d818       ??_C@_04PCMCLDDF@objs?$AA@ 0000000180260818     FreeType:ftdebug.obj
 0003:0004d820       ??_C@_07PNNKHJNH@outline?$AA@ 0000000180260820     FreeType:ftdebug.obj
 0003:0004d82c       ??_C@_05OIOMJNBL@glyph?$AA@ 000000018026082c     FreeType:ftdebug.obj
 0003:0004d838       ??_C@_07LGEEDODM@gloader?$AA@ 0000000180260838     FreeType:ftdebug.obj
 0003:0004d844       ??_C@_06NDPGICBH@raster?$AA@ 0000000180260844     FreeType:ftdebug.obj
 0003:0004d84c       ??_C@_02JAOCGLHE@mm?$AA@   000000018026084c     FreeType:ftdebug.obj
 0003:0004d850       ??_C@_07FHMGHKEO@raccess?$AA@ 0000000180260850     FreeType:ftdebug.obj
 0003:0004d85c       ??_C@_05BCGMACJO@synth?$AA@ 000000018026085c     FreeType:ftdebug.obj
 0003:0004d864       ??_C@_06PCHFJCOP@bitmap?$AA@ 0000000180260864     FreeType:ftdebug.obj
 0003:0004d86c       ??_C@_05BDNCCAMC@cache?$AA@ 000000018026086c     FreeType:ftdebug.obj
 0003:0004d878       ??_C@_08HGCMIBIC@sfdriver?$AA@ 0000000180260878     FreeType:ftdebug.obj
 0003:0004d884       ??_C@_06KKKBLNKH@sfobjs?$AA@ 0000000180260884     FreeType:ftdebug.obj
 0003:0004d88c       ??_C@_06JLPDGBMM@ttcmap?$AA@ 000000018026088c     FreeType:ftdebug.obj
 0003:0004d894       ??_C@_06KEBGCABE@ttkern?$AA@ 0000000180260894     FreeType:ftdebug.obj
 0003:0004d89c       ??_C@_06JNAEOJMD@ttload?$AA@ 000000018026089c     FreeType:ftdebug.obj
 0003:0004d8a4       ??_C@_05KPIOELCI@ttmtx?$AA@ 00000001802608a4     FreeType:ftdebug.obj
 0003:0004d8ac       ??_C@_06GNHEPGAP@ttpost?$AA@ 00000001802608ac     FreeType:ftdebug.obj
 0003:0004d8b4       ??_C@_06MJAPHCKE@ttsbit?$AA@ 00000001802608b4     FreeType:ftdebug.obj
 0003:0004d8bc       ??_C@_05DPIKMHNB@ttbdf?$AA@ 00000001802608bc     FreeType:ftdebug.obj
 0003:0004d8c8       ??_C@_08CMNDNKBN@ttdriver?$AA@ 00000001802608c8     FreeType:ftdebug.obj
 0003:0004d8d8       ??_C@_07MIBCAGIL@ttgload?$AA@ 00000001802608d8     FreeType:ftdebug.obj
 0003:0004d8e8       ??_C@_08MIJDAFAI@ttinterp?$AA@ 00000001802608e8     FreeType:ftdebug.obj
 0003:0004d8f4       ??_C@_06CBBICALJ@ttobjs?$AA@ 00000001802608f4     FreeType:ftdebug.obj
 0003:0004d900       ??_C@_07NGMBDEKI@ttpload?$AA@ 0000000180260900     FreeType:ftdebug.obj
 0003:0004d910       ??_C@_07GMPLJKAL@ttgxvar?$AA@ 0000000180260910     FreeType:ftdebug.obj
 0003:0004d91c       ??_C@_05FNFMLCKD@t1afm?$AA@ 000000018026091c     FreeType:ftdebug.obj
 0003:0004d928       ??_C@_08ENKOBGJE@t1driver?$AA@ 0000000180260928     FreeType:ftdebug.obj
 0003:0004d938       ??_C@_07NOCBFMFF@t1gload?$AA@ 0000000180260938     FreeType:ftdebug.obj
 0003:0004d944       ??_C@_06FDOENOGM@t1hint?$AA@ 0000000180260944     FreeType:ftdebug.obj
 0003:0004d94c       ??_C@_06MCJBHCBM@t1load?$AA@ 000000018026094c     FreeType:ftdebug.obj
 0003:0004d954       ??_C@_06HOINLLGG@t1objs?$AA@ 0000000180260954     FreeType:ftdebug.obj
 0003:0004d960       ??_C@_07JMKIGDNK@t1parse?$AA@ 0000000180260960     FreeType:ftdebug.obj
 0003:0004d970       ??_C@_08DAJNMKKC@t1decode?$AA@ 0000000180260970     FreeType:ftdebug.obj
 0003:0004d97c       ??_C@_06MIFCDEBC@psobjs?$AA@ 000000018026097c     FreeType:ftdebug.obj
 0003:0004d984       ??_C@_06IFLGFNFH@psconv?$AA@ 0000000180260984     FreeType:ftdebug.obj
 0003:0004d98c       ??_C@_06GLPFOKPB@pshrec?$AA@ 000000018026098c     FreeType:ftdebug.obj
 0003:0004d998       ??_C@_08MPJOLOND@pshalgo1?$AA@ 0000000180260998     FreeType:ftdebug.obj
 0003:0004d9a8       ??_C@_08OELDONBA@pshalgo2?$AA@ 00000001802609a8     FreeType:ftdebug.obj
 0003:0004d9b8       ??_C@_09KPCIEFBH@cffdriver?$AA@ 00000001802609b8     FreeType:ftdebug.obj
 0003:0004d9c8       ??_C@_08OAAIMLJM@cffgload?$AA@ 00000001802609c8     FreeType:ftdebug.obj
 0003:0004d9d8       ??_C@_07IFHBGAPL@cffload?$AA@ 00000001802609d8     FreeType:ftdebug.obj
 0003:0004d9e8       ??_C@_07DJGNKJIB@cffobjs?$AA@ 00000001802609e8     FreeType:ftdebug.obj
 0003:0004d9f8       ??_C@_08KCIBPEBD@cffparse?$AA@ 00000001802609f8     FreeType:ftdebug.obj
 0003:0004da08       ??_C@_08FKHBAMDK@cf2blues?$AA@ 0000000180260a08     FreeType:ftdebug.obj
 0003:0004da18       ??_C@_08KJPGLJPF@cf2hints?$AA@ 0000000180260a18     FreeType:ftdebug.obj
 0003:0004da28       ??_C@_09JKAEGHDO@cf2interp?$AA@ 0000000180260a28     FreeType:ftdebug.obj
 0003:0004da34       ??_C@_03PEPEAOBF@t42?$AA@  0000000180260a34     FreeType:ftdebug.obj
 0003:0004da38       ??_C@_06IEBHMLPI@cidafm?$AA@ 0000000180260a38     FreeType:ftdebug.obj
 0003:0004da40       ??_C@_09DCLEINLL@ciddriver?$AA@ 0000000180260a40     FreeType:ftdebug.obj
 0003:0004da50       ??_C@_08KOLHMIBJ@cidgload?$AA@ 0000000180260a50     FreeType:ftdebug.obj
 0003:0004da60       ??_C@_07DOPBLBBJ@cidload?$AA@ 0000000180260a60     FreeType:ftdebug.obj
 0003:0004da70       ??_C@_07ICONHIGD@cidobjs?$AA@ 0000000180260a70     FreeType:ftdebug.obj
 0003:0004da80       ??_C@_08OMDOPHJG@cidparse?$AA@ 0000000180260a80     FreeType:ftdebug.obj
 0003:0004da8c       ??_C@_06FFPCKLJN@winfnt?$AA@ 0000000180260a8c     FreeType:ftdebug.obj
 0003:0004da98       ??_C@_09CJCGDKLD@pcfdriver?$AA@ 0000000180260a98     FreeType:ftdebug.obj
 0003:0004daa8       ??_C@_07JFBALABD@pcfread?$AA@ 0000000180260aa8     FreeType:ftdebug.obj
 0003:0004dab8       ??_C@_09GOBMAGKP@bdfdriver?$AA@ 0000000180260ab8     FreeType:ftdebug.obj
 0003:0004dac4       ??_C@_06JKJAADNN@bdflib?$AA@ 0000000180260ac4     FreeType:ftdebug.obj
 0003:0004dad0       ??_C@_09IBDOHOJF@otvmodule?$AA@ 0000000180260ad0     FreeType:ftdebug.obj
 0003:0004dae0       ??_C@_09KIAOHPFL@otvcommon?$AA@ 0000000180260ae0     FreeType:ftdebug.obj
 0003:0004daf0       ??_C@_07HIBPHFMF@otvbase?$AA@ 0000000180260af0     FreeType:ftdebug.obj
 0003:0004db00       ??_C@_07LEKHIGIG@otvgdef?$AA@ 0000000180260b00     FreeType:ftdebug.obj
 0003:0004db10       ??_C@_07FBPOCFIM@otvgpos?$AA@ 0000000180260b10     FreeType:ftdebug.obj
 0003:0004db20       ??_C@_07BCDIPNE@otvgsub?$AA@ 0000000180260b20     FreeType:ftdebug.obj
 0003:0004db30       ??_C@_07JMBNOEFG@otvjstf?$AA@ 0000000180260b30     FreeType:ftdebug.obj
 0003:0004db40       ??_C@_07EKKOIKNM@otvmath?$AA@ 0000000180260b40     FreeType:ftdebug.obj
 0003:0004db50       ??_C@_09HENNMNHF@gxvmodule?$AA@ 0000000180260b50     FreeType:ftdebug.obj
 0003:0004db60       ??_C@_09FNONMMLL@gxvcommon?$AA@ 0000000180260b60     FreeType:ftdebug.obj
 0003:0004db70       ??_C@_07FKMDGBJN@gxvfeat?$AA@ 0000000180260b70     FreeType:ftdebug.obj
 0003:0004db80       ??_C@_07FMMOKNMB@gxvmort?$AA@ 0000000180260b80     FreeType:ftdebug.obj
 0003:0004db90       ??_C@_07PAHLOCMN@gxvmorx?$AA@ 0000000180260b90     FreeType:ftdebug.obj
 0003:0004dba0       ??_C@_07GCMEKGJG@gxvbsln?$AA@ 0000000180260ba0     FreeType:ftdebug.obj
 0003:0004dbb0       ??_C@_07NAIIKMBN@gxvjust?$AA@ 0000000180260bb0     FreeType:ftdebug.obj
 0003:0004dbc0       ??_C@_07MBOECNO@gxvkern?$AA@ 0000000180260bc0     FreeType:ftdebug.obj
 0003:0004dbd0       ??_C@_07HIJAAIEJ@gxvopbd?$AA@ 0000000180260bd0     FreeType:ftdebug.obj
 0003:0004dbe0       ??_C@_07EAHHMEMH@gxvtrak?$AA@ 0000000180260be0     FreeType:ftdebug.obj
 0003:0004dbf0       ??_C@_07BGFPIEJH@gxvprop?$AA@ 0000000180260bf0     FreeType:ftdebug.obj
 0003:0004dc00       ??_C@_07GDECIBGG@gxvlcar?$AA@ 0000000180260c00     FreeType:ftdebug.obj
 0003:0004dc10       ??_C@_08DOLNGLKF@afmodule?$AA@ 0000000180260c10     FreeType:ftdebug.obj
 0003:0004dc20       ??_C@_07JCGMALOO@afhints?$AA@ 0000000180260c20     FreeType:ftdebug.obj
 0003:0004dc2c       ??_C@_05HBDNKEDJ@afcjk?$AA@ 0000000180260c2c     FreeType:ftdebug.obj
 0003:0004dc38       ??_C@_07ONLLOJPN@aflatin?$AA@ 0000000180260c38     FreeType:ftdebug.obj
 0003:0004dc48       ??_C@_08COJBGBDJ@aflatin2?$AA@ 0000000180260c48     FreeType:ftdebug.obj
 0003:0004dc54       ??_C@_06CBNNOCOG@afwarp?$AA@ 0000000180260c54     FreeType:ftdebug.obj
 0003:0004dc60       ??_C@_08OBDFHMNF@afshaper?$AA@ 0000000180260c60     FreeType:ftdebug.obj
 0003:0004dc70       ??_C@_08HPFNDAGI@afglobal?$AA@ 0000000180260c70     FreeType:ftdebug.obj
 0003:0004dd78       ??_C@_09FCJCAHCG@FT2_DEBUG?$AA@ 0000000180260d78     FreeType:ftdebug.obj
 0003:0004e040       ??_C@_0FD@CNJMIEJF@d?3?2dev?2visual?5studio?52015?2projec@ 0000000180261040     FreeType:ftbitmap.obj
 0003:0004fff8       ??_C@_0CI@CGMOPDPD@oversubscribed?5dynamic?5bit?5lengt@ 0000000180262ff8     FreeType:ftgzip.obj
 0003:00050028       ??_C@_0CE@LOHAHEGK@incomplete?5dynamic?5bit?5lengths?5t@ 0000000180263028     FreeType:ftgzip.obj
 0003:00050058       ??_C@_0CD@GJIDGCKE@oversubscribed?5literal?1length?5tr@ 0000000180263058     FreeType:ftgzip.obj
 0003:00050088       ??_C@_0BP@NEEEJJNA@incomplete?5literal?1length?5tree?$AA@ 0000000180263088     FreeType:ftgzip.obj
 0003:000500b0       ??_C@_0BN@KBLCDIAI@oversubscribed?5distance?5tree?$AA@ 00000001802630b0     FreeType:ftgzip.obj
 0003:000500d8       ??_C@_0BJ@CBCPDPJF@incomplete?5distance?5tree?$AA@ 00000001802630d8     FreeType:ftgzip.obj
 0003:000500f8       ??_C@_0CB@KPKKKLFO@empty?5distance?5tree?5with?5lengths@ 00000001802630f8     FreeType:ftgzip.obj
 0003:00050120       ??_C@_0BM@FFFLPBBC@invalid?5literal?1length?5code?$AA@ 0000000180263120     FreeType:ftgzip.obj
 0003:00050148       ??_C@_0BG@LBKINIKP@invalid?5distance?5code?$AA@ 0000000180263148     FreeType:ftgzip.obj
 0003:00050168       ??_C@_0BD@PJCBIDD@invalid?5block?5type?$AA@ 0000000180263168     FreeType:ftgzip.obj
 0003:00050180       ??_C@_0BN@LGAADGOK@invalid?5stored?5block?5lengths?$AA@ 0000000180263180     FreeType:ftgzip.obj
 0003:000501a8       ??_C@_0CE@GMIGFPBB@too?5many?5length?5or?5distance?5symb@ 00000001802631a8     FreeType:ftgzip.obj
 0003:000501d8       ??_C@_0BK@BMMPFBBH@invalid?5bit?5length?5repeat?$AA@ 00000001802631d8     FreeType:ftgzip.obj
 0003:000501f8       ??_C@_05DOIEBMOI@1?41?44?$AA@ 00000001802631f8     FreeType:ftgzip.obj
 0003:00050200       ??_C@_0BL@IHKGDAEE@unknown?5compression?5method?$AA@ 0000000180263200     FreeType:ftgzip.obj
 0003:00050220       ??_C@_0BE@EMOGCLGO@invalid?5window?5size?$AA@ 0000000180263220     FreeType:ftgzip.obj
 0003:00050238       ??_C@_0BH@LIBMMIGA@incorrect?5header?5check?$AA@ 0000000180263238     FreeType:ftgzip.obj
 0003:00050258       ??_C@_0BA@MOKMMFOD@need?5dictionary?$AA@ 0000000180263258     FreeType:ftgzip.obj
 0003:00050270       ??_C@_0BF@MEIGEHBE@incorrect?5data?5check?$AA@ 0000000180263270     FreeType:ftgzip.obj
 0003:00050290       ??_C@_0FB@MKOIEDCH@d?3?2dev?2visual?5studio?52015?2projec@ 0000000180263290     FreeType:ftgzip.obj
 0003:00050580       ??_C@_0EP@GMEALNGA@d?3?2dev?2visual?5studio?52015?2projec@ 0000000180263580     FreeType:ftlzw.obj
 0003:000505e0       ??_C@_0FB@ODFAJBKA@d?3?2dev?2visual?5studio?52015?2projec@ 00000001802635e0     FreeType:ftlzw.obj
 0003:00050650       ??_7type_info@@6B@         0000000180263650     MSVCRTD:std_type_info_static.obj
 0003:00050678       _pDefaultRawDllMain        0000000180263678     MSVCRTD:dll_dllmain.obj
 0003:00050678       _pRawDllMain               0000000180263678     MSVCRTD:dll_dllmain.obj
 0003:000506b8       ??_C@_0BJ@HEGAHDFO@Stack?5pointer?5corruption?$AA@ 00000001802636b8     MSVCRTD:_userapi_.obj
 0003:000506d8       ??_C@_0CK@FEGOIOPB@Cast?5to?5smaller?5type?5causing?5los@ 00000001802636d8     MSVCRTD:_userapi_.obj
 0003:00050710       ??_C@_0BI@CIGMDCBH@Stack?5memory?5corruption?$AA@ 0000000180263710     MSVCRTD:_userapi_.obj
 0003:00050730       ??_C@_0CK@CNLNOEPB@Local?5variable?5used?5before?5initi@ 0000000180263730     MSVCRTD:_userapi_.obj
 0003:00050768       ??_C@_0BP@OGBCLIBO@Stack?5around?5_alloca?5corrupted?$AA@ 0000000180263768     MSVCRTD:_userapi_.obj
 0003:00050880       ??_C@_0NN@NGPKDKPD@The?5value?5of?5ESP?5was?5not?5properl@ 0000000180263880     MSVCRTD:_error_.obj
 0003:00050990       ??_C@_0BBN@GPMLNJCF@A?5cast?5to?5a?5smaller?5data?5type?5ha@ 0000000180263990     MSVCRTD:_error_.obj
 0003:00050ae8       ??_C@_0BN@FFOINMNJ@Stack?5memory?5was?5corrupted?6?$AN?$AA@ 0000000180263ae8     MSVCRTD:_error_.obj
 0003:00050b10       ??_C@_0DG@HKJMLLLP@A?5local?5variable?5was?5used?5before@ 0000000180263b10     MSVCRTD:_error_.obj
 0003:00050b50       ??_C@_0CM@NGINOKPC@Stack?5memory?5around?5_alloca?5was?5@ 0000000180263b50     MSVCRTD:_error_.obj
 0003:00050b88       ??_C@_0BO@GNIAFIKK@Unknown?5Runtime?5Check?5Error?6?$AN?$AA@ 0000000180263b88     MSVCRTD:_error_.obj
 0003:00050bb0       ??_C@_1GM@OLMCBDMB@?$AAR?$AAu?$AAn?$AAt?$AAi?$AAm?$AAe?$AA?5?$AAC?$AAh?$AAe?$AAc?$AAk?$AA?5?$AAE?$AAr?$AAr?$AAo?$AAr?$AA?4?$AA?6?$AA?$AN?$AA?5?$AAU?$AAn?$AAa?$AAb?$AAl?$AAe?$AA?5?$AAt?$AAo@ 0000000180263bb0     MSVCRTD:_error_.obj
 0003:00050c40       ??_C@_1EA@NFKNIFJP@?$AAR?$AAu?$AAn?$AA?9?$AAT?$AAi?$AAm?$AAe?$AA?5?$AAC?$AAh?$AAe?$AAc?$AAk?$AA?5?$AAF?$AAa?$AAi?$AAl?$AAu?$AAr?$AAe?$AA?5?$AA?$CD?$AA?$CF?$AAd?$AA?5?$AA?9?$AA?5?$AA?$CF?$AAs?$AA?$AA@ 0000000180263c40     MSVCRTD:_error_.obj
 0003:00050c90       ??_C@_0BB@PFFGGCJP@Unknown?5Filename?$AA@ 0000000180263c90     MSVCRTD:_error_.obj
 0003:00050ca8       ??_C@_0BE@GNBOBNCK@Unknown?5Module?5Name?$AA@ 0000000180263ca8     MSVCRTD:_error_.obj
 0003:00050cc0       ??_C@_0CA@IODNCDPG@Run?9Time?5Check?5Failure?5?$CD?$CFd?5?9?5?$CFs?$AA@ 0000000180263cc0     MSVCRTD:_error_.obj
 0003:00050ce8       ??_C@_0CG@IAFNJNEE@Stack?5corrupted?5near?5unknown?5var@ 0000000180263ce8     MSVCRTD:_error_.obj
 0003:00050d18       ??_C@_05MKKEDADM@?$CF?42X?5?$AA@ 0000000180263d18     MSVCRTD:_error_.obj
 0003:00050d20       ??_C@_0EJ@LJKNEOLN@Stack?5area?5around?5_alloca?5memory@ 0000000180263d20     MSVCRTD:_error_.obj
 0003:00050d78       ??_C@_08OMAHNMHJ@?6Data?3?5?$DM?$AA@ 0000000180263d78     MSVCRTD:_error_.obj
 0003:00050d88       ??_C@_0CK@DKGBICFE@?6Allocation?5number?5within?5this?5f@ 0000000180263d88     MSVCRTD:_error_.obj
 0003:00050dc0       ??_C@_07DFDJCKFN@?6Size?3?5?$AA@ 0000000180263dc0     MSVCRTD:_error_.obj
 0003:00050dd0       ??_C@_0N@MHFFIMFG@?6Address?3?50x?$AA@ 0000000180263dd0     MSVCRTD:_error_.obj
 0003:00050de0       ??_C@_0EI@CLEPFNGI@Stack?5area?5around?5_alloca?5memory@ 0000000180263de0     MSVCRTD:_error_.obj
 0003:00050e38       ??_C@_0BC@HHMKLAND@?$CFs?$CFs?$CFp?$CFs?$CFzd?$CFs?$CFd?$CFs?$AA@ 0000000180263e38     MSVCRTD:_error_.obj
 0003:00050e50       ??_C@_02LLMPMKNF@?$DO?5?$AA@ 0000000180263e50     MSVCRTD:_error_.obj
 0003:00050e58       ??_C@_08KJEDNCKC@?$CFs?$CFs?$CFs?$CFs?$AA@ 0000000180263e58     MSVCRTD:_error_.obj
 0003:00050e68       ??_C@_0DE@OHJBPMBP@A?5variable?5is?5being?5used?5without@ 0000000180263e68     MSVCRTD:_error_.obj
 0003:00050eb0       ??_7exception@std@@6B@     0000000180263eb0     MSVCRTD:throw_bad_alloc.obj
 0003:00050ec8       ??_C@_0BC@EOODALEL@Unknown?5exception?$AA@ 0000000180263ec8     MSVCRTD:throw_bad_alloc.obj
 0003:00050ee8       ??_7bad_alloc@std@@6B@     0000000180263ee8     MSVCRTD:throw_bad_alloc.obj
 0003:00050f00       ??_C@_0P@GHFPNOJB@bad?5allocation?$AA@ 0000000180263f00     MSVCRTD:throw_bad_alloc.obj
 0003:00050f20       ??_7bad_array_new_length@std@@6B@ 0000000180263f20     MSVCRTD:throw_bad_alloc.obj
 0003:00050f38       ??_C@_0BF@KINCDENJ@bad?5array?5new?5length?$AA@ 0000000180263f38     MSVCRTD:throw_bad_alloc.obj
 0003:00050fc0       ??_C@_1EI@MLPKHBGE@?$AAa?$AAp?$AAi?$AA?9?$AAm?$AAs?$AA?9?$AAw?$AAi?$AAn?$AA?9?$AAc?$AAo?$AAr?$AAe?$AA?9?$AAr?$AAe?$AAg?$AAi?$AAs?$AAt?$AAr?$AAy?$AA?9?$AAl?$AA1?$AA?9?$AA1?$AA?9?$AA0?$AA?4@ 0000000180263fc0     MSVCRTD:_pdblkup_.obj
 0003:00051018       ??_C@_1BK@JHLNAEJL@?$AAa?$AAd?$AAv?$AAa?$AAp?$AAi?$AA3?$AA2?$AA?4?$AAd?$AAl?$AAl?$AA?$AA@ 0000000180264018     MSVCRTD:_pdblkup_.obj
 0003:00051038       ??_C@_0O@COHOBMLB@RegOpenKeyExW?$AA@ 0000000180264038     MSVCRTD:_pdblkup_.obj
 0003:00051048       ??_C@_0BB@GLNAEDBD@RegQueryValueExW?$AA@ 0000000180264048     MSVCRTD:_pdblkup_.obj
 0003:00051060       ??_C@_0M@HLOHPNFA@RegCloseKey?$AA@ 0000000180264060     MSVCRTD:_pdblkup_.obj
 0003:00051070       ??_C@_1HE@EBEAGLFB@?$AAS?$AAO?$AAF?$AAT?$AAW?$AAA?$AAR?$AAE?$AA?2?$AAW?$AAo?$AAw?$AA6?$AA4?$AA3?$AA2?$AAN?$AAo?$AAd?$AAe?$AA?2?$AAM?$AAi?$AAc?$AAr?$AAo?$AAs?$AAo?$AAf?$AAt?$AA?2?$AAV@ 0000000180264070     MSVCRTD:_pdblkup_.obj
 0003:00051100       ??_C@_1BG@EABPBLLF@?$AAP?$AAr?$AAo?$AAd?$AAu?$AAc?$AAt?$AAD?$AAi?$AAr?$AA?$AA@ 0000000180264100     MSVCRTD:_pdblkup_.obj
 0003:00051148       ??_C@_1BC@JINFINNJ@?$AAM?$AAS?$AAP?$AAD?$AAB?$AA1?$AA4?$AA0?$AA?$AA@ 0000000180264148     MSVCRTD:_pdblkup_.obj
 0003:00051160       ??_C@_0BB@KCIACLNC@PDBOpenValidate5?$AA@ 0000000180264160     MSVCRTD:_pdblkup_.obj
 0003:00051174       ??_C@_01KDCPPGHE@r?$AA@    0000000180264174     MSVCRTD:_pdblkup_.obj
 0003:000511c0       _load_config_used          00000001802641c0     MSVCRTD:loadcfg.obj
 0003:00052118       ??_R4EventListener@FD@@6B@ 0000000180265118     eventdispatcher.obj
 0003:00052148       ??_R3EventListener@FD@@8   0000000180265148     eventdispatcher.obj
 0003:00052160       ??_R2EventListener@FD@@8   0000000180265160     eventdispatcher.obj
 0003:00052170       ??_R1A@?0A@EA@EventListener@FD@@8 0000000180265170     eventdispatcher.obj
 0003:000521a0       ??_R4Window@FD@@6B@        00000001802651a0     input.obj
 0003:000521d0       ??_R3Window@FD@@8          00000001802651d0     input.obj
 0003:000521e8       ??_R2Window@FD@@8          00000001802651e8     input.obj
 0003:00052200       ??_R1A@?0A@EA@Window@FD@@8 0000000180265200     input.obj
 0003:00052230       ??_R4Texture@FD@@6B@       0000000180265230     uibutton.obj
 0003:00052260       ??_R3Texture@FD@@8         0000000180265260     uibutton.obj
 0003:00052278       ??_R2Texture@FD@@8         0000000180265278     uibutton.obj
 0003:00052288       ??_R1A@?0A@EA@Texture@FD@@8 0000000180265288     uibutton.obj
 0003:000522b8       ??_R4Texture2D@FD@@6B@     00000001802652b8     uibutton.obj
 0003:000522e8       ??_R3Texture2D@FD@@8       00000001802652e8     uibutton.obj
 0003:00052300       ??_R2Texture2D@FD@@8       0000000180265300     uibutton.obj
 0003:00052318       ??_R1A@?0A@EA@Texture2D@FD@@8 0000000180265318     uibutton.obj
 0003:00052348       ??_R4Camera@FD@@6B@        0000000180265348     uibutton.obj
 0003:00052378       ??_R3Camera@FD@@8          0000000180265378     uibutton.obj
 0003:00052390       ??_R2Camera@FD@@8          0000000180265390     uibutton.obj
 0003:000523a0       ??_R1A@?0A@EA@Camera@FD@@8 00000001802653a0     uibutton.obj
 0003:000523d0       ??_R4Buffer@FD@@6B@        00000001802653d0     uibutton.obj
 0003:00052400       ??_R3Buffer@FD@@8          0000000180265400     uibutton.obj
 0003:00052418       ??_R2Buffer@FD@@8          0000000180265418     uibutton.obj
 0003:00052428       ??_R1A@?0A@EA@Buffer@FD@@8 0000000180265428     uibutton.obj
 0003:00052458       ??_R4VertexBuffer@FD@@6B@  0000000180265458     uibutton.obj
 0003:00052488       ??_R3VertexBuffer@FD@@8    0000000180265488     uibutton.obj
 0003:000524a0       ??_R2VertexBuffer@FD@@8    00000001802654a0     uibutton.obj
 0003:000524b8       ??_R1A@?0A@EA@VertexBuffer@FD@@8 00000001802654b8     uibutton.obj
 0003:000524e8       ??_R4IndexBuffer@FD@@6B@   00000001802654e8     uibutton.obj
 0003:00052518       ??_R3IndexBuffer@FD@@8     0000000180265518     uibutton.obj
 0003:00052530       ??_R2IndexBuffer@FD@@8     0000000180265530     uibutton.obj
 0003:00052548       ??_R1A@?0A@EA@IndexBuffer@FD@@8 0000000180265548     uibutton.obj
 0003:00052578       ??_R4Material@FD@@6B@      0000000180265578     uibutton.obj
 0003:000525a8       ??_R3Material@FD@@8        00000001802655a8     uibutton.obj
 0003:000525c0       ??_R2Material@FD@@8        00000001802655c0     uibutton.obj
 0003:000525d0       ??_R1A@?0A@EA@Material@FD@@8 00000001802655d0     uibutton.obj
 0003:00052600       ??_R4MaterialInstance@FD@@6B@ 0000000180265600     uibutton.obj
 0003:00052630       ??_R3MaterialInstance@FD@@8 0000000180265630     uibutton.obj
 0003:00052648       ??_R2MaterialInstance@FD@@8 0000000180265648     uibutton.obj
 0003:00052658       ??_R1A@?0A@EA@MaterialInstance@FD@@8 0000000180265658     uibutton.obj
 0003:00052688       ??_R4Entity@FD@@6B@        0000000180265688     uibutton.obj
 0003:000526b8       ??_R3Entity@FD@@8          00000001802656b8     uibutton.obj
 0003:000526d0       ??_R2Entity@FD@@8          00000001802656d0     uibutton.obj
 0003:000526e0       ??_R1A@?0A@EA@Entity@FD@@8 00000001802656e0     uibutton.obj
 0003:00052710       ??_R4Renderer@FD@@6B@      0000000180265710     uibutton.obj
 0003:00052740       ??_R3Renderer@FD@@8        0000000180265740     uibutton.obj
 0003:00052758       ??_R2Renderer@FD@@8        0000000180265758     uibutton.obj
 0003:00052770       ??_R1A@?0A@EA@Renderer@FD@@8 0000000180265770     uibutton.obj
 0003:000527a0       ??_R4BatchRenderer@FD@@6B@ 00000001802657a0     uibutton.obj
 0003:000527d0       ??_R3BatchRenderer@FD@@8   00000001802657d0     uibutton.obj
 0003:000527e8       ??_R2BatchRenderer@FD@@8   00000001802657e8     uibutton.obj
 0003:00052810       ??_R1A@?0A@EA@BatchRenderer@FD@@8 0000000180265810     uibutton.obj
 0003:00052840       ??_R4FontRenderer@FD@@6B@  0000000180265840     uibutton.obj
 0003:00052870       ??_R3FontRenderer@FD@@8    0000000180265870     uibutton.obj
 0003:00052888       ??_R2FontRenderer@FD@@8    0000000180265888     uibutton.obj
 0003:000528b8       ??_R1A@?0A@EA@FontRenderer@FD@@8 00000001802658b8     uibutton.obj
 0003:000528e8       ??_R4UIHandler@FD@@6B@     00000001802658e8     uibutton.obj
 0003:00052918       ??_R3UIHandler@FD@@8       0000000180265918     uibutton.obj
 0003:00052930       ??_R2UIHandler@FD@@8       0000000180265930     uibutton.obj
 0003:00052948       ??_R1A@?0A@EA@UIHandler@FD@@8 0000000180265948     uibutton.obj
 0003:00052978       ??_R4UIItem@FD@@6B@        0000000180265978     uibutton.obj
 0003:000529a8       ??_R3UIItem@FD@@8          00000001802659a8     uibutton.obj
 0003:000529c0       ??_R2UIItem@FD@@8          00000001802659c0     uibutton.obj
 0003:000529d0       ??_R1A@?0A@EA@UIItem@FD@@8 00000001802659d0     uibutton.obj
 0003:00052a00       ??_R4UIText@FD@@6B@        0000000180265a00     uibutton.obj
 0003:00052a30       ??_R3UIText@FD@@8          0000000180265a30     uibutton.obj
 0003:00052a48       ??_R2UIText@FD@@8          0000000180265a48     uibutton.obj
 0003:00052a58       ??_R1A@?0A@EA@UIText@FD@@8 0000000180265a58     uibutton.obj
 0003:00052a88       ??_R4UIButton@FD@@6B@      0000000180265a88     uibutton.obj
 0003:00052ab8       ??_R3UIButton@FD@@8        0000000180265ab8     uibutton.obj
 0003:00052ad0       ??_R2UIButton@FD@@8        0000000180265ad0     uibutton.obj
 0003:00052ae8       ??_R1A@?0A@EA@UIButton@FD@@8 0000000180265ae8     uibutton.obj
 0003:00052b18       ??_R4UITextAutoResize@FD@@6B@ 0000000180265b18     uibutton.obj
 0003:00052b48       ??_R3UITextAutoResize@FD@@8 0000000180265b48     uibutton.obj
 0003:00052b60       ??_R2UITextAutoResize@FD@@8 0000000180265b60     uibutton.obj
 0003:00052b78       ??_R1A@?0A@EA@UITextAutoResize@FD@@8 0000000180265b78     uibutton.obj
 0003:00052ba8       ??_R4UITextHorizontalScroll@FD@@6B@ 0000000180265ba8     uibutton.obj
 0003:00052bd8       ??_R3UITextHorizontalScroll@FD@@8 0000000180265bd8     uibutton.obj
 0003:00052bf0       ??_R2UITextHorizontalScroll@FD@@8 0000000180265bf0     uibutton.obj
 0003:00052c18       ??_R1A@?0A@EA@UITextHorizontalScroll@FD@@8 0000000180265c18     uibutton.obj
 0003:00052c48       ??_R4UIGroup@FD@@6B@       0000000180265c48     uigroup.obj
 0003:00052c78       ??_R3UIGroup@FD@@8         0000000180265c78     uigroup.obj
 0003:00052c90       ??_R2UIGroup@FD@@8         0000000180265c90     uigroup.obj
 0003:00052ca8       ??_R1A@?0A@EA@UIGroup@FD@@8 0000000180265ca8     uigroup.obj
 0003:00052cd8       ??_R4UISlider@FD@@6B@      0000000180265cd8     uislider.obj
 0003:00052d08       ??_R3UISlider@FD@@8        0000000180265d08     uislider.obj
 0003:00052d20       ??_R2UISlider@FD@@8        0000000180265d20     uislider.obj
 0003:00052d38       ??_R1A@?0A@EA@UISlider@FD@@8 0000000180265d38     uislider.obj
 0003:00052d68       ??_R4UISlider_Handle@UISlider@FD@@6B@ 0000000180265d68     uislider_handle.obj
 0003:00052d98       ??_R3UISlider_Handle@UISlider@FD@@8 0000000180265d98     uislider_handle.obj
 0003:00052db0       ??_R2UISlider_Handle@UISlider@FD@@8 0000000180265db0     uislider_handle.obj
 0003:00052dc8       ??_R1A@?0A@EA@UISlider_Handle@UISlider@FD@@8 0000000180265dc8     uislider_handle.obj
 0003:00052df8       ??_R4UITextBox@FD@@6B@     0000000180265df8     uitextbox.obj
 0003:00052e28       ??_R3UITextBox@FD@@8       0000000180265e28     uitextbox.obj
 0003:00052e40       ??_R2UITextBox@FD@@8       0000000180265e40     uitextbox.obj
 0003:00052e58       ??_R1A@?0A@EA@UITextBox@FD@@8 0000000180265e58     uitextbox.obj
 0003:00052e88       ??_R4UITextHorizontalScroll_Cursor@UITextHorizontalScroll@FD@@6B@ 0000000180265e88     uitext_horizontal_scroll_cursor.obj
 0003:00052eb8       ??_R3UITextHorizontalScroll_Cursor@UITextHorizontalScroll@FD@@8 0000000180265eb8     uitext_horizontal_scroll_cursor.obj
 0003:00052ed0       ??_R2UITextHorizontalScroll_Cursor@UITextHorizontalScroll@FD@@8 0000000180265ed0     uitext_horizontal_scroll_cursor.obj
 0003:00052ee8       ??_R1A@?0A@EA@UITextHorizontalScroll_Cursor@UITextHorizontalScroll@FD@@8 0000000180265ee8     uitext_horizontal_scroll_cursor.obj
 0003:00052f18       ??_R4Framebuffer2D@FD@@6B@ 0000000180265f18     frodo.obj
 0003:00052f48       ??_R3Framebuffer2D@FD@@8   0000000180265f48     frodo.obj
 0003:00052f60       ??_R2Framebuffer2D@FD@@8   0000000180265f60     frodo.obj
 0003:00052f78       ??_R1A@?0A@EA@Framebuffer2D@FD@@8 0000000180265f78     frodo.obj
 0003:00052fa8       ??_R1A@?0A@EN@Texture@FD@@8 0000000180265fa8     frodo.obj
 0003:00052fd8       ??_R4MenuRenderer@FD@@6B@  0000000180265fd8     frodo.obj
 0003:00053008       ??_R3MenuRenderer@FD@@8    0000000180266008     frodo.obj
 0003:00053020       ??_R2MenuRenderer@FD@@8    0000000180266020     frodo.obj
 0003:00053050       ??_R1A@?0A@EA@MenuRenderer@FD@@8 0000000180266050     frodo.obj
 0003:00053080       ??_R4UserCamera@FD@@6BCamera@1@@ 0000000180266080     frodo.obj
 0003:000530b0       ??_R3UserCamera@FD@@8      00000001802660b0     frodo.obj
 0003:000530c8       ??_R2UserCamera@FD@@8      00000001802660c8     frodo.obj
 0003:000530f0       ??_R1A@?0A@EA@UserCamera@FD@@8 00000001802660f0     frodo.obj
 0003:00053120       ??_R1KA@?0A@EA@EventListener@FD@@8 0000000180266120     frodo.obj
 0003:00053150       ??_R4UserCamera@FD@@6BEventListener@1@@ 0000000180266150     frodo.obj
 0003:00053180       ??_R4FDApplication@FD@@6B@ 0000000180266180     frodo.obj
 0003:000531b0       ??_R3FDApplication@FD@@8   00000001802661b0     frodo.obj
 0003:000531c8       ??_R2FDApplication@FD@@8   00000001802661c8     frodo.obj
 0003:000531d8       ??_R1A@?0A@EA@FDApplication@FD@@8 00000001802661d8     frodo.obj
 0003:00053208       ??_R4type_info@@6B@        0000000180266208     MSVCRTD:std_type_info_static.obj
 0003:00053238       ??_R3type_info@@8          0000000180266238     MSVCRTD:std_type_info_static.obj
 0003:00053250       ??_R2type_info@@8          0000000180266250     MSVCRTD:std_type_info_static.obj
 0003:00053260       ??_R1A@?0A@EA@type_info@@8 0000000180266260     MSVCRTD:std_type_info_static.obj
 0003:00053290       ??_R4exception@std@@6B@    0000000180266290     MSVCRTD:throw_bad_alloc.obj
 0003:000532c0       ??_R3exception@std@@8      00000001802662c0     MSVCRTD:throw_bad_alloc.obj
 0003:000532d8       ??_R2exception@std@@8      00000001802662d8     MSVCRTD:throw_bad_alloc.obj
 0003:000532e8       ??_R1A@?0A@EA@exception@std@@8 00000001802662e8     MSVCRTD:throw_bad_alloc.obj
 0003:00053318       ??_R4bad_alloc@std@@6B@    0000000180266318     MSVCRTD:throw_bad_alloc.obj
 0003:00053348       ??_R3bad_alloc@std@@8      0000000180266348     MSVCRTD:throw_bad_alloc.obj
 0003:00053360       ??_R2bad_alloc@std@@8      0000000180266360     MSVCRTD:throw_bad_alloc.obj
 0003:00053378       ??_R1A@?0A@EA@bad_alloc@std@@8 0000000180266378     MSVCRTD:throw_bad_alloc.obj
 0003:000533a8       ??_R4bad_array_new_length@std@@6B@ 00000001802663a8     MSVCRTD:throw_bad_alloc.obj
 0003:000533d8       ??_R3bad_array_new_length@std@@8 00000001802663d8     MSVCRTD:throw_bad_alloc.obj
 0003:000533f0       ??_R2bad_array_new_length@std@@8 00000001802663f0     MSVCRTD:throw_bad_alloc.obj
 0003:00053418       ??_R1A@?0A@EA@bad_array_new_length@std@@8 0000000180266418     MSVCRTD:throw_bad_alloc.obj
 0003:00053730       __rtc_iaa                  0000000180266730     MSVCRTD:_initsect_.obj
 0003:00053e60       __rtc_izz                  0000000180266e60     MSVCRTD:_initsect_.obj
 0003:00053f70       __rtc_taa                  0000000180266f70     MSVCRTD:_initsect_.obj
 0003:000546a0       __rtc_tzz                  00000001802676a0     MSVCRTD:_initsect_.obj
 0003:00069480       _TI2?AVbad_alloc@std@@     000000018027c480     MSVCRTD:throw_bad_alloc.obj
 0003:000694a0       _CTA2?AVbad_alloc@std@@    000000018027c4a0     MSVCRTD:throw_bad_alloc.obj
 0003:000694b8       _CT??_R0?AVbad_alloc@std@@@8??0bad_alloc@std@@QEAA@AEBV01@@Z24 000000018027c4b8     MSVCRTD:throw_bad_alloc.obj
 0003:000694e0       _CT??_R0?AVexception@std@@@8??0exception@std@@QEAA@AEBV01@@Z24 000000018027c4e0     MSVCRTD:throw_bad_alloc.obj
 0003:00069508       _TI3?AVbad_array_new_length@std@@ 000000018027c508     MSVCRTD:throw_bad_alloc.obj
 0003:00069528       _CTA3?AVbad_array_new_length@std@@ 000000018027c528     MSVCRTD:throw_bad_alloc.obj
 0003:00069548       _CT??_R0?AVbad_array_new_length@std@@@8??0bad_array_new_length@std@@QEAA@AEBV01@@Z24 000000018027c548     MSVCRTD:throw_bad_alloc.obj
 0004:00000000       ?__LINE__Var@?0??get_size_from_format@FD@@YAIW4DXGI_FORMAT@@@Z@4JA 000000018028a000     bufferlayout.obj
 0004:00000004       ?__LINE__Var@?0??Push@BufferLayout@FD@@AEAAXAEBVString@3@W4DXGI_FORMAT@@I@Z@4JA 000000018028a004     bufferlayout.obj
 0004:00000008       ?__LINE__Var@?0??get_buffer_format@FD@@YA?AW4DXGI_FORMAT@@W4FD_INDEXBUFFER_FORMAT@2@@Z@4JA 000000018028a008     indexbuffer.obj
 0004:0000000c       ?__LINE__Var@?0???0IndexBuffer@FD@@QEAA@PEAX_KW4FD_INDEXBUFFER_FORMAT@2@@Z@4JA 000000018028a00c     indexbuffer.obj
 0004:00000010       ?__LINE__Var@?0???0VertexBuffer@FD@@QEAA@II@Z@4JA 000000018028a010     vertexbuffer.obj
 0004:00000014       ?__LINE__Var@?0???0VertexBuffer@FD@@QEAA@PEAX_KI_N@Z@4JA 000000018028a014     vertexbuffer.obj
 0004:00000018       ?__LINE__Var@?0??Map@VertexBuffer@FD@@QEAAPEAXW4FD_MAP_FLAG@3@@Z@4JA 000000018028a018     vertexbuffer.obj
 0004:00000020       ?col@FD@@3PAMA             000000018028a020     d3dcontext.obj
 0004:00000034       ?__LINE__Var@?0??Compile@Shader@FD@@AEAAXVString@3@0@Z@4JA 000000018028a034     shader.obj
 0004:000000c0       ?__LINE__Var@?0???0Framebuffer2D@FD@@QEAA@IIW4FD_TEXTURE_FORMAT@2@_N@Z@4JA 000000018028a0c0     framebuffer2d.obj
 0004:000000c4       ?__LINE__Var@?0??Load@Texture@FD@@SAPEAEAEBVString@3@PEAI11@Z@4JA 000000018028a0c4     texture.obj
 0004:000000c8       ?__LINE__Var@?0??Load@Texture@FD@@SAPEAEPEAXPEAI11@Z@4JA 000000018028a0c8     texture.obj
 0004:000000cc       ?__LINE__Var@?0???0Texture2D@FD@@QEAA@AEBVString@2@@Z@4JA 000000018028a0cc     texture2d.obj
 0004:000000d0       ?__LINE__Var@?0???0Texture2D@FD@@QEAA@PEAXIIW4FD_TEXTURE_FORMAT@2@@Z@4JA 000000018028a0d0     texture2d.obj
 0004:000000d4       ?__LINE__Var@?0??Remove@String@FD@@QEAAAEAV23@_K0@Z@4JA 000000018028a0d4     string.obj
 0004:000000d8       ?__LINE__Var@?0??FT_Init_FreeType@@9@9 000000018028a0d8     FreeType:ftinit.obj
 0004:000000dc       ?__LINE__Var@?0??FT_Done_FreeType@@9@9 000000018028a0dc     FreeType:ftinit.obj
 0004:000000e0       ?__LINE__Var@?0??_ft_face_scale_advances@@9@9 000000018028a0e0     FreeType:ftbase.obj
 0004:000000e4       ?__LINE__Var@?0??FT_Get_Advance@@9@9 000000018028a0e4     FreeType:ftbase.obj
 0004:000000e8       ?__LINE__Var@?0??FT_Get_Advances@@9@9 000000018028a0e8     FreeType:ftbase.obj
 0004:000000ec       ?__LINE__Var@?0??FT_Matrix_Invert@@9@9 000000018028a0ec     FreeType:ftbase.obj
 0004:000000f0       ?__LINE__Var@?0??FT_GlyphLoader_CheckPoints@@9@9 000000018028a0f0     FreeType:ftbase.obj
 0004:000000f4       ?__LINE__Var@?0??FT_Stream_New@@9@9 000000018028a0f4     FreeType:ftbase.obj
 0004:000000f8       ?__LINE__Var@?0??ft_glyphslot_set_bitmap@@9@9 000000018028a0f8     FreeType:ftbase.obj
 0004:000000fc       ?__LINE__Var@?0??FT_New_GlyphSlot@@9@9 000000018028a0fc     FreeType:ftbase.obj
 0004:00000100       ?__LINE__Var@?0??FT_Load_Glyph@@9@9 000000018028a100     FreeType:ftbase.obj
 0004:00000104       ?__LINE__Var@?0??FT_Load_Char@@9@9 000000018028a104     FreeType:ftbase.obj
 0004:00000108       ?__LINE__Var@?0??find_unicode_charmap@@9@9 000000018028a108     FreeType:ftbase.obj
 0004:0000010c       ?__LINE__Var@?0??find_variant_selector_charmap@@9@9 000000018028a10c     FreeType:ftbase.obj
 0004:00000110       ?__LINE__Var@?0??FT_New_Face@@9@9 000000018028a110     FreeType:ftbase.obj
 0004:00000114       ?__LINE__Var@?0??FT_New_Memory_Face@@9@9 000000018028a114     FreeType:ftbase.obj
 0004:00000118       ?__LINE__Var@?0??new_memory_stream@@9@9 000000018028a118     FreeType:ftbase.obj
 0004:0000011c       ?__LINE__Var@?0??ft_lookup_PS_in_sfnt_stream@@9@9 000000018028a11c     FreeType:ftbase.obj
 0004:00000120       ?__LINE__Var@?0??open_face_PS_from_sfnt_stream@@9@9 000000018028a120     FreeType:ftbase.obj
 0004:00000124       ?__LINE__Var@?0??Mac_Read_POST_Resource@@9@9 000000018028a124     FreeType:ftbase.obj
 0004:00000128       ?__LINE__Var@?0??Mac_Read_sfnt_Resource@@9@9 000000018028a128     FreeType:ftbase.obj
 0004:0000012c       ?__LINE__Var@?0??IsMacBinary@@9@9 000000018028a12c     FreeType:ftbase.obj
 0004:00000130       ?__LINE__Var@?0??FT_Open_Face@@9@9 000000018028a130     FreeType:ftbase.obj
 0004:00000134       ?__LINE__Var@?0??FT_Attach_File@@9@9 000000018028a134     FreeType:ftbase.obj
 0004:00000138       ?__LINE__Var@?0??FT_Attach_Stream@@9@9 000000018028a138     FreeType:ftbase.obj
 0004:0000013c       ?__LINE__Var@?0??FT_Reference_Face@@9@9 000000018028a13c     FreeType:ftbase.obj
 0004:00000140       ?__LINE__Var@?0??FT_New_Size@@9@9 000000018028a140     FreeType:ftbase.obj
 0004:00000144       ?__LINE__Var@?0??FT_Done_Size@@9@9 000000018028a144     FreeType:ftbase.obj
 0004:00000148       ?__LINE__Var@?0??FT_Match_Size@@9@9 000000018028a148     FreeType:ftbase.obj
 0004:0000014c       ?__LINE__Var@?0??FT_Select_Size@@9@9 000000018028a14c     FreeType:ftbase.obj
 0004:00000150       ?__LINE__Var@?0??FT_Request_Size@@9@9 000000018028a150     FreeType:ftbase.obj
 0004:00000154       ?__LINE__Var@?0??FT_Get_Kerning@@9@9 000000018028a154     FreeType:ftbase.obj
 0004:00000158       ?__LINE__Var@?0??FT_Get_Track_Kerning@@9@9 000000018028a158     FreeType:ftbase.obj
 0004:0000015c       ?__LINE__Var@?0??FT_Select_Charmap@@9@9 000000018028a15c     FreeType:ftbase.obj
 0004:00000160       ?__LINE__Var@?0??FT_Set_Charmap@@9@9 000000018028a160     FreeType:ftbase.obj
 0004:00000164       ?__LINE__Var@?0??FT_Get_Charmap_Index@@9@9 000000018028a164     FreeType:ftbase.obj
 0004:00000168       ?__LINE__Var@?0??FT_CMap_New@@9@9 000000018028a168     FreeType:ftbase.obj
 0004:0000016c       ?__LINE__Var@?0??FT_Get_Glyph_Name@@9@9 000000018028a16c     FreeType:ftbase.obj
 0004:00000170       ?__LINE__Var@?0??FT_Load_Sfnt_Table@@9@9 000000018028a170     FreeType:ftbase.obj
 0004:00000174       ?__LINE__Var@?0??FT_Sfnt_Table_Info@@9@9 000000018028a174     FreeType:ftbase.obj
 0004:00000178       ?__LINE__Var@?0??FT_Activate_Size@@9@9 000000018028a178     FreeType:ftbase.obj
 0004:0000017c       ?__LINE__Var@?0??FT_Set_Renderer@@9@9 000000018028a17c     FreeType:ftbase.obj
 0004:00000180       ?__LINE__Var@?0??FT_Render_Glyph@@9@9 000000018028a180     FreeType:ftbase.obj
 0004:00000184       ?__LINE__Var@?0??FT_Add_Module@@9@9 000000018028a184     FreeType:ftbase.obj
 0004:00000188       ?__LINE__Var@?0??ft_module_get_service@@9@9 000000018028a188     FreeType:ftbase.obj
 0004:0000018c       ?__LINE__Var@?0??FT_Remove_Module@@9@9 000000018028a18c     FreeType:ftbase.obj
 0004:00000190       ?__LINE__Var@?0??ft_property_do@@9@9 000000018028a190     FreeType:ftbase.obj
 0004:00000194       ?__LINE__Var@?0??FT_Reference_Library@@9@9 000000018028a194     FreeType:ftbase.obj
 0004:00000198       ?__LINE__Var@?0??FT_New_Library@@9@9 000000018028a198     FreeType:ftbase.obj
 0004:0000019c       ?__LINE__Var@?0??FT_Done_Library@@9@9 000000018028a19c     FreeType:ftbase.obj
 0004:000001a0       ?__LINE__Var@?0??FT_Outline_Decompose@@9@9 000000018028a1a0     FreeType:ftbase.obj
 0004:000001a4       ?__LINE__Var@?0??FT_Outline_New_Internal@@9@9 000000018028a1a4     FreeType:ftbase.obj
 0004:000001a8       ?__LINE__Var@?0??FT_Outline_New@@9@9 000000018028a1a8     FreeType:ftbase.obj
 0004:000001ac       ?__LINE__Var@?0??FT_Outline_Check@@9@9 000000018028a1ac     FreeType:ftbase.obj
 0004:000001b0       ?__LINE__Var@?0??FT_Outline_Copy@@9@9 000000018028a1b0     FreeType:ftbase.obj
 0004:000001b4       ?__LINE__Var@?0??FT_Outline_Done_Internal@@9@9 000000018028a1b4     FreeType:ftbase.obj
 0004:000001b8       ?__LINE__Var@?0??FT_Outline_Done@@9@9 000000018028a1b8     FreeType:ftbase.obj
 0004:000001bc       ?__LINE__Var@?0??FT_Outline_Render@@9@9 000000018028a1bc     FreeType:ftbase.obj
 0004:000001c0       ?__LINE__Var@?0??FT_Outline_Get_Bitmap@@9@9 000000018028a1c0     FreeType:ftbase.obj
 0004:000001c4       ?__LINE__Var@?0??FT_Outline_EmboldenXY@@9@9 000000018028a1c4     FreeType:ftbase.obj
 0004:000001c8       ?__LINE__Var@?0??FT_Raccess_Get_HeaderInfo@@9@9 000000018028a1c8     FreeType:ftbase.obj
 0004:000001cc       ?__LINE__Var@?0??FT_Raccess_Get_DataOffsets@@9@9 000000018028a1cc     FreeType:ftbase.obj
 0004:000001d0       ?__LINE__Var@?0??raccess_guess_apple_double@@9@9 000000018028a1d0     FreeType:ftbase.obj
 0004:000001d4       ?__LINE__Var@?0??raccess_guess_apple_single@@9@9 000000018028a1d4     FreeType:ftbase.obj
 0004:000001d8       ?__LINE__Var@?0??raccess_guess_darwin_ufs_export@@9@9 000000018028a1d8     FreeType:ftbase.obj
 0004:000001dc       ?__LINE__Var@?0??raccess_guess_darwin_hfsplus@@9@9 000000018028a1dc     FreeType:ftbase.obj
 0004:000001e0       ?__LINE__Var@?0??raccess_guess_darwin_newvfs@@9@9 000000018028a1e0     FreeType:ftbase.obj
 0004:000001e4       ?__LINE__Var@?0??raccess_guess_vfat@@9@9 000000018028a1e4     FreeType:ftbase.obj
 0004:000001e8       ?__LINE__Var@?0??raccess_guess_linux_cap@@9@9 000000018028a1e8     FreeType:ftbase.obj
 0004:000001ec       ?__LINE__Var@?0??raccess_guess_linux_double@@9@9 000000018028a1ec     FreeType:ftbase.obj
 0004:000001f0       ?__LINE__Var@?0??raccess_guess_linux_netatalk@@9@9 000000018028a1f0     FreeType:ftbase.obj
 0004:000001f4       ?__LINE__Var@?0??raccess_guess_apple_generic@@9@9 000000018028a1f4     FreeType:ftbase.obj
 0004:000001f8       ?__LINE__Var@?0??FT_Stream_Seek@@9@9 000000018028a1f8     FreeType:ftbase.obj
 0004:000001fc       ?__LINE__Var@?0??FT_Stream_Skip@@9@9 000000018028a1fc     FreeType:ftbase.obj
 0004:00000200       ?__LINE__Var@?0??FT_Stream_ReadAt@@9@9 000000018028a200     FreeType:ftbase.obj
 0004:00000204       ?__LINE__Var@?0??FT_Stream_EnterFrame@@9@9 000000018028a204     FreeType:ftbase.obj
 0004:00000208       ?__LINE__Var@?0??FT_Stream_ExitFrame@@9@9 000000018028a208     FreeType:ftbase.obj
 0004:0000020c       ?__LINE__Var@?0??FT_Stream_GetChar@@9@9 000000018028a20c     FreeType:ftbase.obj
 0004:00000210       ?__LINE__Var@?0??FT_Stream_GetUShort@@9@9 000000018028a210     FreeType:ftbase.obj
 0004:00000214       ?__LINE__Var@?0??FT_Stream_GetUShortLE@@9@9 000000018028a214     FreeType:ftbase.obj
 0004:00000218       ?__LINE__Var@?0??FT_Stream_GetUOffset@@9@9 000000018028a218     FreeType:ftbase.obj
 0004:0000021c       ?__LINE__Var@?0??FT_Stream_GetULong@@9@9 000000018028a21c     FreeType:ftbase.obj
 0004:00000220       ?__LINE__Var@?0??FT_Stream_GetULongLE@@9@9 000000018028a220     FreeType:ftbase.obj
 0004:00000224       ?__LINE__Var@?0??FT_Stream_ReadChar@@9@9 000000018028a224     FreeType:ftbase.obj
 0004:00000228       ?__LINE__Var@?0??FT_Stream_ReadUShort@@9@9 000000018028a228     FreeType:ftbase.obj
 0004:0000022c       ?__LINE__Var@?0??FT_Stream_ReadUShortLE@@9@9 000000018028a22c     FreeType:ftbase.obj
 0004:00000230       ?__LINE__Var@?0??FT_Stream_ReadUOffset@@9@9 000000018028a230     FreeType:ftbase.obj
 0004:00000234       ?__LINE__Var@?0??FT_Stream_ReadULong@@9@9 000000018028a234     FreeType:ftbase.obj
 0004:00000238       ?__LINE__Var@?0??FT_Stream_ReadULongLE@@9@9 000000018028a238     FreeType:ftbase.obj
 0004:0000023c       ?__LINE__Var@?0??FT_Stream_ReadFields@@9@9 000000018028a23c     FreeType:ftbase.obj
 0004:00000240       ?__LINE__Var@?0??ft_mem_qalloc@@9@9 000000018028a240     FreeType:ftbase.obj
 0004:00000244       ?__LINE__Var@?0??ft_mem_qrealloc@@9@9 000000018028a244     FreeType:ftbase.obj
 0004:00000248       ?__LINE__Var@?0??FT_List_Iterate@@9@9 000000018028a248     FreeType:ftbase.obj
 0004:00000250       af_style_names             000000018028a250     FreeType:autofit.obj
 0004:00000490       ?__LINE__Var@?0??af_face_globals_get_metrics@@9@9 000000018028a490     FreeType:autofit.obj
 0004:00000494       ?__LINE__Var@?0??af_axis_hints_new_segment@@9@9 000000018028a494     FreeType:autofit.obj
 0004:00000498       ?__LINE__Var@?0??af_axis_hints_new_edge@@9@9 000000018028a498     FreeType:autofit.obj
 0004:0000049c       ?__LINE__Var@?0??af_glyph_hints_align_weak_points@@9@9 000000018028a49c     FreeType:autofit.obj
 0004:000004a0       ?__LINE__Var@?0??af_loader_load_g@@9@9 000000018028a4a0     FreeType:autofit.obj
 0004:000004a4       ?__LINE__Var@?0??af_loader_load_glyph@@9@9 000000018028a4a4     FreeType:autofit.obj
 0004:000004a8       ?__LINE__Var@?0??af_property_get_face_globals@@9@9 000000018028a4a8     FreeType:autofit.obj
 0004:000004ac       ?__LINE__Var@?0??af_property_set@@9@9 000000018028a4ac     FreeType:autofit.obj
 0004:000004b0       ?__LINE__Var@?0??af_property_get@@9@9 000000018028a4b0     FreeType:autofit.obj
 0004:000004b4       ?__LINE__Var@?0??tt_property_set@@9@9 000000018028a4b4     FreeType:truetype.obj
 0004:000004b8       ?__LINE__Var@?0??tt_property_get@@9@9 000000018028a4b8     FreeType:truetype.obj
 0004:000004bc       ?__LINE__Var@?0??tt_glyph_load@@9@9 000000018028a4bc     FreeType:truetype.obj
 0004:000004c0       ?__LINE__Var@?0??tt_face_load_loca@@9@9 000000018028a4c0     FreeType:truetype.obj
 0004:000004c4       ?__LINE__Var@?0??tt_face_load_hdmx@@9@9 000000018028a4c4     FreeType:truetype.obj
 0004:000004c8       ?__LINE__Var@?0??TT_Load_Glyph_Header@@9@9 000000018028a4c8     FreeType:truetype.obj
 0004:000004cc       ?__LINE__Var@?0??TT_Load_Simple_Glyph@@9@9 000000018028a4cc     FreeType:truetype.obj
 0004:000004d0       ?__LINE__Var@?0??TT_Load_Composite_Glyph@@9@9 000000018028a4d0     FreeType:truetype.obj
 0004:000004d4       ?__LINE__Var@?0??TT_Process_Composite_Component@@9@9 000000018028a4d4     FreeType:truetype.obj
 0004:000004d8       ?__LINE__Var@?0??TT_Process_Composite_Glyph@@9@9 000000018028a4d8     FreeType:truetype.obj
 0004:000004dc       ?__LINE__Var@?0??load_truetype_glyph@@9@9 000000018028a4dc     FreeType:truetype.obj
 0004:000004e0       ?__LINE__Var@?0??tt_loader_init@@9@9 000000018028a4e0     FreeType:truetype.obj
 0004:000004e4       ?__LINE__Var@?0??TT_Load_Glyph@@9@9 000000018028a4e4     FreeType:truetype.obj
 0004:000004e8       ?__LINE__Var@?0??tt_face_init@@9@9 000000018028a4e8     FreeType:truetype.obj
 0004:000004ec       ?__LINE__Var@?0??tt_size_reset@@9@9 000000018028a4ec     FreeType:truetype.obj
 0004:000004f0       ?__LINE__Var@?0??TT_Goto_CodeRange@@9@9 000000018028a4f0     FreeType:truetype.obj
 0004:000004f4       ?__LINE__Var@?0??TT_Set_CodeRange@@9@9 000000018028a4f4     FreeType:truetype.obj
 0004:000004f8       ?__LINE__Var@?0??TT_Clear_CodeRange@@9@9 000000018028a4f8     FreeType:truetype.obj
 0004:000004fc       ?__LINE__Var@?0??Ins_Goto_CodeRange@@9@9 000000018028a4fc     FreeType:truetype.obj
 0004:00000500       ?__LINE__Var@?0??Ins_DIV@@9@9 000000018028a500     FreeType:truetype.obj
 0004:00000504       ?__LINE__Var@?0??Ins_RS@@9@9 000000018028a504     FreeType:truetype.obj
 0004:00000508       ?__LINE__Var@?0??Ins_WS@@9@9 000000018028a508     FreeType:truetype.obj
 0004:0000050c       ?__LINE__Var@?0??Ins_WCVTP@@9@9 000000018028a50c     FreeType:truetype.obj
 0004:00000510       ?__LINE__Var@?0??Ins_WCVTF@@9@9 000000018028a510     FreeType:truetype.obj
 0004:00000514       ?__LINE__Var@?0??Ins_RCVT@@9@9 000000018028a514     FreeType:truetype.obj
 0004:00000518       ?__LINE__Var@?0??Ins_DEBUG@@9@9 000000018028a518     FreeType:truetype.obj
 0004:0000051c       ?__LINE__Var@?0??Ins_MINDEX@@9@9 000000018028a51c     FreeType:truetype.obj
 0004:00000520       ?__LINE__Var@?0??Ins_CINDEX@@9@9 000000018028a520     FreeType:truetype.obj
 0004:00000524       ?__LINE__Var@?0??Ins_SLOOP@@9@9 000000018028a524     FreeType:truetype.obj
 0004:00000528       ?__LINE__Var@?0??SkipCode@@9@9 000000018028a528     FreeType:truetype.obj
 0004:0000052c       ?__LINE__Var@?0??Ins_JMPR@@9@9 000000018028a52c     FreeType:truetype.obj
 0004:00000530       ?__LINE__Var@?0??Ins_FDEF@@9@9 000000018028a530     FreeType:truetype.obj
 0004:00000534       ?__LINE__Var@?0??Ins_ENDF@@9@9 000000018028a534     FreeType:truetype.obj
 0004:00000538       ?__LINE__Var@?0??Ins_CALL@@9@9 000000018028a538     FreeType:truetype.obj
 0004:0000053c       ?__LINE__Var@?0??Ins_LOOPCALL@@9@9 000000018028a53c     FreeType:truetype.obj
 0004:00000540       ?__LINE__Var@?0??Ins_IDEF@@9@9 000000018028a540     FreeType:truetype.obj
 0004:00000544       ?__LINE__Var@?0??Ins_NPUSHB@@9@9 000000018028a544     FreeType:truetype.obj
 0004:00000548       ?__LINE__Var@?0??Ins_NPUSHW@@9@9 000000018028a548     FreeType:truetype.obj
 0004:0000054c       ?__LINE__Var@?0??Ins_PUSHB@@9@9 000000018028a54c     FreeType:truetype.obj
 0004:00000550       ?__LINE__Var@?0??Ins_PUSHW@@9@9 000000018028a550     FreeType:truetype.obj
 0004:00000554       ?__LINE__Var@?0??Ins_SxVTL@@9@9 000000018028a554     FreeType:truetype.obj
 0004:00000558       ?__LINE__Var@?0??Ins_SDS@@9@9 000000018028a558     FreeType:truetype.obj
 0004:0000055c       ?__LINE__Var@?0??Ins_GC@@9@9 000000018028a55c     FreeType:truetype.obj
 0004:00000560       ?__LINE__Var@?0??Ins_SCFS@@9@9 000000018028a560     FreeType:truetype.obj
 0004:00000564       ?__LINE__Var@?0??Ins_MD@@9@9 000000018028a564     FreeType:truetype.obj
 0004:00000568       ?__LINE__Var@?0??Ins_SDPVTL@@9@9 000000018028a568     FreeType:truetype.obj
 0004:0000056c       ?__LINE__Var@?0??Ins_SZP0@@9@9 000000018028a56c     FreeType:truetype.obj
 0004:00000570       ?__LINE__Var@?0??Ins_SZP1@@9@9 000000018028a570     FreeType:truetype.obj
 0004:00000574       ?__LINE__Var@?0??Ins_SZP2@@9@9 000000018028a574     FreeType:truetype.obj
 0004:00000578       ?__LINE__Var@?0??Ins_SZPS@@9@9 000000018028a578     FreeType:truetype.obj
 0004:0000057c       ?__LINE__Var@?0??Ins_INSTCTRL@@9@9 000000018028a57c     FreeType:truetype.obj
 0004:00000580       ?__LINE__Var@?0??Ins_FLIPPT@@9@9 000000018028a580     FreeType:truetype.obj
 0004:00000584       ?__LINE__Var@?0??Ins_FLIPRGON@@9@9 000000018028a584     FreeType:truetype.obj
 0004:00000588       ?__LINE__Var@?0??Ins_FLIPRGOFF@@9@9 000000018028a588     FreeType:truetype.obj
 0004:0000058c       ?__LINE__Var@?0??Compute_Point_Displacement@@9@9 000000018028a58c     FreeType:truetype.obj
 0004:00000590       ?__LINE__Var@?0??Ins_SHP@@9@9 000000018028a590     FreeType:truetype.obj
 0004:00000594       ?__LINE__Var@?0??Ins_SHC@@9@9 000000018028a594     FreeType:truetype.obj
 0004:00000598       ?__LINE__Var@?0??Ins_SHZ@@9@9 000000018028a598     FreeType:truetype.obj
 0004:0000059c       ?__LINE__Var@?0??Ins_SHPIX@@9@9 000000018028a59c     FreeType:truetype.obj
 0004:000005a0       ?__LINE__Var@?0??Ins_MSIRP@@9@9 000000018028a5a0     FreeType:truetype.obj
 0004:000005a4       ?__LINE__Var@?0??Ins_MDAP@@9@9 000000018028a5a4     FreeType:truetype.obj
 0004:000005a8       ?__LINE__Var@?0??Ins_MIAP@@9@9 000000018028a5a8     FreeType:truetype.obj
 0004:000005ac       ?__LINE__Var@?0??Ins_MDRP@@9@9 000000018028a5ac     FreeType:truetype.obj
 0004:000005b0       ?__LINE__Var@?0??Ins_MIRP@@9@9 000000018028a5b0     FreeType:truetype.obj
 0004:000005b4       ?__LINE__Var@?0??Ins_ALIGNRP@@9@9 000000018028a5b4     FreeType:truetype.obj
 0004:000005b8       ?__LINE__Var@?0??Ins_ISECT@@9@9 000000018028a5b8     FreeType:truetype.obj
 0004:000005bc       ?__LINE__Var@?0??Ins_ALIGNPTS@@9@9 000000018028a5bc     FreeType:truetype.obj
 0004:000005c0       ?__LINE__Var@?0??Ins_IP@@9@9 000000018028a5c0     FreeType:truetype.obj
 0004:000005c4       ?__LINE__Var@?0??Ins_UTP@@9@9 000000018028a5c4     FreeType:truetype.obj
 0004:000005c8       ?__LINE__Var@?0??Ins_DELTAP@@9@9 000000018028a5c8     FreeType:truetype.obj
 0004:000005cc       ?__LINE__Var@?0??Ins_DELTAC@@9@9 000000018028a5cc     FreeType:truetype.obj
 0004:000005d0       ?__LINE__Var@?0??Ins_GETVARIATION@@9@9 000000018028a5d0     FreeType:truetype.obj
 0004:000005d4       ?__LINE__Var@?0??Ins_UNKNOWN@@9@9 000000018028a5d4     FreeType:truetype.obj
 0004:000005d8       ?__LINE__Var@?0??TT_RunIns@@9@9 000000018028a5d8     FreeType:truetype.obj
 0004:000005dc       ?__LINE__Var@?0??ft_var_load_gvar@@9@9 000000018028a5dc     FreeType:truetype.obj
 0004:000005e0       ?__LINE__Var@?0??TT_Get_MM_Var@@9@9 000000018028a5e0     FreeType:truetype.obj
 0004:000005e4       ?__LINE__Var@?0??TT_Set_MM_Blend@@9@9 000000018028a5e4     FreeType:truetype.obj
 0004:000005e8       ?__LINE__Var@?0??TT_Set_Var_Design@@9@9 000000018028a5e8     FreeType:truetype.obj
 0004:000005ec       ?__LINE__Var@?0??tt_face_vary_cvt@@9@9 000000018028a5ec     FreeType:truetype.obj
 0004:000005f0       ?__LINE__Var@?0??TT_Vary_Apply_Glyph_Deltas@@9@9 000000018028a5f0     FreeType:truetype.obj
 0004:000005f4       ?__LINE__Var@?0??check_type1_format@@9@9 000000018028a5f4     FreeType:type1.obj
 0004:000005f8       ?__LINE__Var@?0??T1_Get_Private_Dict@@9@9 000000018028a5f8     FreeType:type1.obj
 0004:000005fc       ?__LINE__Var@?0??t1_allocate_blend@@9@9 000000018028a5fc     FreeType:type1.obj
 0004:00000600       ?__LINE__Var@?0??T1_Get_Multi_Master@@9@9 000000018028a600     FreeType:type1.obj
 0004:00000604       ?__LINE__Var@?0??mm_weights_unmap@@9@9 000000018028a604     FreeType:type1.obj
 0004:00000608       ?__LINE__Var@?0??T1_Set_MM_Blend@@9@9 000000018028a608     FreeType:type1.obj
 0004:0000060c       ?__LINE__Var@?0??T1_Set_MM_Design@@9@9 000000018028a60c     FreeType:type1.obj
 0004:00000610       ?__LINE__Var@?0??parse_blend_axis_types@@9@9 000000018028a610     FreeType:type1.obj
 0004:00000614       ?__LINE__Var@?0??parse_blend_design_positions@@9@9 000000018028a614     FreeType:type1.obj
 0004:00000618       ?__LINE__Var@?0??parse_blend_design_map@@9@9 000000018028a618     FreeType:type1.obj
 0004:0000061c       ?__LINE__Var@?0??parse_weight_vector@@9@9 000000018028a61c     FreeType:type1.obj
 0004:00000620       ?__LINE__Var@?0??read_binary_data@@9@9 000000018028a620     FreeType:type1.obj
 0004:00000624       ?__LINE__Var@?0??t1_parse_font_matrix@@9@9 000000018028a624     FreeType:type1.obj
 0004:00000628       ?__LINE__Var@?0??parse_encoding@@9@9 000000018028a628     FreeType:type1.obj
 0004:0000062c       ?__LINE__Var@?0??parse_subrs@@9@9 000000018028a62c     FreeType:type1.obj
 0004:00000630       ?__LINE__Var@?0??parse_charstrings@@9@9 000000018028a630     FreeType:type1.obj
 0004:00000634       ?__LINE__Var@?0??parse_dict@@9@9 000000018028a634     FreeType:type1.obj
 0004:00000638       ?__LINE__Var@?0??T1_Open_Face@@9@9 000000018028a638     FreeType:type1.obj
 0004:0000063c       ?__LINE__Var@?0??T1_Face_Done@@9@9 000000018028a63c     FreeType:type1.obj
 0004:00000640       ?__LINE__Var@?0??T1_Face_Init@@9@9 000000018028a640     FreeType:type1.obj
 0004:00000644       ?__LINE__Var@?0??T1_Compute_Max_Advance@@9@9 000000018028a644     FreeType:type1.obj
 0004:00000648       ?__LINE__Var@?0??T1_Load_Glyph@@9@9 000000018028a648     FreeType:type1.obj
 0004:0000064c       ?__LINE__Var@?0??T1_Read_PFM@@9@9 000000018028a64c     FreeType:type1.obj
 0004:00000650       ?__LINE__Var@?0??T1_Get_Track_Kerning@@9@9 000000018028a650     FreeType:type1.obj
 0004:00000654       ?__LINE__Var@?0??cff_glyph_load@@9@9 000000018028a654     FreeType:cff.obj
 0004:00000658       ?__LINE__Var@?0??cff_get_glyph_name@@9@9 000000018028a658     FreeType:cff.obj
 0004:0000065c       ?__LINE__Var@?0??cff_get_ros@@9@9 000000018028a65c     FreeType:cff.obj
 0004:00000660       ?__LINE__Var@?0??cff_get_cid_from_glyph_index@@9@9 000000018028a660     FreeType:cff.obj
 0004:00000664       ?__LINE__Var@?0??cff_property_set@@9@9 000000018028a664     FreeType:cff.obj
 0004:00000668       ?__LINE__Var@?0??cff_property_get@@9@9 000000018028a668     FreeType:cff.obj
 0004:0000066c       ?__LINE__Var@?0??cff_parse_fixed_dynamic@@9@9 000000018028a66c     FreeType:cff.obj
 0004:00000670       ?__LINE__Var@?0??cff_parse_private_dict@@9@9 000000018028a670     FreeType:cff.obj
 0004:00000674       ?__LINE__Var@?0??cff_parse_multiple_master@@9@9 000000018028a674     FreeType:cff.obj
 0004:00000678       ?__LINE__Var@?0??cff_parser_run@@9@9 000000018028a678     FreeType:cff.obj
 0004:0000067c       ?__LINE__Var@?0??cff_index_init@@9@9 000000018028a67c     FreeType:cff.obj
 0004:00000680       ?__LINE__Var@?0??cff_index_access_element@@9@9 000000018028a680     FreeType:cff.obj
 0004:00000684       ?__LINE__Var@?0??CFF_Load_FD_Select@@9@9 000000018028a684     FreeType:cff.obj
 0004:00000688       ?__LINE__Var@?0??cff_charset_load@@9@9 000000018028a688     FreeType:cff.obj
 0004:0000068c       ?__LINE__Var@?0??cff_encoding_load@@9@9 000000018028a68c     FreeType:cff.obj
 0004:00000690       ?__LINE__Var@?0??cff_font_load@@9@9 000000018028a690     FreeType:cff.obj
 0004:00000694       ?__LINE__Var@?0??cff_face_init@@9@9 000000018028a694     FreeType:cff.obj
 0004:00000698       ?__LINE__Var@?0??cff_decoder_prepare@@9@9 000000018028a698     FreeType:cff.obj
 0004:0000069c       ?__LINE__Var@?0??cff_slot_load@@9@9 000000018028a69c     FreeType:cff.obj
 0004:000006a0       ?__LINE__Var@?0??cff_cmap_unicode_init@@9@9 000000018028a6a0     FreeType:cff.obj
 0004:000006a4       ?__LINE__Var@?0??cf2_arrstack_init@@9@9 000000018028a6a4     FreeType:cff.obj
 0004:000006a8       ?__LINE__Var@?0??cf2_arrstack_finalize@@9@9 000000018028a6a8     FreeType:cff.obj
 0004:000006ac       ?__LINE__Var@?0??cf2_arrstack_setNumElements@@9@9 000000018028a6ac     FreeType:cff.obj
 0004:000006b0       ?__LINE__Var@?0??cf2_arrstack_setCount@@9@9 000000018028a6b0     FreeType:cff.obj
 0004:000006b4       ?__LINE__Var@?0??cf2_arrstack_clear@@9@9 000000018028a6b4     FreeType:cff.obj
 0004:000006b8       ?__LINE__Var@?0??cf2_arrstack_size@@9@9 000000018028a6b8     FreeType:cff.obj
 0004:000006bc       ?__LINE__Var@?0??cf2_arrstack_getBuffer@@9@9 000000018028a6bc     FreeType:cff.obj
 0004:000006c0       ?__LINE__Var@?0??cf2_arrstack_getPointer@@9@9 000000018028a6c0     FreeType:cff.obj
 0004:000006c4       ?__LINE__Var@?0??cf2_arrstack_push@@9@9 000000018028a6c4     FreeType:cff.obj
 0004:000006c8       ?__LINE__Var@?0??cf2_blues_capture@@9@9 000000018028a6c8     FreeType:cff.obj
 0004:000006cc       ?__LINE__Var@?0??cf2_checkTransform@@9@9 000000018028a6cc     FreeType:cff.obj
 0004:000006d0       ?__LINE__Var@?0??cf2_setGlyphWidth@@9@9 000000018028a6d0     FreeType:cff.obj
 0004:000006d4       ?__LINE__Var@?0??cf2_builder_moveTo@@9@9 000000018028a6d4     FreeType:cff.obj
 0004:000006d8       ?__LINE__Var@?0??cf2_builder_lineTo@@9@9 000000018028a6d8     FreeType:cff.obj
 0004:000006dc       ?__LINE__Var@?0??cf2_builder_cubeTo@@9@9 000000018028a6dc     FreeType:cff.obj
 0004:000006e0       ?__LINE__Var@?0??cf2_getScaleAndHintFlag@@9@9 000000018028a6e0     FreeType:cff.obj
 0004:000006e4       ?__LINE__Var@?0??cf2_getUnitsPerEm@@9@9 000000018028a6e4     FreeType:cff.obj
 0004:000006e8       ?__LINE__Var@?0??cf2_decoder_parse_charstrings@@9@9 000000018028a6e8     FreeType:cff.obj
 0004:000006ec       ?__LINE__Var@?0??cf2_getSubfont@@9@9 000000018028a6ec     FreeType:cff.obj
 0004:000006f0       ?__LINE__Var@?0??cf2_getPpemY@@9@9 000000018028a6f0     FreeType:cff.obj
 0004:000006f4       ?__LINE__Var@?0??cf2_getStdVW@@9@9 000000018028a6f4     FreeType:cff.obj
 0004:000006f8       ?__LINE__Var@?0??cf2_getStdHW@@9@9 000000018028a6f8     FreeType:cff.obj
 0004:000006fc       ?__LINE__Var@?0??cf2_getBlueMetrics@@9@9 000000018028a6fc     FreeType:cff.obj
 0004:00000700       ?__LINE__Var@?0??cf2_getBlueValues@@9@9 000000018028a700     FreeType:cff.obj
 0004:00000704       ?__LINE__Var@?0??cf2_getOtherBlues@@9@9 000000018028a704     FreeType:cff.obj
 0004:00000708       ?__LINE__Var@?0??cf2_getFamilyBlues@@9@9 000000018028a708     FreeType:cff.obj
 0004:0000070c       ?__LINE__Var@?0??cf2_getFamilyOtherBlues@@9@9 000000018028a70c     FreeType:cff.obj
 0004:00000710       ?__LINE__Var@?0??cf2_getLanguageGroup@@9@9 000000018028a710     FreeType:cff.obj
 0004:00000714       ?__LINE__Var@?0??cf2_initGlobalRegionBuffer@@9@9 000000018028a714     FreeType:cff.obj
 0004:00000718       ?__LINE__Var@?0??cf2_getSeacComponent@@9@9 000000018028a718     FreeType:cff.obj
 0004:0000071c       ?__LINE__Var@?0??cf2_freeSeacComponent@@9@9 000000018028a71c     FreeType:cff.obj
 0004:00000720       ?__LINE__Var@?0??cf2_initLocalRegionBuffer@@9@9 000000018028a720     FreeType:cff.obj
 0004:00000724       ?__LINE__Var@?0??cf2_getDefaultWidthX@@9@9 000000018028a724     FreeType:cff.obj
 0004:00000728       ?__LINE__Var@?0??cf2_getNominalWidthX@@9@9 000000018028a728     FreeType:cff.obj
 0004:0000072c       ?__LINE__Var@?0??cf2_outline_reset@@9@9 000000018028a72c     FreeType:cff.obj
 0004:00000730       ?__LINE__Var@?0??cf2_outline_close@@9@9 000000018028a730     FreeType:cff.obj
 0004:00000734       ?__LINE__Var@?0??cf2_hintmap_map@@9@9 000000018028a734     FreeType:cff.obj
 0004:00000738       ?__LINE__Var@?0??cf2_hintmap_adjustHints@@9@9 000000018028a738     FreeType:cff.obj
 0004:0000073c       ?__LINE__Var@?0??cf2_hintmap_insertHint@@9@9 000000018028a73c     FreeType:cff.obj
 0004:00000740       ?__LINE__Var@?0??cf2_glyphpath_pushPrevElem@@9@9 000000018028a740     FreeType:cff.obj
 0004:00000744       ?__LINE__Var@?0??cf2_glyphpath_lineTo@@9@9 000000018028a744     FreeType:cff.obj
 0004:00000748       ?__LINE__Var@?0??cf2_glyphpath_curveTo@@9@9 000000018028a748     FreeType:cff.obj
 0004:0000074c       ?__LINE__Var@?0??cf2_hintmask_setCounts@@9@9 000000018028a74c     FreeType:cff.obj
 0004:00000750       ?__LINE__Var@?0??cf2_hintmask_read@@9@9 000000018028a750     FreeType:cff.obj
 0004:00000754       ?__LINE__Var@?0??cf2_hintmask_setAll@@9@9 000000018028a754     FreeType:cff.obj
 0004:00000758       ?__LINE__Var@?0??cf2_interpT2CharString@@9@9 000000018028a758     FreeType:cff.obj
 0004:0000075c       ?__LINE__Var@?0??cf2_buf_readByte@@9@9 000000018028a75c     FreeType:cff.obj
 0004:00000760       ?__LINE__Var@?0??cf2_stack_pushInt@@9@9 000000018028a760     FreeType:cff.obj
 0004:00000764       ?__LINE__Var@?0??cf2_stack_pushFixed@@9@9 000000018028a764     FreeType:cff.obj
 0004:00000768       ?__LINE__Var@?0??cf2_stack_popInt@@9@9 000000018028a768     FreeType:cff.obj
 0004:0000076c       ?__LINE__Var@?0??cf2_stack_popFixed@@9@9 000000018028a76c     FreeType:cff.obj
 0004:00000770       ?__LINE__Var@?0??cf2_stack_getReal@@9@9 000000018028a770     FreeType:cff.obj
 0004:00000774       ?__LINE__Var@?0??cf2_stack_roll@@9@9 000000018028a774     FreeType:cff.obj
 0004:00000778       ?__LINE__Var@?0??cid_parser_new@@9@9 000000018028a778     FreeType:type1cid.obj
 0004:0000077c       ?__LINE__Var@?0??cid_load_keyword@@9@9 000000018028a77c     FreeType:type1cid.obj
 0004:00000780       ?__LINE__Var@?0??cid_parse_font_matrix@@9@9 000000018028a780     FreeType:type1cid.obj
 0004:00000784       ?__LINE__Var@?0??parse_fd_array@@9@9 000000018028a784     FreeType:type1cid.obj
 0004:00000788       ?__LINE__Var@?0??cid_parse_dict@@9@9 000000018028a788     FreeType:type1cid.obj
 0004:0000078c       ?__LINE__Var@?0??cid_read_subrs@@9@9 000000018028a78c     FreeType:type1cid.obj
 0004:00000790       ?__LINE__Var@?0??cid_hex_to_binary@@9@9 000000018028a790     FreeType:type1cid.obj
 0004:00000794       ?__LINE__Var@?0??cid_face_open@@9@9 000000018028a794     FreeType:type1cid.obj
 0004:00000798       ?__LINE__Var@?0??cid_face_init@@9@9 000000018028a798     FreeType:type1cid.obj
 0004:0000079c       ?__LINE__Var@?0??cid_load_glyph@@9@9 000000018028a79c     FreeType:type1cid.obj
 0004:000007a0       ?__LINE__Var@?0??cid_slot_load_glyph@@9@9 000000018028a7a0     FreeType:type1cid.obj
 0004:000007a4       ?__LINE__Var@?0??pfr_extra_items_parse@@9@9 000000018028a7a4     FreeType:pfr.obj
 0004:000007a8       ?__LINE__Var@?0??pfr_log_font_count@@9@9 000000018028a7a8     FreeType:pfr.obj
 0004:000007ac       ?__LINE__Var@?0??pfr_log_font_load@@9@9 000000018028a7ac     FreeType:pfr.obj
 0004:000007b0       ?__LINE__Var@?0??pfr_extra_item_load_bitmap_info@@9@9 000000018028a7b0     FreeType:pfr.obj
 0004:000007b4       ?__LINE__Var@?0??pfr_extra_item_load_stem_snaps@@9@9 000000018028a7b4     FreeType:pfr.obj
 0004:000007b8       ?__LINE__Var@?0??pfr_extra_item_load_kerning_pairs@@9@9 000000018028a7b8     FreeType:pfr.obj
 0004:000007bc       ?__LINE__Var@?0??pfr_phy_font_load@@9@9 000000018028a7bc     FreeType:pfr.obj
 0004:000007c0       ?__LINE__Var@?0??pfr_glyph_line_to@@9@9 000000018028a7c0     FreeType:pfr.obj
 0004:000007c4       ?__LINE__Var@?0??pfr_glyph_curve_to@@9@9 000000018028a7c4     FreeType:pfr.obj
 0004:000007c8       ?__LINE__Var@?0??pfr_glyph_load_simple@@9@9 000000018028a7c8     FreeType:pfr.obj
 0004:000007cc       ?__LINE__Var@?0??pfr_glyph_load_compound@@9@9 000000018028a7cc     FreeType:pfr.obj
 0004:000007d0       ?__LINE__Var@?0??pfr_cmap_init@@9@9 000000018028a7d0     FreeType:pfr.obj
 0004:000007d4       ?__LINE__Var@?0??pfr_face_init@@9@9 000000018028a7d4     FreeType:pfr.obj
 0004:000007d8       ?__LINE__Var@?0??pfr_slot_load@@9@9 000000018028a7d8     FreeType:pfr.obj
 0004:000007dc       ?__LINE__Var@?0??pfr_load_bitmap_metrics@@9@9 000000018028a7dc     FreeType:pfr.obj
 0004:000007e0       ?__LINE__Var@?0??pfr_slot_load_bitmap@@9@9 000000018028a7e0     FreeType:pfr.obj
 0004:000007e4       ?__LINE__Var@?0??T42_Open_Face@@9@9 000000018028a7e4     FreeType:type42.obj
 0004:000007e8       ?__LINE__Var@?0??T42_Face_Init@@9@9 000000018028a7e8     FreeType:type42.obj
 0004:000007ec       ?__LINE__Var@?0??T42_Driver_Init@@9@9 000000018028a7ec     FreeType:type42.obj
 0004:000007f0       ?__LINE__Var@?0??t42_parser_init@@9@9 000000018028a7f0     FreeType:type42.obj
 0004:000007f4       ?__LINE__Var@?0??t42_parse_font_matrix@@9@9 000000018028a7f4     FreeType:type42.obj
 0004:000007f8       ?__LINE__Var@?0??t42_parse_encoding@@9@9 000000018028a7f8     FreeType:type42.obj
 0004:000007fc       ?__LINE__Var@?0??t42_parse_sfnts@@9@9 000000018028a7fc     FreeType:type42.obj
 0004:00000800       ?__LINE__Var@?0??t42_parse_charstrings@@9@9 000000018028a800     FreeType:type42.obj
 0004:00000804       ?__LINE__Var@?0??fnt_font_load@@9@9 000000018028a804     FreeType:winfnt.obj
 0004:00000808       ?__LINE__Var@?0??fnt_face_get_dll_font@@9@9 000000018028a808     FreeType:winfnt.obj
 0004:0000080c       ?__LINE__Var@?0??FNT_Face_Init@@9@9 000000018028a80c     FreeType:winfnt.obj
 0004:00000810       ?__LINE__Var@?0??FNT_Size_Request@@9@9 000000018028a810     FreeType:winfnt.obj
 0004:00000814       ?__LINE__Var@?0??FNT_Load_Glyph@@9@9 000000018028a814     FreeType:winfnt.obj
 0004:00000818       ?__LINE__Var@?0??pcf_read_TOC@@9@9 000000018028a818     FreeType:pcf.obj
 0004:0000081c       ?__LINE__Var@?0??pcf_seek_to_table_type@@9@9 000000018028a81c     FreeType:pcf.obj
 0004:00000820       ?__LINE__Var@?0??pcf_get_properties@@9@9 000000018028a820     FreeType:pcf.obj
 0004:00000824       ?__LINE__Var@?0??pcf_get_metrics@@9@9 000000018028a824     FreeType:pcf.obj
 0004:00000828       ?__LINE__Var@?0??pcf_get_bitmaps@@9@9 000000018028a828     FreeType:pcf.obj
 0004:0000082c       ?__LINE__Var@?0??pcf_get_encodings@@9@9 000000018028a82c     FreeType:pcf.obj
 0004:00000830       ?__LINE__Var@?0??pcf_load_font@@9@9 000000018028a830     FreeType:pcf.obj
 0004:00000834       ?__LINE__Var@?0??PCF_Face_Init@@9@9 000000018028a834     FreeType:pcf.obj
 0004:00000838       ?__LINE__Var@?0??PCF_Size_Request@@9@9 000000018028a838     FreeType:pcf.obj
 0004:0000083c       ?__LINE__Var@?0??PCF_Glyph_Load@@9@9 000000018028a83c     FreeType:pcf.obj
 0004:00000840       ?__LINE__Var@?0??pcf_get_bdf_property@@9@9 000000018028a840     FreeType:pcf.obj
 0004:00000844       ?__LINE__Var@?0??ps_table_add@@9@9 000000018028a844     FreeType:psaux.obj
 0004:00000848       ?__LINE__Var@?0??skip_string@@9@9 000000018028a848     FreeType:psaux.obj
 0004:0000084c       ?__LINE__Var@?0??skip_procedure@@9@9 000000018028a84c     FreeType:psaux.obj
 0004:00000850       ?__LINE__Var@?0??ps_parser_skip_PS_token@@9@9 000000018028a850     FreeType:psaux.obj
 0004:00000854       ?__LINE__Var@?0??ps_parser_load_field@@9@9 000000018028a854     FreeType:psaux.obj
 0004:00000858       ?__LINE__Var@?0??ps_parser_to_bytes@@9@9 000000018028a858     FreeType:psaux.obj
 0004:0000085c       ?__LINE__Var@?0??t1_builder_add_contour@@9@9 000000018028a85c     FreeType:psaux.obj
 0004:00000860       ?__LINE__Var@?0??t1operator_seac@@9@9 000000018028a860     FreeType:psaux.obj
 0004:00000864       ?__LINE__Var@?0??t1_decoder_parse_charstrings@@9@9 000000018028a864     FreeType:psaux.obj
 0004:00000868       ?__LINE__Var@?0??t1_decoder_init@@9@9 000000018028a868     FreeType:psaux.obj
 0004:0000086c       ?__LINE__Var@?0??t1_cmap_std_init@@9@9 000000018028a86c     FreeType:psaux.obj
 0004:00000870       ?__LINE__Var@?0??t1_cmap_custom_init@@9@9 000000018028a870     FreeType:psaux.obj
 0004:00000874       ?__LINE__Var@?0??afm_parser_read_int@@9@9 000000018028a874     FreeType:psaux.obj
 0004:00000878       ?__LINE__Var@?0??afm_parse_track_kern@@9@9 000000018028a878     FreeType:psaux.obj
 0004:0000087c       ?__LINE__Var@?0??afm_parse_kern_pairs@@9@9 000000018028a87c     FreeType:psaux.obj
 0004:00000880       ?__LINE__Var@?0??afm_parse_kern_data@@9@9 000000018028a880     FreeType:psaux.obj
 0004:00000884       ?__LINE__Var@?0??afm_parser_skip_section@@9@9 000000018028a884     FreeType:psaux.obj
 0004:00000888       ?__LINE__Var@?0??afm_parser_parse@@9@9 000000018028a888     FreeType:psaux.obj
 0004:0000088c       ?__LINE__Var@?0??ps_unicodes_init@@9@9 000000018028a88c     FreeType:psmodule.obj
 0004:00000890       ?__LINE__Var@?0??ps_hints_t1stem3@@9@9 000000018028a890     FreeType:pshinter.obj
 0004:00000894       ?__LINE__Var@?0??ps_hints_t1reset@@9@9 000000018028a894     FreeType:pshinter.obj
 0004:00000898       ?__LINE__Var@?0??New_Profile@@9@9 000000018028a898     FreeType:raster.obj
 0004:0000089c       ?__LINE__Var@?0??End_Profile@@9@9 000000018028a89c     FreeType:raster.obj
 0004:000008a0       ?__LINE__Var@?0??Insert_Y_Turn@@9@9 000000018028a8a0     FreeType:raster.obj
 0004:000008a4       ?__LINE__Var@?0??Line_Up@@9@9 000000018028a8a4     FreeType:raster.obj
 0004:000008a8       ?__LINE__Var@?0??Bezier_Up@@9@9 000000018028a8a8     FreeType:raster.obj
 0004:000008ac       ?__LINE__Var@?0??Decompose_Curve@@9@9 000000018028a8ac     FreeType:raster.obj
 0004:000008b0       ?__LINE__Var@?0??Draw_Sweep@@9@9 000000018028a8b0     FreeType:raster.obj
 0004:000008b4       ?__LINE__Var@?0??Render_Single_Pass@@9@9 000000018028a8b4     FreeType:raster.obj
 0004:000008b8       ?__LINE__Var@?0??ft_black_render@@9@9 000000018028a8b8     FreeType:raster.obj
 0004:000008bc       ?__LINE__Var@?0??ft_raster1_transform@@9@9 000000018028a8bc     FreeType:raster.obj
 0004:000008c0       ?__LINE__Var@?0??ft_raster1_render@@9@9 000000018028a8c0     FreeType:raster.obj
 0004:000008c4       ?__LINE__Var@?0??tt_face_goto_table@@9@9 000000018028a8c4     FreeType:sfnt.obj
 0004:000008c8       ?__LINE__Var@?0??check_table_dir@@9@9 000000018028a8c8     FreeType:sfnt.obj
 0004:000008cc       ?__LINE__Var@?0??tt_face_load_any@@9@9 000000018028a8cc     FreeType:sfnt.obj
 0004:000008d0       ?__LINE__Var@?0??tt_face_load_name@@9@9 000000018028a8d0     FreeType:sfnt.obj
 0004:000008d4       ?__LINE__Var@?0??tt_face_load_gasp@@9@9 000000018028a8d4     FreeType:sfnt.obj
 0004:000008d8       ?__LINE__Var@?0??tt_cmap0_validate@@9@9 000000018028a8d8     FreeType:sfnt.obj
 0004:000008dc       ?__LINE__Var@?0??tt_cmap2_validate@@9@9 000000018028a8dc     FreeType:sfnt.obj
 0004:000008e0       ?__LINE__Var@?0??tt_cmap4_validate@@9@9 000000018028a8e0     FreeType:sfnt.obj
 0004:000008e4       ?__LINE__Var@?0??tt_cmap6_validate@@9@9 000000018028a8e4     FreeType:sfnt.obj
 0004:000008e8       ?__LINE__Var@?0??tt_cmap8_validate@@9@9 000000018028a8e8     FreeType:sfnt.obj
 0004:000008ec       ?__LINE__Var@?0??tt_cmap10_validate@@9@9 000000018028a8ec     FreeType:sfnt.obj
 0004:000008f0       ?__LINE__Var@?0??tt_cmap12_validate@@9@9 000000018028a8f0     FreeType:sfnt.obj
 0004:000008f4       ?__LINE__Var@?0??tt_cmap13_validate@@9@9 000000018028a8f4     FreeType:sfnt.obj
 0004:000008f8       ?__LINE__Var@?0??tt_cmap14_validate@@9@9 000000018028a8f8     FreeType:sfnt.obj
 0004:000008fc       ?__LINE__Var@?0??tt_face_build_cmaps@@9@9 000000018028a8fc     FreeType:sfnt.obj
 0004:00000900       ?__LINE__Var@?0??tt_face_load_kern@@9@9 000000018028a900     FreeType:sfnt.obj
 0004:00000904       ?__LINE__Var@?0??tt_face_get_name@@9@9 000000018028a904     FreeType:sfnt.obj
 0004:00000908       ?__LINE__Var@?0??woff_open_font@@9@9 000000018028a908     FreeType:sfnt.obj
 0004:0000090c       ?__LINE__Var@?0??sfnt_open_font@@9@9 000000018028a90c     FreeType:sfnt.obj
 0004:00000910       ?__LINE__Var@?0??sfnt_init_face@@9@9 000000018028a910     FreeType:sfnt.obj
 0004:00000914       ?__LINE__Var@?0??sfnt_load_face@@9@9 000000018028a914     FreeType:sfnt.obj
 0004:00000918       ?__LINE__Var@?0??sfnt_table_info@@9@9 000000018028a918     FreeType:sfnt.obj
 0004:0000091c       ?__LINE__Var@?0??sfnt_get_charset_id@@9@9 000000018028a91c     FreeType:sfnt.obj
 0004:00000920       ?__LINE__Var@?0??tt_face_load_sbit@@9@9 000000018028a920     FreeType:sfnt.obj
 0004:00000924       ?__LINE__Var@?0??tt_face_load_strike_metrics@@9@9 000000018028a924     FreeType:sfnt.obj
 0004:00000928       ?__LINE__Var@?0??tt_sbit_decoder_init@@9@9 000000018028a928     FreeType:sfnt.obj
 0004:0000092c       ?__LINE__Var@?0??tt_sbit_decoder_alloc_bitmap@@9@9 000000018028a92c     FreeType:sfnt.obj
 0004:00000930       ?__LINE__Var@?0??tt_sbit_decoder_load_metrics@@9@9 000000018028a930     FreeType:sfnt.obj
 0004:00000934       ?__LINE__Var@?0??tt_sbit_decoder_load_byte_aligned@@9@9 000000018028a934     FreeType:sfnt.obj
 0004:00000938       ?__LINE__Var@?0??tt_sbit_decoder_load_bit_aligned@@9@9 000000018028a938     FreeType:sfnt.obj
 0004:0000093c       ?__LINE__Var@?0??tt_sbit_decoder_load_compound@@9@9 000000018028a93c     FreeType:sfnt.obj
 0004:00000940       ?__LINE__Var@?0??tt_sbit_decoder_load_bitmap@@9@9 000000018028a940     FreeType:sfnt.obj
 0004:00000944       ?__LINE__Var@?0??tt_sbit_decoder_load_image@@9@9 000000018028a944     FreeType:sfnt.obj
 0004:00000948       ?__LINE__Var@?0??tt_face_load_sbix_image@@9@9 000000018028a948     FreeType:sfnt.obj
 0004:0000094c       ?__LINE__Var@?0??tt_face_load_sbit_image@@9@9 000000018028a94c     FreeType:sfnt.obj
 0004:00000950       ?__LINE__Var@?0??load_format_20@@9@9 000000018028a950     FreeType:sfnt.obj
 0004:00000954       ?__LINE__Var@?0??load_format_25@@9@9 000000018028a954     FreeType:sfnt.obj
 0004:00000958       ?__LINE__Var@?0??load_post_names@@9@9 000000018028a958     FreeType:sfnt.obj
 0004:0000095c       ?__LINE__Var@?0??tt_face_get_ps_name@@9@9 000000018028a95c     FreeType:sfnt.obj
 0004:00000960       ?__LINE__Var@?0??tt_face_load_bdf_props@@9@9 000000018028a960     FreeType:sfnt.obj
 0004:00000964       ?__LINE__Var@?0??gray_convert_glyph_inner@@9@9 000000018028a964     FreeType:smooth.obj
 0004:00000968       ?__LINE__Var@?0??gray_raster_render@@9@9 000000018028a968     FreeType:smooth.obj
 0004:0000096c       ?__LINE__Var@?0??ft_smooth_transform@@9@9 000000018028a96c     FreeType:smooth.obj
 0004:00000970       ?__LINE__Var@?0??ft_smooth_render_generic@@9@9 000000018028a970     FreeType:smooth.obj
 0004:00000974       ?__LINE__Var@?0??_bdf_list_ensure@@9@9 000000018028a974     FreeType:bdf.obj
 0004:00000978       ?__LINE__Var@?0??_bdf_list_split@@9@9 000000018028a978     FreeType:bdf.obj
 0004:0000097c       ?__LINE__Var@?0??_bdf_readstream@@9@9 000000018028a97c     FreeType:bdf.obj
 0004:00000980       ?__LINE__Var@?0??bdf_create_property@@9@9 000000018028a980     FreeType:bdf.obj
 0004:00000984       ?__LINE__Var@?0??_bdf_set_default_spacing@@9@9 000000018028a984     FreeType:bdf.obj
 0004:00000988       ?__LINE__Var@?0??_bdf_add_property@@9@9 000000018028a988     FreeType:bdf.obj
 0004:0000098c       ?__LINE__Var@?0??_bdf_parse_glyphs@@9@9 000000018028a98c     FreeType:bdf.obj
 0004:00000990       ?__LINE__Var@?0??_bdf_parse_start@@9@9 000000018028a990     FreeType:bdf.obj
 0004:00000994       ?__LINE__Var@?0??bdf_load_font@@9@9 000000018028a994     FreeType:bdf.obj
 0004:00000998       ?__LINE__Var@?0??BDF_Face_Init@@9@9 000000018028a998     FreeType:bdf.obj
 0004:0000099c       ?__LINE__Var@?0??BDF_Size_Request@@9@9 000000018028a99c     FreeType:bdf.obj
 0004:000009a0       ?__LINE__Var@?0??BDF_Glyph_Load@@9@9 000000018028a9a0     FreeType:bdf.obj
 0004:000009a4       ?__LINE__Var@?0??bdf_get_bdf_property@@9@9 000000018028a9a4     FreeType:bdf.obj
 0004:000009a8       ?__LINE__Var@?0??FT_Stream_Open@@9@9 000000018028a9a8     FreeType:ftsystem.obj
 0004:00000d4c       ?__LINE__Var@?0??FT_Bitmap_Copy@@9@9 000000018028ad4c     FreeType:ftbitmap.obj
 0004:00000d50       ?__LINE__Var@?0??ft_bitmap_assure_buffer@@9@9 000000018028ad50     FreeType:ftbitmap.obj
 0004:00000d54       ?__LINE__Var@?0??FT_Bitmap_Embolden@@9@9 000000018028ad54     FreeType:ftbitmap.obj
 0004:00000d58       ?__LINE__Var@?0??FT_Bitmap_Convert@@9@9 000000018028ad58     FreeType:ftbitmap.obj
 0004:00000d5c       ?__LINE__Var@?0??FT_Bitmap_Done@@9@9 000000018028ad5c     FreeType:ftbitmap.obj
 0004:00000d60       ?__LINE__Var@?0??ft_gzip_check_header@@9@9 000000018028ad60     FreeType:ftgzip.obj
 0004:00000d64       ?__LINE__Var@?0??ft_gzip_file_init@@9@9 000000018028ad64     FreeType:ftgzip.obj
 0004:00000d68       ?__LINE__Var@?0??ft_gzip_file_fill_input@@9@9 000000018028ad68     FreeType:ftgzip.obj
 0004:00000d6c       ?__LINE__Var@?0??ft_gzip_file_fill_output@@9@9 000000018028ad6c     FreeType:ftgzip.obj
 0004:00000d70       ?__LINE__Var@?0??FT_Stream_OpenGzip@@9@9 000000018028ad70     FreeType:ftgzip.obj
 0004:00000d74       ?__LINE__Var@?0??FT_Gzip_Uncompress@@9@9 000000018028ad74     FreeType:ftgzip.obj
 0004:00000d78       ?__LINE__Var@?0??ft_lzw_check_header@@9@9 000000018028ad78     FreeType:ftlzw.obj
 0004:00000d7c       ?__LINE__Var@?0??ft_lzw_file_fill_output@@9@9 000000018028ad7c     FreeType:ftlzw.obj
 0004:00000d80       ?__LINE__Var@?0??ft_lzw_file_skip_output@@9@9 000000018028ad80     FreeType:ftlzw.obj
 0004:00000d84       ?__LINE__Var@?0??FT_Stream_OpenLZW@@9@9 000000018028ad84     FreeType:ftlzw.obj
 0004:00000d88       ?__LINE__Var@?0??ft_lzwstate_io@@9@9 000000018028ad88     FreeType:ftlzw.obj
 0004:00000d8c       __scrt_native_dllmain_reason 000000018028ad8c     MSVCRTD:utility.obj
 0004:00000d90       _fltused                   000000018028ad90     MSVCRTD:dllsupp.obj
 0004:00000da0       __security_cookie          000000018028ada0     MSVCRTD:gs_cookie.obj
 0004:00000da8       __security_cookie_complement 000000018028ada8     MSVCRTD:gs_cookie.obj
 0004:00000dc0       __isa_available            000000018028adc0     MSVCRTD:_cpu_disp_.obj
 0004:00000dc4       __isa_enabled              000000018028adc4     MSVCRTD:_cpu_disp_.obj
 0004:00000dc8       __memcpy_nt_iters          000000018028adc8     MSVCRTD:_cpu_disp_.obj
 0004:00000dd8       ?_RTC_ErrorLevels@@3PAHA   000000018028add8     MSVCRTD:_error_.obj
 0004:00000df0       _You_must_link_with_exactly_one_OpenMP_library 000000018028adf0     VCOMPD:unique.obj
 0004:00000df4       _You_must_link_with_Microsoft_OpenMP_library 000000018028adf4     VCOMPD:unique.obj
 0004:00000dfc       __scrt_ucrt_dll_is_in_use  000000018028adfc     MSVCRTD:ucrt_stubs.obj
 0004:00001080       ??_R0?AVEventListener@FD@@@8 000000018028b080     eventdispatcher.obj
 0004:000010b0       ??_R0?AVWindow@FD@@@8      000000018028b0b0     input.obj
 0004:000010d8       ??_R0?AVTexture@FD@@@8     000000018028b0d8     uibutton.obj
 0004:00001100       ??_R0?AVTexture2D@FD@@@8   000000018028b100     uibutton.obj
 0004:00001130       ??_R0?AVCamera@FD@@@8      000000018028b130     uibutton.obj
 0004:00001158       ??_R0?AVBuffer@FD@@@8      000000018028b158     uibutton.obj
 0004:00001180       ??_R0?AVVertexBuffer@FD@@@8 000000018028b180     uibutton.obj
 0004:000011b0       ??_R0?AVIndexBuffer@FD@@@8 000000018028b1b0     uibutton.obj
 0004:000011e0       ??_R0?AVMaterial@FD@@@8    000000018028b1e0     uibutton.obj
 0004:00001208       ??_R0?AVMaterialInstance@FD@@@8 000000018028b208     uibutton.obj
 0004:00001240       ??_R0?AVEntity@FD@@@8      000000018028b240     uibutton.obj
 0004:00001268       ??_R0?AVRenderer@FD@@@8    000000018028b268     uibutton.obj
 0004:00001290       ??_R0?AVBatchRenderer@FD@@@8 000000018028b290     uibutton.obj
 0004:000012c0       ??_R0?AVFontRenderer@FD@@@8 000000018028b2c0     uibutton.obj
 0004:000012f0       ??_R0?AVUIHandler@FD@@@8   000000018028b2f0     uibutton.obj
 0004:00001320       ??_R0?AVUIItem@FD@@@8      000000018028b320     uibutton.obj
 0004:00001348       ??_R0?AVUIText@FD@@@8      000000018028b348     uibutton.obj
 0004:00001370       ??_R0?AVUIButton@FD@@@8    000000018028b370     uibutton.obj
 0004:00001398       ??_R0?AVUITextAutoResize@FD@@@8 000000018028b398     uibutton.obj
 0004:000013d0       ??_R0?AVUITextHorizontalScroll@FD@@@8 000000018028b3d0     uibutton.obj
 0004:00001410       ??_R0?AVUIGroup@FD@@@8     000000018028b410     uigroup.obj
 0004:00001438       ??_R0?AVUISlider@FD@@@8    000000018028b438     uislider.obj
 0004:00001460       ??_R0?AVUISlider_Handle@UISlider@FD@@@8 000000018028b460     uislider_handle.obj
 0004:000014a0       ??_R0?AVUITextBox@FD@@@8   000000018028b4a0     uitextbox.obj
 0004:000014d0       ??_R0?AVUITextHorizontalScroll_Cursor@UITextHorizontalScroll@FD@@@8 000000018028b4d0     uitext_horizontal_scroll_cursor.obj
 0004:00001530       ??_R0?AVFramebuffer2D@FD@@@8 000000018028b530     frodo.obj
 0004:00001560       ??_R0?AVMenuRenderer@FD@@@8 000000018028b560     frodo.obj
 0004:00001590       ??_R0?AVUserCamera@FD@@@8  000000018028b590     frodo.obj
 0004:000015c0       ??_R0?AVFDApplication@FD@@@8 000000018028b5c0     frodo.obj
 0004:000015f0       ??_R0?AVtype_info@@@8      000000018028b5f0     MSVCRTD:std_type_info_static.obj
 0004:00001618       ??_R0?AVbad_alloc@std@@@8  000000018028b618     MSVCRTD:throw_bad_alloc.obj
 0004:00001648       ??_R0?AVexception@std@@@8  000000018028b648     MSVCRTD:throw_bad_alloc.obj
 0004:00001678       ??_R0?AVbad_array_new_length@std@@@8 000000018028b678     MSVCRTD:throw_bad_alloc.obj
 0004:000017e0       ?listeners@EventDispatcher@FD@@0V?$List@PEAVEventListener@FD@@@2@A 000000018028b7e0     eventdispatcher.obj
 0004:00001840       ?window@Input@FD@@0PEAVWindow@2@EA 000000018028b840     input.obj
 0004:00001848       ?mouseX@Input@FD@@2IA      000000018028b848     input.obj
 0004:0000184c       ?mouseY@Input@FD@@2IA      000000018028b84c     input.obj
 0004:00001850       ?prevKeys@Input@FD@@2PA_NA 000000018028b850     input.obj
 0004:0001184f       ?mouseCaptured@Input@FD@@2_NA 000000018029b84f     input.obj
 0004:00011850       ?keys@Input@FD@@2PA_NA     000000018029b850     input.obj
 0004:00027eb8       ?_OptionsStorage@?1??__local_stdio_printf_options@@9@4_KA 00000001802b1eb8     input.obj
 0004:00027f00       ?window_handels@Window@FD@@0V?$Map@PEAUHWND__@@PEAVWindow@FD@@@2@A 00000001802b1f00     window.obj
 0004:0003b290       ?pContext@D3DContext@FD@@0PEAV12@EA 00000001802c5290     d3dcontext.obj
 0004:0003b2a0       ?defaultFont@Font@FD@@0PEAV12@EA 00000001802c52a0     font.obj
 0004:0003b308       ?_OptionsStorage@?1??__local_stdio_scanf_options@@9@4_KA 00000001802c5308     meshfactory.obj
 0004:0003b4d0       ?textures@TextureManager@FD@@0V?$Map@PEADPEAVTexture@FD@@@2@A 00000001802c54d0     texturemanager.obj
 0004:0003b520       ?assets@AssetManager@FD@@2V?$List@PEAVAsset@FD@@@2@A 00000001802c5520     assetmanager.obj
 0004:0003b548       ?instance@VFS@FD@@0PEAV12@EA 00000001802c5548     vfs.obj
 0004:0003b558       __scrt_current_native_startup_state 00000001802c5558     MSVCRTD:utility.obj
 0004:0003b560       __scrt_native_startup_lock 00000001802c5560     MSVCRTD:utility.obj
 0004:0003bc3c       __favor                    00000001802c5c3c     MSVCRTD:_cpu_disp_.obj
 0004:0003bc40       __scrt_debugger_hook_flag  00000001802c5c40     MSVCRTD:utility_desktop.obj
 0004:0003bc60       ?__type_info_root_node@@3U__type_info_node@@A 00000001802c5c60     MSVCRTD:tncleanup.obj
 0004:0003bca0       ft_trace_levels            00000001802c5ca0     <common>
 0004:0003be70       ?_OptionsStorage@?1??__local_stdio_printf_options@@9@9 00000001802c5e70     <common>
 0004:0003be88       __dyn_tls_init_callback    00000001802c5e88     <common>
 0006:00000000       __imp_D3DCompile           00000001802d3000     d3dcompiler:D3DCOMPILER_47.dll
 0006:00000008       \177D3DCOMPILER_47_NULL_THUNK_DATA 00000001802d3008     d3dcompiler:D3DCOMPILER_47.dll
 0006:00000060       __imp_FreeImage_GetHeight  00000001802d3060     FreeImage:FreeImage.dll
 0006:00000068       __imp_FreeImage_FIFSupportsReading 00000001802d3068     FreeImage:FreeImage.dll
 0006:00000070       __imp_FreeImage_Unload     00000001802d3070     FreeImage:FreeImage.dll
 0006:00000078       __imp_FreeImage_LoadFromMemory 00000001802d3078     FreeImage:FreeImage.dll
 0006:00000080       __imp_FreeImage_GetFIFFromFilename 00000001802d3080     FreeImage:FreeImage.dll
 0006:00000088       __imp_FreeImage_GetFileTypeFromMemory 00000001802d3088     FreeImage:FreeImage.dll
 0006:00000090       __imp_FreeImage_GetBits    00000001802d3090     FreeImage:FreeImage.dll
 0006:00000098       __imp_FreeImage_GetBPP     00000001802d3098     FreeImage:FreeImage.dll
 0006:000000a0       __imp_FreeImage_GetWidth   00000001802d30a0     FreeImage:FreeImage.dll
 0006:000000a8       \177FreeImage_NULL_THUNK_DATA 00000001802d30a8     FreeImage:FreeImage.dll
 0006:00000108       __imp_GetDeviceCaps        00000001802d3108     gdi32:GDI32.dll
 0006:00000110       \177GDI32_NULL_THUNK_DATA  00000001802d3110     gdi32:GDI32.dll
 0006:00000168       __imp_GetStdHandle         00000001802d3168     kernel32:KERNEL32.dll
 0006:00000170       __imp_GetConsoleScreenBufferInfo 00000001802d3170     kernel32:KERNEL32.dll
 0006:00000178       __imp_SetConsoleTextAttribute 00000001802d3178     kernel32:KERNEL32.dll
 0006:00000180       __imp_RtlLookupFunctionEntry 00000001802d3180     kernel32:KERNEL32.dll
 0006:00000188       __imp_UnhandledExceptionFilter 00000001802d3188     kernel32:KERNEL32.dll
 0006:00000190       __imp_SetUnhandledExceptionFilter 00000001802d3190     kernel32:KERNEL32.dll
 0006:00000198       __imp_GetCurrentProcess    00000001802d3198     kernel32:KERNEL32.dll
 0006:000001a0       __imp_TerminateProcess     00000001802d31a0     kernel32:KERNEL32.dll
 0006:000001a8       __imp_IsProcessorFeaturePresent 00000001802d31a8     kernel32:KERNEL32.dll
 0006:000001b0       __imp_IsDebuggerPresent    00000001802d31b0     kernel32:KERNEL32.dll
 0006:000001b8       __imp_GetStartupInfoW      00000001802d31b8     kernel32:KERNEL32.dll
 0006:000001c0       __imp_GetModuleHandleW     00000001802d31c0     kernel32:KERNEL32.dll
 0006:000001c8       __imp_RaiseException       00000001802d31c8     kernel32:KERNEL32.dll
 0006:000001d0       __imp_MultiByteToWideChar  00000001802d31d0     kernel32:KERNEL32.dll
 0006:000001d8       __imp_WideCharToMultiByte  00000001802d31d8     kernel32:KERNEL32.dll
 0006:000001e0       __imp_QueryPerformanceCounter 00000001802d31e0     kernel32:KERNEL32.dll
 0006:000001e8       __imp_GetCurrentProcessId  00000001802d31e8     kernel32:KERNEL32.dll
 0006:000001f0       __imp_GetCurrentThreadId   00000001802d31f0     kernel32:KERNEL32.dll
 0006:000001f8       __imp_GetSystemTimeAsFileTime 00000001802d31f8     kernel32:KERNEL32.dll
 0006:00000200       __imp_DisableThreadLibraryCalls 00000001802d3200     kernel32:KERNEL32.dll
 0006:00000208       __imp_RtlVirtualUnwind     00000001802d3208     kernel32:KERNEL32.dll
 0006:00000210       __imp_GetProcAddress       00000001802d3210     kernel32:KERNEL32.dll
 0006:00000218       __imp_InitializeSListHead  00000001802d3218     kernel32:KERNEL32.dll
 0006:00000220       __imp_GetLastError         00000001802d3220     kernel32:KERNEL32.dll
 0006:00000228       __imp_HeapAlloc            00000001802d3228     kernel32:KERNEL32.dll
 0006:00000230       __imp_HeapFree             00000001802d3230     kernel32:KERNEL32.dll
 0006:00000238       __imp_GetProcessHeap       00000001802d3238     kernel32:KERNEL32.dll
 0006:00000240       __imp_VirtualQuery         00000001802d3240     kernel32:KERNEL32.dll
 0006:00000248       __imp_FreeLibrary          00000001802d3248     kernel32:KERNEL32.dll
 0006:00000250       __imp_RtlCaptureContext    00000001802d3250     kernel32:KERNEL32.dll
 0006:00000258       \177KERNEL32_NULL_THUNK_DATA 00000001802d3258     kernel32:KERNEL32.dll
 0006:000002e0       __imp_SetCursorPos         00000001802d32e0     user32:USER32.dll
 0006:000002e8       __imp_ClientToScreen       00000001802d32e8     user32:USER32.dll
 0006:000002f0       __imp_TranslateMessage     00000001802d32f0     user32:USER32.dll
 0006:000002f8       __imp_DispatchMessageA     00000001802d32f8     user32:USER32.dll
 0006:00000300       __imp_PeekMessageA         00000001802d3300     user32:USER32.dll
 0006:00000308       __imp_DefWindowProcA       00000001802d3308     user32:USER32.dll
 0006:00000310       __imp_RegisterClassExA     00000001802d3310     user32:USER32.dll
 0006:00000318       __imp_CreateWindowExA      00000001802d3318     user32:USER32.dll
 0006:00000320       __imp_ShowWindow           00000001802d3320     user32:USER32.dll
 0006:00000328       __imp_GetSystemMetrics     00000001802d3328     user32:USER32.dll
 0006:00000330       __imp_GetDC                00000001802d3330     user32:USER32.dll
 0006:00000338       __imp_ReleaseDC            00000001802d3338     user32:USER32.dll
 0006:00000340       __imp_AdjustWindowRect     00000001802d3340     user32:USER32.dll
 0006:00000348       __imp_ShowCursor           00000001802d3348     user32:USER32.dll
 0006:00000350       __imp_LoadCursorA          00000001802d3350     user32:USER32.dll
 0006:00000358       __imp_LoadIconA            00000001802d3358     user32:USER32.dll
 0006:00000360       \177USER32_NULL_THUNK_DATA 00000001802d3360     user32:USER32.dll
 0006:000003d0       __imp__vcomp_barrier       00000001802d33d0     VCOMPD:VCOMP140D.DLL
 0006:000003d8       __imp__vcomp_for_static_simple_init 00000001802d33d8     VCOMPD:VCOMP140D.DLL
 0006:000003e0       __imp__vcomp_for_static_end 00000001802d33e0     VCOMPD:VCOMP140D.DLL
 0006:000003e8       \177VCOMP140D_NULL_THUNK_DATA 00000001802d33e8     VCOMPD:VCOMP140D.DLL
 0006:00000440       __imp_memcmp               00000001802d3440     vcruntimed:VCRUNTIME140D.dll
 0006:00000448       __imp___CxxFrameHandler3   00000001802d3448     vcruntimed:VCRUNTIME140D.dll
 0006:00000450       __imp_memset               00000001802d3450     vcruntimed:VCRUNTIME140D.dll
 0006:00000458       __imp___vcrt_LoadLibraryExW 00000001802d3458     vcruntimed:VCRUNTIME140D.dll
 0006:00000460       __imp___vcrt_GetModuleHandleW 00000001802d3460     vcruntimed:VCRUNTIME140D.dll
 0006:00000468       __imp___vcrt_GetModuleFileNameW 00000001802d3468     vcruntimed:VCRUNTIME140D.dll
 0006:00000470       __imp___std_type_info_destroy_list 00000001802d3470     vcruntimed:VCRUNTIME140D.dll
 0006:00000478       __imp__CxxThrowException   00000001802d3478     vcruntimed:VCRUNTIME140D.dll
 0006:00000480       __imp___std_exception_destroy 00000001802d3480     vcruntimed:VCRUNTIME140D.dll
 0006:00000488       __imp___std_exception_copy 00000001802d3488     vcruntimed:VCRUNTIME140D.dll
 0006:00000490       __imp___intrinsic_setjmp   00000001802d3490     vcruntimed:VCRUNTIME140D.dll
 0006:00000498       __imp___C_specific_handler 00000001802d3498     vcruntimed:VCRUNTIME140D.dll
 0006:000004a0       __imp_memchr               00000001802d34a0     vcruntimed:VCRUNTIME140D.dll
 0006:000004a8       __imp_strstr               00000001802d34a8     vcruntimed:VCRUNTIME140D.dll
 0006:000004b0       __imp_longjmp              00000001802d34b0     vcruntimed:VCRUNTIME140D.dll
 0006:000004b8       __imp_strrchr              00000001802d34b8     vcruntimed:VCRUNTIME140D.dll
 0006:000004c0       __imp_memmove              00000001802d34c0     vcruntimed:VCRUNTIME140D.dll
 0006:000004c8       __imp_memcpy               00000001802d34c8     vcruntimed:VCRUNTIME140D.dll
 0006:000004d0       __imp__purecall            00000001802d34d0     vcruntimed:VCRUNTIME140D.dll
 0006:000004d8       \177VCRUNTIME140D_NULL_THUNK_DATA 00000001802d34d8     vcruntimed:VCRUNTIME140D.dll
 0006:00000548       __imp_D3D11CreateDeviceAndSwapChain 00000001802d3548     d3d11:d3d11.dll
 0006:00000550       \177d3d11_NULL_THUNK_DATA  00000001802d3550     d3d11:d3d11.dll
 0006:000005a8       __imp_fseek                00000001802d35a8     ucrtd:ucrtbased.dll
 0006:000005b0       __imp_ftell                00000001802d35b0     ucrtd:ucrtbased.dll
 0006:000005b8       __imp_free                 00000001802d35b8     ucrtd:ucrtbased.dll
 0006:000005c0       __imp_malloc               00000001802d35c0     ucrtd:ucrtbased.dll
 0006:000005c8       __imp_realloc              00000001802d35c8     ucrtd:ucrtbased.dll
 0006:000005d0       __imp_exit                 00000001802d35d0     ucrtd:ucrtbased.dll
 0006:000005d8       __imp__seh_filter_dll      00000001802d35d8     ucrtd:ucrtbased.dll
 0006:000005e0       __imp__configure_narrow_argv 00000001802d35e0     ucrtd:ucrtbased.dll
 0006:000005e8       __imp__initialize_narrow_environment 00000001802d35e8     ucrtd:ucrtbased.dll
 0006:000005f0       __imp__initialize_onexit_table 00000001802d35f0     ucrtd:ucrtbased.dll
 0006:000005f8       __imp__register_onexit_function 00000001802d35f8     ucrtd:ucrtbased.dll
 0006:00000600       __imp__execute_onexit_table 00000001802d3600     ucrtd:ucrtbased.dll
 0006:00000608       __imp__crt_atexit          00000001802d3608     ucrtd:ucrtbased.dll
 0006:00000610       __imp__crt_at_quick_exit   00000001802d3610     ucrtd:ucrtbased.dll
 0006:00000618       __imp__cexit               00000001802d3618     ucrtd:ucrtbased.dll
 0006:00000620       __imp__CrtDbgReport        00000001802d3620     ucrtd:ucrtbased.dll
 0006:00000628       __imp__CrtDbgReportW       00000001802d3628     ucrtd:ucrtbased.dll
 0006:00000630       __imp_terminate            00000001802d3630     ucrtd:ucrtbased.dll
 0006:00000638       __imp__callnewh            00000001802d3638     ucrtd:ucrtbased.dll
 0006:00000640       __imp__initterm            00000001802d3640     ucrtd:ucrtbased.dll
 0006:00000648       __imp__initterm_e          00000001802d3648     ucrtd:ucrtbased.dll
 0006:00000650       __imp__free_dbg            00000001802d3650     ucrtd:ucrtbased.dll
 0006:00000658       __imp___stdio_common_vsprintf_s 00000001802d3658     ucrtd:ucrtbased.dll
 0006:00000660       __imp__wmakepath_s         00000001802d3660     ucrtd:ucrtbased.dll
 0006:00000668       __imp__wsplitpath_s        00000001802d3668     ucrtd:ucrtbased.dll
 0006:00000670       __imp_wcscpy_s             00000001802d3670     ucrtd:ucrtbased.dll
 0006:00000678       __imp_strncmp              00000001802d3678     ucrtd:ucrtbased.dll
 0006:00000680       __imp_strtol               00000001802d3680     ucrtd:ucrtbased.dll
 0006:00000688       __imp_qsort                00000001802d3688     ucrtd:ucrtbased.dll
 0006:00000690       __imp_strncpy              00000001802d3690     ucrtd:ucrtbased.dll
 0006:00000698       __imp_strcmp               00000001802d3698     ucrtd:ucrtbased.dll
 0006:000006a0       __imp_strcat               00000001802d36a0     ucrtd:ucrtbased.dll
 0006:000006a8       __imp_getenv               00000001802d36a8     ucrtd:ucrtbased.dll
 0006:000006b0       __imp_strlen               00000001802d36b0     ucrtd:ucrtbased.dll
 0006:000006b8       __imp_fwrite               00000001802d36b8     ucrtd:ucrtbased.dll
 0006:000006c0       __imp__ftelli64            00000001802d36c0     ucrtd:ucrtbased.dll
 0006:000006c8       __imp__fseeki64            00000001802d36c8     ucrtd:ucrtbased.dll
 0006:000006d0       __imp_fread                00000001802d36d0     ucrtd:ucrtbased.dll
 0006:000006d8       __imp_fclose               00000001802d36d8     ucrtd:ucrtbased.dll
 0006:000006e0       __imp_fopen                00000001802d36e0     ucrtd:ucrtbased.dll
 0006:000006e8       __imp_tanhf                00000001802d36e8     ucrtd:ucrtbased.dll
 0006:000006f0       __imp_sinf                 00000001802d36f0     ucrtd:ucrtbased.dll
 0006:000006f8       __imp___stdio_common_vsprintf 00000001802d36f8     ucrtd:ucrtbased.dll
 0006:00000700       __imp_atof                 00000001802d3700     ucrtd:ucrtbased.dll
 0006:00000708       __imp___stdio_common_vsscanf 00000001802d3708     ucrtd:ucrtbased.dll
 0006:00000710       __imp_sqrtf                00000001802d3710     ucrtd:ucrtbased.dll
 0006:00000718       __imp_ceilf                00000001802d3718     ucrtd:ucrtbased.dll
 0006:00000720       __imp_clock                00000001802d3720     ucrtd:ucrtbased.dll
 0006:00000728       __imp_cosf                 00000001802d3728     ucrtd:ucrtbased.dll
 0006:00000730       __imp___stdio_common_vfprintf 00000001802d3730     ucrtd:ucrtbased.dll
 0006:00000738       __imp___acrt_iob_func      00000001802d3738     ucrtd:ucrtbased.dll
 0006:00000740       __imp___stdio_common_vswprintf_s 00000001802d3740     ucrtd:ucrtbased.dll
 0006:00000748       __imp_atoi                 00000001802d3748     ucrtd:ucrtbased.dll
 0006:00000750       \177ucrtbased_NULL_THUNK_DATA 00000001802d3750     ucrtd:ucrtbased.dll
 0006:000007f8       __IMPORT_DESCRIPTOR_d3d11  00000001802d37f8     d3d11:d3d11.dll
 0006:0000080c       __IMPORT_DESCRIPTOR_D3DCOMPILER_47 00000001802d380c     d3dcompiler:D3DCOMPILER_47.dll
 0006:00000820       __IMPORT_DESCRIPTOR_FreeImage 00000001802d3820     FreeImage:FreeImage.dll
 0006:00000834       __IMPORT_DESCRIPTOR_KERNEL32 00000001802d3834     kernel32:KERNEL32.dll
 0006:00000848       __IMPORT_DESCRIPTOR_USER32 00000001802d3848     user32:USER32.dll
 0006:0000085c       __IMPORT_DESCRIPTOR_GDI32  00000001802d385c     gdi32:GDI32.dll
 0006:00000870       __IMPORT_DESCRIPTOR_VCOMP140D 00000001802d3870     VCOMPD:VCOMP140D.DLL
 0006:00000884       __IMPORT_DESCRIPTOR_VCRUNTIME140D 00000001802d3884     vcruntimed:VCRUNTIME140D.dll
 0006:00000898       __IMPORT_DESCRIPTOR_ucrtbased 00000001802d3898     ucrtd:ucrtbased.dll
 0006:000008ac       __NULL_IMPORT_DESCRIPTOR   00000001802d38ac     d3d11:d3d11.dll
 0008:00000000       __guard_check_icall_fptr   00000001802d6000     MSVCRTD:guard_support.obj
 0008:00000010       __guard_dispatch_icall_fptr 00000001802d6010     MSVCRTD:guard_support.obj
